
/home/pulp-bruno/work/linear_layer_training/BUILD/GAP8_V3/GCC_RISCV/matrixMul:     file format elf32-littleriscv

Sections:
Idx Name          Size      VMA       LMA       File off  Algn  Flags
  0 .data_tiny_fc 00000390  00000004  1b000004  00001004  2**2  CONTENTS, ALLOC, LOAD, DATA
  1 .stack        00001038  1b000398  1b000398  00001398  2**3  CONTENTS, ALLOC, LOAD, DATA
  2 .vectors      000000a0  1c000000  1c000000  00003000  2**0  CONTENTS, ALLOC, LOAD, READONLY, CODE
  3 .text         00005518  1c0000a0  1c0000a0  000030a0  2**1  CONTENTS, ALLOC, LOAD, READONLY, CODE
  4 .init_array   00000040  1c0055b8  1c0055b8  000085b8  2**2  CONTENTS, ALLOC, LOAD, DATA
  5 .fini_array   0000000c  1c0055f8  1c0055f8  000085f8  2**2  CONTENTS, ALLOC, LOAD, DATA
  6 .init         00000000  1c005604  1c005604  00011020  2**0  CONTENTS, ALLOC, LOAD, CODE
  7 .fini         00000000  1c005604  1c005604  00011020  2**0  CONTENTS, ALLOC, LOAD, CODE
  8 .preinit_array 00000000  1c005604  1c005604  00011020  2**0  CONTENTS, ALLOC, LOAD, DATA
  9 .boot         00000000  1c005604  1c005604  00011020  2**0  CONTENTS
 10 .got          00000000  1c005604  1c005604  00011020  2**0  CONTENTS, ALLOC, LOAD, DATA
 11 .shbss        00000000  1c005604  1c005604  00011020  2**0  CONTENTS
 12 .gnu.offload_funcs 00000000  1c005604  1c005604  00011020  2**0  CONTENTS
 13 .gnu.offload_vars 00000000  1c005604  1c005604  00011020  2**0  CONTENTS
 14 .rodata       000005ac  1c005604  1c005604  00008604  2**2  CONTENTS, ALLOC, LOAD, READONLY, DATA
 15 .data         000081a4  1c005bb0  1c005bb0  00008bb0  2**2  CONTENTS, ALLOC, LOAD, DATA
 16 .bss          00000254  1c00dd54  1c00dd54  00010d54  2**2  ALLOC
 17 .data_tiny_l1 00000018  00000004  1c00dfa8  00011004  2**2  CONTENTS, ALLOC, LOAD, DATA
 18 .l1cluster_g  00000004  1000001c  1c00dfc0  0001101c  2**2  CONTENTS, ALLOC, LOAD, DATA
 19 .bss_l1       00000000  10000020  10000020  00011020  2**0  CONTENTS
 20 .debug_frame  0000428c  00000000  00000000  00011020  2**2  CONTENTS, READONLY, DEBUGGING
 21 .debug_info   00059e40  00000000  00000000  000152ac  2**0  CONTENTS, READONLY, DEBUGGING
 22 .debug_abbrev 0000a1a6  00000000  00000000  0006f0ec  2**0  CONTENTS, READONLY, DEBUGGING
 23 .debug_loc    00017fd5  00000000  00000000  00079292  2**0  CONTENTS, READONLY, DEBUGGING
 24 .debug_aranges 00001120  00000000  00000000  00091268  2**3  CONTENTS, READONLY, DEBUGGING
 25 .debug_ranges 000035f0  00000000  00000000  00092388  2**3  CONTENTS, READONLY, DEBUGGING
 26 .debug_macro  0000dda8  00000000  00000000  00095978  2**0  CONTENTS, READONLY, DEBUGGING
 27 .debug_line   0002118b  00000000  00000000  000a3720  2**0  CONTENTS, READONLY, DEBUGGING
 28 .debug_str    00077eff  00000000  00000000  000c48ab  2**0  CONTENTS, READONLY, DEBUGGING
 29 .comment      0000001a  00000000  00000000  0013c7aa  2**0  CONTENTS, READONLY
 30 .Pulp_Chip.Info 0000004e  00000000  00000000  0013c7c4  2**0  CONTENTS, READONLY
SYMBOL TABLE:
00000004 l    d  .data_tiny_fc	00000000 .data_tiny_fc
1b000398 l    d  .stack	00000000 .stack
1c000000 l    d  .vectors	00000000 .vectors
1c0000a0 l    d  .text	00000000 .text
1c0055b8 l    d  .init_array	00000000 .init_array
1c0055f8 l    d  .fini_array	00000000 .fini_array
1c005604 l    d  .init	00000000 .init
1c005604 l    d  .fini	00000000 .fini
1c005604 l    d  .preinit_array	00000000 .preinit_array
1c005604 l    d  .boot	00000000 .boot
1c005604 l    d  .got	00000000 .got
1c005604 l    d  .shbss	00000000 .shbss
1c005604 l    d  .gnu.offload_funcs	00000000 .gnu.offload_funcs
1c005604 l    d  .gnu.offload_vars	00000000 .gnu.offload_vars
1c005604 l    d  .rodata	00000000 .rodata
1c005bb0 l    d  .data	00000000 .data
1c00dd54 l    d  .bss	00000000 .bss
00000004 l    d  .data_tiny_l1	00000000 .data_tiny_l1
1000001c l    d  .l1cluster_g	00000000 .l1cluster_g
10000020 l    d  .bss_l1	00000000 .bss_l1
00000000 l    d  .debug_frame	00000000 .debug_frame
00000000 l    d  .debug_info	00000000 .debug_info
00000000 l    d  .debug_abbrev	00000000 .debug_abbrev
00000000 l    d  .debug_loc	00000000 .debug_loc
00000000 l    d  .debug_aranges	00000000 .debug_aranges
00000000 l    d  .debug_ranges	00000000 .debug_ranges
00000000 l    d  .debug_macro	00000000 .debug_macro
00000000 l    d  .debug_line	00000000 .debug_line
00000000 l    d  .debug_str	00000000 .debug_str
00000000 l    d  .comment	00000000 .comment
00000000 l    d  .Pulp_Chip.Info	00000000 .Pulp_Chip.Info
00000000 l    df *ABS*	00000000 bridge.c
1c0023ea l     F .text	0000001c __rt_event_enqueue
1c002406 l     F .text	00000020 __rt_bridge_check_bridge_req.part.5
1c002426 l     F .text	00000046 __rt_bridge_wait
00000004 l     O .data_tiny_fc	00000004 __rt_bridge_flash_handle
00000008 l     O .data_tiny_fc	00000004 __rt_bridge_flash_type
0000000c l     O .data_tiny_fc	00000004 __rt_bridge_flash_itf
00000010 l     O .data_tiny_fc	00000004 __rt_bridge_flash_cs
00000014 l     O .data_tiny_fc	00000004 __rt_bridge_eeprom_handle
00000000 l    df *ABS*	00000000 events.c
00000000 l    df *ABS*	00000000 periph-v2.c
00000000 l    df *ABS*	00000000 hyperram-v1.c
1c0038d2 l     F .text	00000014 l2_memcpy
1c0038e6 l     F .text	00000024 rt_event_enqueue
1c003962 l     F .text	00000044 __pi_hyper_copy_exec
1c0039f6 l     F .text	00000282 __pi_hyper_copy_misaligned
1c0039a6 l     F .text	00000050 exec_pending_task
1c003c80 l     F .text	00000050 __rt_hyper_init
1c00dd84 l     O .bss	00000080 __pi_hyper_temp_buffer
1c00df3c l     O .bss	00000004 __pi_hyper_cluster_reqs_first
1c00df40 l     O .bss	00000004 __rt_hyper_open_count
00000000 l    df *ABS*	00000000 pwm.c
00000000 l    df *ABS*	00000000 rtc.c
00000000 l    df *ABS*	00000000 conf.c
00000000 l    df *ABS*	00000000 debug.c
00000000 l    df *ABS*	00000000 utils.c
1c00220a l     F .text	0000007c __rt_fc_cluster_lock_req
1b000ba0 l     O .stack	00000018 cbsys_first
00000000 l    df *ABS*	00000000 himax.c
00000000 l    df *ABS*	00000000 io.c
1c003e6e l     F .text	0000000e __rt_io_end_of_flush
1c003e7c l     F .text	00000050 __rt_io_uart_wait_req
1c003ecc l     F .text	00000040 __rt_do_putc_host
1c003f0c l     F .text	0000005a __rt_io_start
1c003f66 l     F .text	00000020 rt_event_execute.isra.4.constprop.12
1c003f86 l     F .text	00000070 __rt_io_lock
1c003ff6 l     F .text	00000032 __rt_putc_host_cluster_req
1c004028 l     F .text	00000070 __rt_io_unlock
1c004098 l     F .text	000000ce __rt_io_uart_flush.constprop.11
1c004166 l     F .text	0000008c __rt_io_uart_wait_pending
1c0041f2 l     F .text	00000026 __rt_io_stop
1c0042d8 l     F .text	000000a8 tfp_putc.isra.9
1c00de9c l     O .bss	00000080 __rt_io_event
1b000bbc l     O .stack	00000010 __rt_io_fc_lock
1c00dcd4 l     O .data	00000080 __rt_putc_host_buffer
1c00df50 l     O .bss	00000004 __rt_io_event_current
1c00df54 l     O .bss	00000004 __rt_io_pending_flush
1c00df58 l     O .bss	00000004 __rt_putc_host_buffer_index
1c00df5c l     O .bss	00000004 _rt_io_uart
00000000 l    df *ABS*	00000000 crt0.o
1c000094 l       .vectors	00000000 __rt_no_irq_handler
00000000 l    df *ABS*	00000000 sched.o
1c000132 l       .text	00000000 __rt_handle_special_event
1c00012c l       .text	00000000 __rt_no_first
1c00012e l       .text	00000000 __rt_common
1c000130 l       .text	00000000 enqueue_end
1c000192 l       .text	00000000 __rt_remote_enqueue_event_loop_cluster
1c0001ce l       .text	00000000 __rt_remote_enqueue_event_loop_cluster_continue
1c0001b8 l       .text	00000000 __rt_cluster_pool_update_end
1c0001a0 l       .text	00000000 __rt_cluster_pool_update_loop
1c0001a8 l       .text	00000000 __rt_cluster_pool_update_loop_end
1c0001b0 l       .text	00000000 __rt_cluster_pool_update_no_current
1c0001ec l       .text	00000000 __rt_remote_enqueue_event_loop_next_cluster
00000000 l    df *ABS*	00000000 vectors.o
1c000266 l       .text	00000000 __rt_call_c_function
00000000 l    df *ABS*	00000000 udma-v2.o
1c000356 l       .text	00000000 __rt_udma_no_copy
1c00031e l       .text	00000000 repeat_transfer
1c00036e l       .text	00000000 handle_special_end
1c0002ca l       .text	00000000 resume_after_special_end
1c000308 l       .text	00000000 checkTask
1c0002de l       .text	00000000 __rt_udma_call_enqueue_callback_resume
1c000304 l       .text	00000000 transfer_resume
1c0002fc l       .text	00000000 hyper
1c0002fc l       .text	00000000 fc_tcdm
1c0002fc l       .text	00000000 dual
1c00031e l       .text	00000000 dmaCmd
1c000346 l       .text	00000000 not_last
1c0003b6 l       .text	00000000 i2c_step1
1c0003d2 l       .text	00000000 i2c_step2
1c000378 l       .text	00000000 spim_step3
1c000394 l       .text	00000000 spim_step2
00000000 l    df *ABS*	00000000 soc_event_eu.o
1c000426 l       .text	00000000 __rt_fc_socevents_not_hyper_rx
1c00042c l       .text	00000000 __rt_fc_socevents_not_hyper_tx
1c000446 l       .text	00000000 __rt_soc_evt_no_udma_channel
1c0004b4 l       .text	00000000 rtc_event_handler
1c000472 l       .text	00000000 __rt_soc_evt_pwm
1c000486 l       .text	00000000 __rt_soc_evt_store
1c00049a l       .text	00000000 socevents_set
00000000 l    df *ABS*	00000000 gpio.o
1c000502 l       .text	00000000 __rt_gpio_handler_end
00000000 l    df *ABS*	00000000 hyperram-v1_asm.o
1c000552 l       .text	00000000 __rt_hyper_handle_copy_end
1c000512 l       .text	00000000 __rt_hyper_repeat_copy
1c000540 l       .text	00000000 __rt_hyper_repeat_copy_not_last
1c000564 l       .text	00000000 __rt_hyper_handle_emu_task
1c00057e l       .text	00000000 __rt_hyper_handle_pending_tasks
1c000614 l       .text	00000000 __rt_hyper_repeat_copy_last3
1c0005f0 l       .text	00000000 __rt_hyper_repeat_copy_not_last3
00000000 l    df *ABS*	00000000 libgcc2.c
00000000 l    df *ABS*	00000000 libgcc2.c
00000000 l    df *ABS*	00000000 addsf3.c
00000000 l    df *ABS*	00000000 divsf3.c
00000000 l    df *ABS*	00000000 gesf2.c
00000000 l    df *ABS*	00000000 lesf2.c
00000000 l    df *ABS*	00000000 mulsf3.c
00000000 l    df *ABS*	00000000 subsf3.c
00000000 l    df *ABS*	00000000 floatunsisf.c
00000000 l    df *ABS*	00000000 extendsfdf2.c
00000000 l    df *ABS*	00000000 main.c
1c001892 l     F .text	00000044 cluster_entry
00000000 l    df *ABS*	00000000 cluster.c
00000000 l    df *ABS*	00000000 kernels.c
00000000 l    df *ABS*	00000000 init.c
1c001f62 l     F .text	00000026 cluster_start
1c0055bc l     O .init_array	00000004 ctor_list
1c0055fc l     O .fini_array	00000004 dtor_list
00000000 l    df *ABS*	00000000 irq.c
00000000 l    df *ABS*	00000000 alloc.c
00000000 l    df *ABS*	00000000 time.c
1c0029c2 l     F .text	00000018 __rt_time_poweroff
1c0029da l     F .text	00000018 __rt_time_poweron
1c00df34 l     O .bss	00000004 timer_count
00000000 l    df *ABS*	00000000 time_irq.c
00000000 l    df *ABS*	00000000 freq.c
00000000 l    df *ABS*	00000000 pmu_driver.c
1c002e76 l     F .text	0000002c SetFllMultDivFactors
1c002ea2 l     F .text	00000026 soc_eu_fcEventMask_setEvent
1c00dc88 l     O .data	00000007 SystemStateToSCUFastSeq
1c00dca0 l     O .data	00000003 ToHWDCDC_Pos
1c00dcb0 l     O .data	00000004 RetPMUStateToPMUState
00000000 l    df *ABS*	00000000 cluster.c
1c00329c l     F .text	00000062 __rt_init_cluster_data
1c0032fe l     F .text	00000064 __rt_cluster_init
1c003362 l     F .text	00000124 __rt_cluster_mount_step
00000000 l    df *ABS*	00000000 pulpos_emu.c
1c00363c l     F .text	0000003c __rt_cluster_pulpos_emu_init
1c00dd58 l     O .bss	0000002c __rt_pulpos_emu_global_cluster_task
1c00df38 l     O .bss	00000004 __rt_fc_cluster_device
00000000 l    df *ABS*	00000000 cluster_call.c
00000000 l    df *ABS*	00000000 pads-v1.c
00000000 l    df *ABS*	00000000 gpio-v2.c
1c00de04 l     O .bss	00000098 __rt_gpio
00000000 l    df *ABS*	00000000 i2s-v1.c
1c003d56 l     F .text	00000034 __rt_i2s_resume
1c003d8a l     F .text	00000028 __rt_i2s_setfreq_after
1c003db2 l     F .text	0000002c __rt_i2s_setfreq_before
1c00df44 l     O .bss	00000004 __rt_i2s_first
00000000 l    df *ABS*	00000000 i2c-v2.c
1c00dcb4 l     O .data	00000020 __rt_i2c
00000000 l    df *ABS*	00000000 spim-v2.c
1c00df48 l     O .bss	00000008 __rt_spim_open_count
00000000 l    df *ABS*	00000000 semihost.c
1c0044d6 l     F .text	0000000e __internal_semihost
00000000 l    df *ABS*	00000000 fprintf.c
00000000 l    df *ABS*	00000000 prf.c
1c00451a l     F .text	00000092 _to_x
1c0045ac l     F .text	00000020 _rlrshift
1c0045cc l     F .text	00000044 _ldiv5
1c004610 l     F .text	00000034 _get_digit
00000000 l    df *ABS*	00000000 uart.c
1c005120 l     F .text	00000024 __rt_uart_setup.isra.5
1c005144 l     F .text	00000020 __rt_uart_setfreq_after
1c005164 l     F .text	00000042 __rt_uart_wait_tx_done.isra.6
1c0051a6 l     F .text	0000002a __rt_uart_setfreq_before
1c0051d0 l     F .text	00000042 __rt_uart_cluster_req
1c005212 l     F .text	00000026 soc_eu_fcEventMask_setEvent
1c00df1c l     O .bss	00000010 __rt_uart
00000000 l    df *ABS*	00000000 pe-eu-v3.o
1c0054c6 l       .text	00000000 __rt_slave_start
1c00541c l       .text	00000000 __rt_master_event
1c005430 l       .text	00000000 __rt_master_loop
1c005420 l       .text	00000000 __rt_push_event_to_fc_retry
1c0054b8 l       .text	00000000 __rt_push_event_to_fc_wait
1c0054aa l       .text	00000000 __rt_master_sleep
1c005438 l       .text	00000000 __rt_master_loop_update_next
1c00548c l       .text	00000000 __rt_no_stack_check
1c005498 l       .text	00000000 __rt_master_no_slave_barrier
1c0054a8 l       .text	00000000 __rt_master_loop_no_slave
1c0054e4 l       .text	00000000 __rt_fork_return
1c0054e8 l       .text	00000000 __rt_wait_for_dispatch
1c0054fe l       .text	00000000 __rt_other_entry
1c0054f8 l       .text	00000000 __rt_fork_entry
1c005526 l       .text	00000000 __rt_no_stack_check_end
1c005598 l       .text	00000000 __rt_dma_2d_done
1c005556 l       .text	00000000 __rt_dma_2d_redo
1c00555e l       .text	00000000 __rt_dma_2d_not_last
1c005580 l       .text	00000000 __rt_dma_2d_exit
00000000 l    df *ABS*	00000000 libgcc2.c
00000000 g       *ABS*	00000000 __rt_debug_init_config_trace
00000350 g     O .data_tiny_fc	00000004 __rt_hyper_pending_emu_stride
1c000598 g       .text	00000000 udma_event_handler_end_hyper
1c00237c g     F .text	00000038 __rt_fc_cluster_lock
1c003032 g     F .text	000000a2 InitOneFll
00000000 g       *ABS*	00000000 __RT_DEBUG_CONFIG
1c00df7c g     O .bss	00000004 __rt_cluster_tasks
1c002546 g     F .text	00000020 __rt_bridge_send_notif
1c0026a0 g     F .text	00000074 rt_event_alloc
00000338 g     O .data_tiny_fc	00000001 __rt_hyper_pending_emu_do_memcpy
1c002774 g     F .text	00000064 __rt_event_execute
1c0021b8 g     F .text	00000052 __rt_irq_init
1c00284c g     F .text	00000048 rt_user_alloc
00000310 g     O .data_tiny_fc	00000004 __rt_hyper_pending_hyper_addr
1c00348c g     F .text	000000d4 pi_cluster_open
1c0044f0 g     F .text	0000002a printf
ffffffff g       *ABS*	00000000 pulp__L2
1c002958 g     F .text	0000006a __rt_allocs_init
1c00df60 g     O .bss	00000004 __rt_alloc_l1
1c003486 g     F .text	00000006 pi_cluster_conf_init
ffffffff g       *ABS*	00000000 pulp__PE
1c005cf8 g     O .data	00000780 X_input
1c00211a g     F .text	0000004c rt_irq_set_handler
00000314 g     O .data_tiny_fc	00000004 __rt_hyper_pending_addr
00000308 g     O .data_tiny_fc	00000004 __rt_hyper_udma_handle
1c003196 g     F .text	00000040 InitFlls
00000018 g     O .data_tiny_fc	00000004 __rt_first_free
00000001 g       *ABS*	00000000 __ACTIVE_FC
1c000f84 g     F .text	000001fe .hidden __divsf3
1c006478 g     O .data	00000010 Verification_Vec
00000400 g       *ABS*	00000000 __rt_cl_slave_stack_size
1c002e38 g     F .text	0000003e __rt_freq_init
1c001f88 g     F .text	00000166 __rt_init
00000001 g       *ABS*	00000000 __FC
1c003282 g     F .text	00000012 __rt_fll_init
1c005cc8 g     O .data	00000004 learningRate
1b0013d0 g       .stack	00000000 __fc_tcdm_end
1c00262c g     F .text	00000034 __rt_bridge_init
00000018 g     O .data_tiny_l1	00000004 __rt_cluster_nb_active_pe
0000032c g     O .data_tiny_fc	00000004 __rt_hyper_pending_emu_hyper_addr
1c003e38 g     F .text	00000012 __rt_i2c_init
1c0055b8 g       .text	00000000 _etext
0000030c g     O .data_tiny_fc	00000004 __rt_hyper_pending_base
1c005bb0 g       .data	00000000 sdata
1c001476 g     F .text	00000304 .hidden __subsf3
00000001 g       *ABS*	00000000 __rt_nb_cluster
00000390 g     O .data_tiny_fc	00000004 __rtc_handler
1c0028e0 g     F .text	0000002e rt_alloc
1c0050fa g     F .text	00000026 __rt_uart_cluster_req_done
1c0020ee g     F .text	00000028 __rt_deinit
1b000bb8 g     O .stack	00000001 camera_isAwaked
1c00010e g       .text	00000000 __rt_event_enqueue
1c002a6c g     F .text	0000001e rt_time_wait_us
1c0004ec g       .text	00000000 __rt_gpio_handler
1c000246 g       .text	00000000 __rt_illegal_instr
1c001bb8 g     F .text	0000014a forewardProp
1c002930 g     F .text	00000028 __rt_alloc_init_l1_for_fc
1c0038c8 g     F .text	0000000a __rt_padframe_init
1c005604 g       .fini_array	00000000 __DTOR_END__
0000020c g       *ABS*	00000000 __cluster_text_size
1c000506 g       .text	00000000 __rt_hyper_handle_copy
1c004380 g     F .text	00000028 puts
1c005bf0  w    O .data	00000018 __rt_padframe_profiles
00000330 g     O .data_tiny_fc	00000004 __rt_hyper_pending_emu_addr
00000344 g     O .data_tiny_fc	00000004 __rt_hyper_pending_tasks_last
1c00272e g     F .text	00000022 rt_event_get_blocking
1c001206 g     F .text	00000084 .hidden __lesf2
1c00dd58 g       .bss	00000000 _bss_start
1c00dd54 g       .data	00000000 edata
1c00290e g     F .text	00000022 __rt_alloc_init_l1
1c005cd0  w    O .data	00000004 __rt_iodev_uart_baudrate
1c000174 g       .text	00000000 __rt_remote_enqueue_event
1c00dc90 g     O .data	00000010 PMUState
1c005bb0 g       .data	00000000 _sdata
10000020 g       .l1cluster_g	00000000 __l1_end
1c0005c8 g       .text	00000000 __rt_hyper_handle_burst
1c002c08 g     F .text	00000132 rt_periph_copy
1c0042a0 g     F .text	00000038 __rt_putc_uart
1b000398 g     O .stack	00000800 __rt_fc_stack
00000010 g     O .data_tiny_l1	00000004 __rt_dma_last_pending
1c00013c g       .text	00000000 __rt_bridge_enqueue_event
1c00180a g     F .text	00000088 .hidden __extendsfdf2
1c004644 g     F .text	00000ab6 _prf
10000020 g       .l1cluster_g	00000000 _libgomp_start
1c00096c g     F .text	0000032e .hidden __umoddi3
1c002b16 g     F .text	000000f2 __rt_timer_handler
1c00df64 g     O .bss	00000004 __rt_alloc_l2
1b0013d0 g       .stack	00000000 stack
1c005ce8 g     O .data	00000010 Y_output
1c000630 g     F .text	0000033c .hidden __udivdi3
1c00445c g     F .text	00000008 abort
1c002714 g     F .text	0000001a rt_event_get
1c00df70 g     O .bss	00000008 __rt_freq_domains
0000001c g       *ABS*	00000000 _l1_preload_size
1c00010c g       .text	00000000 _init
1c00dfa8 g       .bss	00000000 _bss_end
1c005bd0  w    O .data	00000010 __rt_padframe_hyper
1c002528 g     F .text	0000001e __rt_bridge_set_available
1c005528 g       .text	00000000 __rt_dma_2d
1c0053ac g       .text	00000000 __rt_pe_start
1c00df6c g     O .bss	00000004 first_delayed
0000038c g     O .data_tiny_fc	00000004 __rt_rtc_init_done
00000008 g       *ABS*	00000000 __NB_ACTIVE_PE
1c003858 g     F .text	00000048 pi_cluster_send_task_to_cl
1c0030d4 g     F .text	000000c2 __rt_pmu_cluster_power_up
1b000bd0 g       .stack	00000000 stack_start
1c001182 g     F .text	00000084 .hidden __gtsf2
00000004 g     O .data_tiny_l1	0000000c __rt_cluster_pool
00010000 g       *ABS*	00000000 __L1Cl
1c005248 g     F .text	00000088 __rt_uart_open
1c001e1a g     F .text	00000148 backpropagation
1c0022f4 g     F .text	00000022 __rt_utils_init
1c00375e g     F .text	000000fa pi_cluster_send_task_to_cl_async
1c005bc0  w    O .data	00000010 __rt_padframe_default
1c0043a8 g     F .text	00000018 fputc_locked
1c005cd8 g     O .data	00000010 B_bias
1c0052d0 g     F .text	0000004c rt_uart_close
1c002894 g     F .text	0000004c rt_user_free
1c0055b8 g       .init_array	00000000 __CTOR_LIST__
1c002d3a g     F .text	00000056 __rt_periph_wait_event
1c002dee g     F .text	0000004a rt_freq_set_and_get
1c0044e4 g     F .text	00000006 semihost_write0
1c002166  w    F .text	00000002 illegal_insn_handler_c
0000033c g     O .data_tiny_fc	00000004 __rt_hyper_pending_emu_task
1c003590 g     F .text	00000070 __rt_cluster_push_fc_event
00000320 g     O .data_tiny_fc	00000004 __rt_hyper_end_task
1c0053ac g       .text	00000000 __cluster_text_start
1c000080 g       .vectors	00000000 _start
1c00282c g     F .text	00000020 rt_user_alloc_init
00000000 g       *ABS*	00000000 __rt_config
00000334 g     O .data_tiny_fc	00000004 __rt_hyper_pending_emu_size
1c00dfa8 g       .bss	00000000 _l1_preload_start_inL2
1c002316 g     F .text	00000032 __rt_fc_lock
10000020 g       .l1cluster_g	00000000 __l1_heap_start
1c002688 g     F .text	00000018 __rt_wait_event_prepare_blocking
1c00246c g     F .text	00000072 __rt_bridge_handle_notif
1c00045e g       .text	00000000 __rt_soc_evt_no_udma
1000001c g     O .l1cluster_g	00000004 __rt_cluster_fc_task_lock
00000340 g     O .data_tiny_fc	00000004 __rt_hyper_pending_tasks
1c002750 g     F .text	00000024 rt_event_push
1c002566 g     F .text	0000001e __rt_bridge_clear_notif
00000014 g     O .data_tiny_l1	00000004 __rt_dma_first_pending
1c005c08 g     O .data	000000c0 __hal_debug_struct
1c002a8a g     F .text	0000008c __rt_time_init
00080000 g       *ABS*	00000000 __L2
00000008 g       *ABS*	00000000 __rt_nb_pe
1c0000a0 g       .text	00000000 _entry
1c006488 g     O .data	00007800 W_weight
1c0027d8 g     F .text	0000002a __rt_wait_event
1c001940 g     F .text	00000278 cluster_fn
1c0031d6 g     F .text	000000ac __rt_pmu_init
1c002168 g     F .text	00000050 __rt_handle_illegal_instr
1c004218 g     F .text	00000010 memset
1c00390a g     F .text	00000058 __pi_hyper_copy_aligned
1c0018d6 g     F .text	0000006a main
1c003294 g     F .text	00000002 __rt_fll_deinit
1c0004a4 g       .text	00000000 udma_event_handler_end
1c00df68 g     O .bss	00000004 __rt_alloc_fc_tcdm
1c003e2e g     F .text	0000000a __rt_himax_init
1c001206 g     F .text	00000084 .hidden __ltsf2
1c0023b4 g     F .text	00000036 __rt_fc_cluster_unlock
00000318 g     O .data_tiny_fc	00000004 __rt_hyper_pending_repeat
1c004464 g     F .text	00000072 __rt_io_init
1c005be0  w    O .data	00000010 __rt_padframe_hyper_gpio
00000000 g       *ABS*	00000000 __FETCH_ALL
1c0005b2 g       .text	00000000 __rt_hyper_handler
1c001d02 g     F .text	000000b6 validateLayer
1c005cd4  w    O .data	00000004 __rt_platform
1c0055f8 g       .init_array	00000000 __CTOR_END__
1c00128a g     F .text	000001ec .hidden __mulsf3
1c0044ea g     F .text	00000006 semihost_exit
1c0055f8 g       .fini_array	00000000 __DTOR_LIST__
1c002660 g     F .text	00000028 __rt_event_init
000002e0 g     O .data_tiny_fc	00000028 __rt_udma_extra_callback_arg
1c0004c8 g       .text	00000000 pwm_event_handler
00000348 g     O .data_tiny_fc	00000004 __rt_hyper_pending_emu_size_2d
1c0043c0 g     F .text	00000028 _prf_locked
00000000 g       *ABS*	00000000 __USE_UART
1c003c78 g     F .text	00000006 __rt_hyper_resume_emu_task
1c002f54 g     F .text	000000de SetFllFrequency
1c003296 g     F .text	00000002 __rt_flls_constructor
1c0029f2 g     F .text	0000007a rt_event_push_delayed
1c00010c g       .text	00000000 _fini
1c002802 g     F .text	00000018 rt_event_wait
1c000090 g       .vectors	00000000 __rt_debug_struct_ptr
1c00567c g     O .rodata	00000100 .hidden __clz_tab
00000328 g     O .data_tiny_fc	00000004 __rt_hyper_pending_emu_channel
1c001182 g     F .text	00000084 .hidden __gesf2
1c005504 g       .text	00000000 __rt_set_slave_stack
1c005ccc  w    O .data	00000004 __rt_fc_stack_size
1c001db8 g     F .text	00000062 cost_func
1c0003f4 g       .text	00000000 __rt_fc_socevents_handler
000002b8 g     O .data_tiny_fc	00000028 __rt_udma_extra_callback
00000358 g     O .data_tiny_fc	00000034 dev_rtc
1c005bb0 g     O .data	00000010 Y_expected
1c000200 g       .text	00000000 __rt_call_external_c_function
1c002348 g     F .text	00000034 __rt_fc_unlock
00000004 g       .data_tiny_l1	00000000 _l1_preload_start
1c003cd0 g     F .text	00000086 __pi_gpio_handler
000002b0 g     O .data_tiny_fc	00000008 __rt_socevents_status
1c002584 g     F .text	0000003a __rt_bridge_printf_flush
1c00df2c  w    O .bss	00000004 __rt_iodev
0000001c g     O .data_tiny_fc	00000014 __rt_sched
1c000000 g       .vectors	00000000 __irq_vector_base
1c00dd54 g       .data	00000000 _edata
00000000 g       *ABS*	00000000 __ZERO
1c002d90 g     F .text	0000005e __rt_periph_init
1c003e5c g     F .text	00000012 __rt_spim_init
1c0024de g     F .text	0000004a __rt_bridge_check_connection
1c003678 g     F .text	00000090 rt_cluster_call
00000800 g       *ABS*	00000000 __rt_stack_size
1c002116 g     F .text	00000004 pi_open_from_conf
ffffffff g       *ABS*	00000000 pulp__FC
1c003dde g     F .text	00000050 __rt_i2s_init
00000003 g       *ABS*	00000000 __rt_debug_init_config
1c00df80 g     O .bss	00000028 __rt_fc_cluster_data
1c0043e8 g     F .text	00000074 exit
1c00281a g     F .text	00000012 __rt_event_sched_init
1c00177a g     F .text	00000090 .hidden __floatunsisf
0000034c g     O .data_tiny_fc	00000004 __rt_hyper_pending_emu_length
1c0002b4 g       .text	00000000 udma_event_handler
1c003560 g     F .text	00000030 pi_cluster_close
1c003c7e g     F .text	00000002 __rt_hyper_resume_copy
00000354 g     O .data_tiny_fc	00000004 pwmEventsStatus
1c0022c4 g     F .text	00000030 __rt_cbsys_exec
0000ffe0 g       .l1cluster_g	00000000 __l1_heap_size
1c002ec8 g     F .text	0000008c __rt_pmu_cluster_power_down
0000031c g     O .data_tiny_fc	00000004 __rt_hyper_pending_repeat_size
1b000b98 g     O .stack	00000004 __rt_debug_config_trace
1c00df30  w    O .bss	00000004 __rt_iodev_uart_channel
1c0000a0 g       .text	00000000 _stext
1c00dca4 g     O .data	00000004 PMURetentionState
ffffffff g       *ABS*	00000000 pulp__L1CL
1c0038a0 g     F .text	00000028 rt_padframe_set
1c00df78 g     O .bss	00000004 __rt_wakeup_use_fast
00000400 g       *ABS*	00000000 __rt_cl_master_stack_size
1c004228 g     F .text	0000001a strchr
1c0025be g     F .text	0000006e __rt_bridge_req_shutdown
1c005238 g     F .text	00000010 rt_uart_conf_init
1c0055b8 g       .text	00000000 __cluster_text_end
1c005350 g     F .text	0000005c __rt_uart_init
1c00dfc4 g       *ABS*	00000000 __l2_end
1c003708 g     F .text	00000056 rt_cluster_mount
1c003e4a g     F .text	00000012 __rt_rtc_init
1c00531c g     F .text	00000034 rt_uart_cluster_write
1c000098 g       .vectors	00000000 __rt_semihosting_call
1b000b9c g     O .stack	00000004 __rt_debug_config
1c000c9a g     F .text	000002ea .hidden __addsf3
1c003298 g     F .text	00000004 __rt_fll_set_freq
1c002286 g     F .text	0000003e __rt_cbsys_add
1c003600 g     F .text	0000003c __rt_cluster_new
1c004242 g     F .text	0000005e __rt_putc_debug_bridge
1c0055b8 g       .text	00000000 _endtext
00000324 g     O .data_tiny_fc	00000004 __rt_hyper_current_task
ffffffff g       *ABS*	00000000 pulp__L1FC
1c00dca8 g     O .data	00000008 FllsFrequency
00000030 g     O .data_tiny_fc	00000280 periph_channels



Disassembly of section .vectors:

1c000000 <__irq_vector_base>:


#ifdef ARCHI_CORE_HAS_1_10
  j __rt_illegal_instr
#else
  j __rt_no_irq_handler
1c000000:	0940006f          	j	1c000094 <__rt_no_irq_handler>
#endif

  j __rt_no_irq_handler
1c000004:	0900006f          	j	1c000094 <__rt_no_irq_handler>
  j __rt_no_irq_handler
1c000008:	08c0006f          	j	1c000094 <__rt_no_irq_handler>
  j __rt_no_irq_handler
1c00000c:	0880006f          	j	1c000094 <__rt_no_irq_handler>
  j __rt_no_irq_handler
1c000010:	0840006f          	j	1c000094 <__rt_no_irq_handler>
  j __rt_no_irq_handler
1c000014:	0800006f          	j	1c000094 <__rt_no_irq_handler>
  j __rt_no_irq_handler
1c000018:	07c0006f          	j	1c000094 <__rt_no_irq_handler>
  j __rt_no_irq_handler
1c00001c:	0780006f          	j	1c000094 <__rt_no_irq_handler>
  j __rt_no_irq_handler
1c000020:	0740006f          	j	1c000094 <__rt_no_irq_handler>
  j __rt_no_irq_handler
1c000024:	0700006f          	j	1c000094 <__rt_no_irq_handler>
  j __rt_no_irq_handler
1c000028:	06c0006f          	j	1c000094 <__rt_no_irq_handler>
  j __rt_no_irq_handler
1c00002c:	0680006f          	j	1c000094 <__rt_no_irq_handler>
  j __rt_no_irq_handler
1c000030:	0640006f          	j	1c000094 <__rt_no_irq_handler>
  j __rt_no_irq_handler
1c000034:	0600006f          	j	1c000094 <__rt_no_irq_handler>
  j __rt_no_irq_handler
1c000038:	05c0006f          	j	1c000094 <__rt_no_irq_handler>
  j __rt_no_irq_handler
1c00003c:	0580006f          	j	1c000094 <__rt_no_irq_handler>
  j __rt_no_irq_handler
1c000040:	0540006f          	j	1c000094 <__rt_no_irq_handler>
  j __rt_no_irq_handler
1c000044:	0500006f          	j	1c000094 <__rt_no_irq_handler>
  j __rt_no_irq_handler
1c000048:	04c0006f          	j	1c000094 <__rt_no_irq_handler>
  j __rt_no_irq_handler
1c00004c:	0480006f          	j	1c000094 <__rt_no_irq_handler>
  j __rt_no_irq_handler
1c000050:	0440006f          	j	1c000094 <__rt_no_irq_handler>
  j __rt_no_irq_handler
1c000054:	0400006f          	j	1c000094 <__rt_no_irq_handler>
  j __rt_no_irq_handler
1c000058:	03c0006f          	j	1c000094 <__rt_no_irq_handler>
  j __rt_no_irq_handler
1c00005c:	0380006f          	j	1c000094 <__rt_no_irq_handler>
  j __rt_no_irq_handler
1c000060:	0340006f          	j	1c000094 <__rt_no_irq_handler>
  j __rt_no_irq_handler
1c000064:	0300006f          	j	1c000094 <__rt_no_irq_handler>
  j __rt_no_irq_handler
1c000068:	02c0006f          	j	1c000094 <__rt_no_irq_handler>
  j __rt_no_irq_handler
1c00006c:	0280006f          	j	1c000094 <__rt_no_irq_handler>
  j __rt_no_irq_handler
1c000070:	0240006f          	j	1c000094 <__rt_no_irq_handler>
  j __rt_no_irq_handler
1c000074:	0200006f          	j	1c000094 <__rt_no_irq_handler>
  j __rt_no_irq_handler
1c000078:	01c0006f          	j	1c000094 <__rt_no_irq_handler>
  j __rt_no_irq_handler
1c00007c:	0180006f          	j	1c000094 <__rt_no_irq_handler>

1c000080 <_start>:


  .org 0x80
  .global _start
_start:
  jal x0, _entry
1c000080:	0200006f          	j	1c0000a0 <_entry>


#ifndef __RT_MODE_BARE

  jal x0, __rt_illegal_instr
1c000084:	1c20006f          	j	1c000246 <__rt_illegal_instr>
	...

1c000090 <__rt_debug_struct_ptr>:
1c000090:	5c08                	lw	a0,56(s0)
1c000092:	1c00                	addi	s0,sp,560

1c000094 <__rt_no_irq_handler>:
  .word __hal_debug_struct

#endif

__rt_no_irq_handler:
  j __rt_no_irq_handler
1c000094:	0000006f          	j	1c000094 <__rt_no_irq_handler>

1c000098 <__rt_semihosting_call>:

#endif

  .global __rt_semihosting_call
__rt_semihosting_call:
  ebreak
1c000098:	00100073          	ebreak
  jr          ra
1c00009c:	00008067          	ret

Disassembly of section .text:

1c0000a0 <_entry>:
  csrw    0x7A1, x0
1c0000a0:	7a101073          	csrw	pcmr,zero
  csrr    a0, 0xF14
1c0000a4:	f1402573          	csrr	a0,mhartid
  andi    a1, a0, 0x1f
1c0000a8:	01f57593          	andi	a1,a0,31
  srli    a0, a0, 5
1c0000ac:	8115                	srli	a0,a0,0x5
  li      a2, ARCHI_FC_CID
1c0000ae:	02000613          	li	a2,32
  bne     a0, a2, __rt_pe_start
1c0000b2:	00c50463          	beq	a0,a2,1c0000ba <_entry+0x1a>
1c0000b6:	2f60506f          	j	1c0053ac <__cluster_text_start>
  la      t0, _bss_start
1c0000ba:	0000e297          	auipc	t0,0xe
1c0000be:	c9e28293          	addi	t0,t0,-866 # 1c00dd58 <_bss_start>
  la      t1, _bss_end
1c0000c2:	0000e317          	auipc	t1,0xe
1c0000c6:	ee630313          	addi	t1,t1,-282 # 1c00dfa8 <_bss_end>
  sw      zero,0(t0)
1c0000ca:	0002a023          	sw	zero,0(t0)
  addi    t0, t0, 4
1c0000ce:	0291                	addi	t0,t0,4
  bltu    t0, t1, 1b
1c0000d0:	fe62ede3          	bltu	t0,t1,1c0000ca <_entry+0x2a>
  la   a0, __rt_fc_stack_size
1c0000d4:	00006517          	auipc	a0,0x6
1c0000d8:	bf850513          	addi	a0,a0,-1032 # 1c005ccc <__rt_fc_stack_size>
  lw   a0, 0(a0)
1c0000dc:	4108                	lw	a0,0(a0)
  la   x2, __rt_fc_stack
1c0000de:	ff000117          	auipc	sp,0xff000
1c0000e2:	2ba10113          	addi	sp,sp,698 # 1b000398 <__rt_fc_stack>
  add  x2, x2, a0
1c0000e6:	912a                	add	sp,sp,a0
  jal  x1, __rt_init
1c0000e8:	6a1010ef          	jal	ra,1c001f88 <__rt_init>
  addi  a0, x0, 0
1c0000ec:	00000513          	li	a0,0
  addi  a1, x0, 0
1c0000f0:	00000593          	li	a1,0
  la    t2, main
1c0000f4:	00001397          	auipc	t2,0x1
1c0000f8:	7e238393          	addi	t2,t2,2018 # 1c0018d6 <main>
  jalr  x1, t2
1c0000fc:	000380e7          	jalr	t2
  mv    s0, a0
1c000100:	842a                	mv	s0,a0
  jal  x1, __rt_deinit
1c000102:	7ed010ef          	jal	ra,1c0020ee <__rt_deinit>
  mv   a0, s0
1c000106:	8522                	mv	a0,s0
  jal  x1, exit
1c000108:	2e0040ef          	jal	ra,1c0043e8 <exit>

1c00010c <_fini>:
  ret
1c00010c:	8082                	ret

1c00010e <__rt_event_enqueue>:
  //   x10/a0: temporary register
  //   x11/a1: the event
  //   x12/a2: temporary register

  // First check if it is a normal event
  andi    x10, x11, 0x3
1c00010e:	0035f513          	andi	a0,a1,3
  bne     x10, x0, __rt_handle_special_event
1c000112:	02051063          	bnez	a0,1c000132 <__rt_handle_special_event>

  // Enqueue normal event
  la      x10, __rt_sched
1c000116:	e4000517          	auipc	a0,0xe4000
1c00011a:	f0650513          	addi	a0,a0,-250 # 1c <_l1_preload_size>
  sw      x0, RT_EVENT_T_NEXT(x11)
1c00011e:	0005a023          	sw	zero,0(a1)
  lw      x12, RT_SCHED_T_FIRST(x10)
1c000122:	4110                	lw	a2,0(a0)
  beqz    x12, __rt_no_first
1c000124:	c601                	beqz	a2,1c00012c <__rt_no_first>
  lw      x12, RT_SCHED_T_LAST(x10)
1c000126:	4150                	lw	a2,4(a0)
  sw      x11, RT_EVENT_T_NEXT(x12)
1c000128:	c20c                	sw	a1,0(a2)
  j       __rt_common
1c00012a:	a011                	j	1c00012e <__rt_common>

1c00012c <__rt_no_first>:

__rt_no_first:
  sw      x11, RT_SCHED_T_FIRST(x10)
1c00012c:	c10c                	sw	a1,0(a0)

1c00012e <__rt_common>:

__rt_common:
  sw      x11, RT_SCHED_T_LAST(x10)
1c00012e:	c14c                	sw	a1,4(a0)

1c000130 <enqueue_end>:

enqueue_end:
  jr          x9
1c000130:	8482                	jr	s1

1c000132 <__rt_handle_special_event>:

__rt_handle_special_event:
  li      x10, ~0x3
1c000132:	5571                	li	a0,-4
  and     x11, x11, x10
1c000134:	8de9                	and	a1,a1,a0
  lw      x12, PI_CALLBACK_T_ENTRY(x11)
1c000136:	41d0                	lw	a2,4(a1)
  lw      x10, PI_CALLBACK_T_ARG(x11)
1c000138:	4588                	lw	a0,8(a1)
  j       __rt_call_external_c_function
1c00013a:	a0d9                	j	1c000200 <__rt_call_external_c_function>

1c00013c <__rt_bridge_enqueue_event>:
    // to enqueue an event to the FC scheduler.

    .global __rt_bridge_enqueue_event
__rt_bridge_enqueue_event:

    sw  x8, -4(sp)
1c00013c:	fe812e23          	sw	s0,-4(sp)
    sw  x9, -8(sp)
1c000140:	fe912c23          	sw	s1,-8(sp)
    sw  a0, -12(sp)
1c000144:	fea12a23          	sw	a0,-12(sp)
    sw  a1, -16(sp)
1c000148:	feb12823          	sw	a1,-16(sp)
    sw  a2, -20(sp)
1c00014c:	fec12623          	sw	a2,-20(sp)

    // Everything is done from C code
    la      x12, __rt_bridge_handle_notif
1c000150:	00002617          	auipc	a2,0x2
1c000154:	31c60613          	addi	a2,a2,796 # 1c00246c <__rt_bridge_handle_notif>
    jal     x9, __rt_call_external_c_function
1c000158:	0a8004ef          	jal	s1,1c000200 <__rt_call_external_c_function>

    lw  x8, -4(sp)
1c00015c:	ffc12403          	lw	s0,-4(sp)
    lw  x9, -8(sp)
1c000160:	ff812483          	lw	s1,-8(sp)
    lw  a0, -12(sp)
1c000164:	ff412503          	lw	a0,-12(sp)
    lw  a1, -16(sp)
1c000168:	ff012583          	lw	a1,-16(sp)
    lw  a2, -20(sp)
1c00016c:	fec12603          	lw	a2,-20(sp)

    mret
1c000170:	30200073          	mret

1c000174 <__rt_remote_enqueue_event>:
    // The FC must get it and push it to the scheduler

    .global __rt_remote_enqueue_event
__rt_remote_enqueue_event:

    sw  x8, -4(sp)
1c000174:	fe812e23          	sw	s0,-4(sp)
    sw  x9, -8(sp)
1c000178:	fe912c23          	sw	s1,-8(sp)
    sw  a0, -12(sp)
1c00017c:	fea12a23          	sw	a0,-12(sp)
    sw  a1, -16(sp)
1c000180:	feb12823          	sw	a1,-16(sp)
    sw  a2, -20(sp)
1c000184:	fec12623          	sw	a2,-20(sp)

#ifndef ARCHI_NB_CLUSTER
    li   x8, 1
1c000188:	4405                	li	s0,1
#else
    li   x8, ARCHI_NB_CLUSTER
#endif
    la   x9, __rt_fc_cluster_data
1c00018a:	0000e497          	auipc	s1,0xe
1c00018e:	df648493          	addi	s1,s1,-522 # 1c00df80 <__rt_fc_cluster_data>

1c000192 <__rt_remote_enqueue_event_loop_cluster>:

    // Loop over the clusters to see if there is an event to push
__rt_remote_enqueue_event_loop_cluster:
    lw   a1, RT_FC_CLUSTER_DATA_T_EVENTS(x9)
1c000192:	40cc                	lw	a1,4(s1)
    beq  a1, x0, __rt_remote_enqueue_event_loop_cluster_continue
1c000194:	02058d63          	beqz	a1,1c0001ce <__rt_remote_enqueue_event_loop_cluster_continue>

    // Everytime a task is finished, first check if we can update the queue head
    // as it is not updated by cluster side to avoid race conditions.
    // At least this task won t be there anymore after we update, and maybe even
    // more tasks, which is not an issue, as we compare against the head.
    lw   a1, RT_FC_CLUSTER_DATA_T_CLUSTER_POOL(x9)
1c000198:	48cc                	lw	a1,20(s1)
    lw   a0, RT_CLUSTER_CALL_POOL_T_FIRST_CALL_FC(a1)
1c00019a:	41c8                	lw	a0,4(a1)

    beq  a0, x0, __rt_cluster_pool_update_end
1c00019c:	00050e63          	beqz	a0,1c0001b8 <__rt_cluster_pool_update_end>

1c0001a0 <__rt_cluster_pool_update_loop>:

__rt_cluster_pool_update_loop:
    lw    a2, RT_CLUSTER_TASK_PENDING(a0)
1c0001a0:	5150                	lw	a2,36(a0)
    bnez  a2, __rt_cluster_pool_update_loop_end
1c0001a2:	e219                	bnez	a2,1c0001a8 <__rt_cluster_pool_update_loop_end>

    lw   a0, RT_CLUSTER_TASK_NEXT(a0)
1c0001a4:	5108                	lw	a0,32(a0)
    bnez a0, __rt_cluster_pool_update_loop
1c0001a6:	fd6d                	bnez	a0,1c0001a0 <__rt_cluster_pool_update_loop>

1c0001a8 <__rt_cluster_pool_update_loop_end>:


__rt_cluster_pool_update_loop_end:
    
    beqz a0, __rt_cluster_pool_update_no_current
1c0001a8:	c501                	beqz	a0,1c0001b0 <__rt_cluster_pool_update_no_current>

    lw   a0, RT_CLUSTER_TASK_NEXT(a0)
1c0001aa:	5108                	lw	a0,32(a0)
    sw   a0, RT_CLUSTER_CALL_POOL_T_FIRST_CALL_FC(a1)
1c0001ac:	c1c8                	sw	a0,4(a1)

    j    __rt_cluster_pool_update_end
1c0001ae:	a029                	j	1c0001b8 <__rt_cluster_pool_update_end>

1c0001b0 <__rt_cluster_pool_update_no_current>:

__rt_cluster_pool_update_no_current:

    sw   x0, RT_CLUSTER_CALL_POOL_T_FIRST_CALL_FC(a1)
1c0001b0:	0005a223          	sw	zero,4(a1)
    sw   x0, RT_CLUSTER_CALL_POOL_T_FIRST_LAST_FC(a1)
1c0001b4:	0005a423          	sw	zero,8(a1)

1c0001b8 <__rt_cluster_pool_update_end>:




__rt_cluster_pool_update_end:
    lw   a1, RT_FC_CLUSTER_DATA_T_EVENTS(x9)
1c0001b8:	40cc                	lw	a1,4(s1)

    lw   a2, RT_FC_CLUSTER_DATA_T_TRIG_ADDR(x9)
1c0001ba:	4890                	lw	a2,16(s1)
    sw   x0, RT_FC_CLUSTER_DATA_T_EVENTS(x9)
1c0001bc:	0004a223          	sw	zero,4(s1)

    sw   x0, 0(a2)
1c0001c0:	00062023          	sw	zero,0(a2)

    la   x9, __rt_remote_enqueue_event_loop_cluster_continue
1c0001c4:	00000497          	auipc	s1,0x0
1c0001c8:	00a48493          	addi	s1,s1,10 # 1c0001ce <__rt_remote_enqueue_event_loop_cluster_continue>
    j    __rt_event_enqueue
1c0001cc:	b789                	j	1c00010e <__rt_event_enqueue>

1c0001ce <__rt_remote_enqueue_event_loop_cluster_continue>:

__rt_remote_enqueue_event_loop_cluster_continue:
    addi x8, x8, -1
1c0001ce:	147d                	addi	s0,s0,-1
    bgt  x8, x0, __rt_remote_enqueue_event_loop_next_cluster
1c0001d0:	00804e63          	bgtz	s0,1c0001ec <__rt_remote_enqueue_event_loop_next_cluster>



    lw  x8, -4(sp)
1c0001d4:	ffc12403          	lw	s0,-4(sp)
    lw  x9, -8(sp)
1c0001d8:	ff812483          	lw	s1,-8(sp)
    lw  a0, -12(sp)
1c0001dc:	ff412503          	lw	a0,-12(sp)
    lw  a1, -16(sp)
1c0001e0:	ff012583          	lw	a1,-16(sp)
    lw  a2, -20(sp)
1c0001e4:	fec12603          	lw	a2,-20(sp)

    mret
1c0001e8:	30200073          	mret

1c0001ec <__rt_remote_enqueue_event_loop_next_cluster>:

__rt_remote_enqueue_event_loop_next_cluster:
    la   x9, __rt_fc_cluster_data
1c0001ec:	0000e497          	auipc	s1,0xe
1c0001f0:	d9448493          	addi	s1,s1,-620 # 1c00df80 <__rt_fc_cluster_data>
    li   a1, RT_FC_CLUSTER_DATA_T_SIZEOF
1c0001f4:	02800593          	li	a1,40
    mul  a1, x8, a1
1c0001f8:	02b405b3          	mul	a1,s0,a1
    add  x9, x9, a1
1c0001fc:	94ae                	add	s1,s1,a1
    j __rt_remote_enqueue_event_loop_cluster
1c0001fe:	bf51                	j	1c000192 <__rt_remote_enqueue_event_loop_cluster>

1c000200 <__rt_call_external_c_function>:
#endif

  .global __rt_call_external_c_function
__rt_call_external_c_function:

    add  sp, sp, -128
1c000200:	7119                	addi	sp,sp,-128

    sw   ra, 0x00(sp)
1c000202:	c006                	sw	ra,0(sp)
    sw   gp, 0x04(sp)
1c000204:	c20e                	sw	gp,4(sp)
    sw   tp, 0x08(sp)
1c000206:	c412                	sw	tp,8(sp)
    sw   t0, 0x0C(sp)
1c000208:	c616                	sw	t0,12(sp)
    sw   t1, 0x10(sp)
1c00020a:	c81a                	sw	t1,16(sp)
    sw   t2, 0x14(sp)
1c00020c:	ca1e                	sw	t2,20(sp)
    sw   a3, 0x24(sp)
1c00020e:	d236                	sw	a3,36(sp)
    sw   a4, 0x28(sp)
1c000210:	d43a                	sw	a4,40(sp)
    sw   a5, 0x2C(sp)
1c000212:	d63e                	sw	a5,44(sp)
    sw   a6, 0x30(sp)
1c000214:	d842                	sw	a6,48(sp)
    sw   a7, 0x34(sp)
1c000216:	da46                	sw	a7,52(sp)
    sw   t3, 0x38(sp)
1c000218:	dc72                	sw	t3,56(sp)
    sw   t4, 0x3C(sp)
1c00021a:	de76                	sw	t4,60(sp)
    sw   t5, 0x40(sp)
1c00021c:	c0fa                	sw	t5,64(sp)
    sw   t6, 0x4C(sp)
1c00021e:	c6fe                	sw	t6,76(sp)

    jalr ra, a2
1c000220:	000600e7          	jalr	a2

    lw   ra, 0x00(sp)
1c000224:	4082                	lw	ra,0(sp)
    lw   gp, 0x04(sp)
1c000226:	4192                	lw	gp,4(sp)
    lw   tp, 0x08(sp)
1c000228:	4222                	lw	tp,8(sp)
    lw   t0, 0x0C(sp)
1c00022a:	42b2                	lw	t0,12(sp)
    lw   t1, 0x10(sp)
1c00022c:	4342                	lw	t1,16(sp)
    lw   t2, 0x14(sp)
1c00022e:	43d2                	lw	t2,20(sp)
    lw   a3, 0x24(sp)
1c000230:	5692                	lw	a3,36(sp)
    lw   a4, 0x28(sp)
1c000232:	5722                	lw	a4,40(sp)
    lw   a5, 0x2C(sp)
1c000234:	57b2                	lw	a5,44(sp)
    lw   a6, 0x30(sp)
1c000236:	5842                	lw	a6,48(sp)
    lw   a7, 0x34(sp)
1c000238:	58d2                	lw	a7,52(sp)
    lw   t3, 0x38(sp)
1c00023a:	5e62                	lw	t3,56(sp)
    lw   t4, 0x3C(sp)
1c00023c:	5ef2                	lw	t4,60(sp)
    lw   t5, 0x40(sp)
1c00023e:	4f06                	lw	t5,64(sp)
    lw   t6, 0x4C(sp)
1c000240:	4fb6                	lw	t6,76(sp)

    add  sp, sp, 128
1c000242:	6109                	addi	sp,sp,128

    jr   x9
1c000244:	8482                	jr	s1

1c000246 <__rt_illegal_instr>:

  .section .text
  
    .global __rt_illegal_instr
__rt_illegal_instr:
    sw   ra, -4(sp)
1c000246:	fe112e23          	sw	ra,-4(sp)
    sw   a0, -8(sp)
1c00024a:	fea12c23          	sw	a0,-8(sp)
    la   a0, __rt_handle_illegal_instr
1c00024e:	00002517          	auipc	a0,0x2
1c000252:	f1a50513          	addi	a0,a0,-230 # 1c002168 <__rt_handle_illegal_instr>
    jal  ra, __rt_call_c_function
1c000256:	010000ef          	jal	ra,1c000266 <__rt_call_c_function>
    lw   ra, -4(sp)
1c00025a:	ffc12083          	lw	ra,-4(sp)
    lw   a0, -8(sp)
1c00025e:	ff812503          	lw	a0,-8(sp)
#if PULP_CORE == CORE_RISCV_V4
    mret
1c000262:	30200073          	mret

1c000266 <__rt_call_c_function>:
#endif


__rt_call_c_function:

    add  sp, sp, -128
1c000266:	7119                	addi	sp,sp,-128

    sw   ra, 0x00(sp)
1c000268:	c006                	sw	ra,0(sp)
    sw   gp, 0x04(sp)
1c00026a:	c20e                	sw	gp,4(sp)
    sw   tp, 0x08(sp)
1c00026c:	c412                	sw	tp,8(sp)
    sw   t0, 0x0C(sp)
1c00026e:	c616                	sw	t0,12(sp)
    sw   t1, 0x10(sp)
1c000270:	c81a                	sw	t1,16(sp)
    sw   t2, 0x14(sp)
1c000272:	ca1e                	sw	t2,20(sp)
    sw   a1, 0x1C(sp)
1c000274:	ce2e                	sw	a1,28(sp)
    sw   a2, 0x20(sp)
1c000276:	d032                	sw	a2,32(sp)
    sw   a3, 0x24(sp)
1c000278:	d236                	sw	a3,36(sp)
    sw   a4, 0x28(sp)
1c00027a:	d43a                	sw	a4,40(sp)
    sw   a5, 0x2C(sp)
1c00027c:	d63e                	sw	a5,44(sp)
    sw   a6, 0x30(sp)
1c00027e:	d842                	sw	a6,48(sp)
    sw   a7, 0x34(sp)
1c000280:	da46                	sw	a7,52(sp)
    sw   t3, 0x38(sp)
1c000282:	dc72                	sw	t3,56(sp)
    sw   t4, 0x3C(sp)
1c000284:	de76                	sw	t4,60(sp)
    sw   t5, 0x40(sp)
1c000286:	c0fa                	sw	t5,64(sp)
    sw   t6, 0x4C(sp)
1c000288:	c6fe                	sw	t6,76(sp)

    jalr ra, a0
1c00028a:	000500e7          	jalr	a0

    lw   ra, 0x00(sp)
1c00028e:	4082                	lw	ra,0(sp)
    lw   gp, 0x04(sp)
1c000290:	4192                	lw	gp,4(sp)
    lw   tp, 0x08(sp)
1c000292:	4222                	lw	tp,8(sp)
    lw   t0, 0x0C(sp)
1c000294:	42b2                	lw	t0,12(sp)
    lw   t1, 0x10(sp)
1c000296:	4342                	lw	t1,16(sp)
    lw   t2, 0x14(sp)
1c000298:	43d2                	lw	t2,20(sp)
    lw   a1, 0x1C(sp)
1c00029a:	45f2                	lw	a1,28(sp)
    lw   a2, 0x20(sp)
1c00029c:	5602                	lw	a2,32(sp)
    lw   a3, 0x24(sp)
1c00029e:	5692                	lw	a3,36(sp)
    lw   a4, 0x28(sp)
1c0002a0:	5722                	lw	a4,40(sp)
    lw   a5, 0x2C(sp)
1c0002a2:	57b2                	lw	a5,44(sp)
    lw   a6, 0x30(sp)
1c0002a4:	5842                	lw	a6,48(sp)
    lw   a7, 0x34(sp)
1c0002a6:	58d2                	lw	a7,52(sp)
    lw   t3, 0x38(sp)
1c0002a8:	5e62                	lw	t3,56(sp)
    lw   t4, 0x3C(sp)
1c0002aa:	5ef2                	lw	t4,60(sp)
    lw   t5, 0x40(sp)
1c0002ac:	4f06                	lw	t5,64(sp)
    lw   t6, 0x4C(sp)
1c0002ae:	4fb6                	lw	t6,76(sp)

    add  sp, sp, 128
1c0002b0:	6109                	addi	sp,sp,128

    jr   ra
1c0002b2:	8082                	ret

1c0002b4 <udma_event_handler>:

  .global udma_event_handler
udma_event_handler:

  // Dequeue the transfer which have just finished and mark it as done
  lw   x8, RT_PERIPH_CHANNEL_T_FIRST(x9)
1c0002b4:	4080                	lw	s0,0(s1)
  lw   x11, RT_PERIPH_CHANNEL_T_FIRST_TO_ENQUEUE(x9)   // This is used later on, just put here to fill the slot
1c0002b6:	448c                	lw	a1,8(s1)
  beq  x8, x0, __rt_udma_no_copy                       // Special case where there is no copy, just register the event in the bitfield
1c0002b8:	08040f63          	beqz	s0,1c000356 <__rt_udma_no_copy>
  lw   x12, RT_PERIPH_COPY_T_REPEAT(x8)
1c0002bc:	4c50                	lw	a2,28(s0)
  lw   x10, RT_PERIPH_COPY_T_NEXT(x8)
1c0002be:	4848                	lw	a0,20(s0)
  bne  x12, x0, repeat_transfer
1c0002c0:	04061f63          	bnez	a2,1c00031e <dmaCmd>
  sw   x10, RT_PERIPH_CHANNEL_T_FIRST(x9)
1c0002c4:	c088                	sw	a0,0(s1)
  
  // Handle any special end-of-transfer control
  lw       x10, RT_PERIPH_COPY_T_CTRL(x8)
1c0002c6:	4448                	lw	a0,12(s0)
  bnez     x10, handle_special_end
1c0002c8:	e15d                	bnez	a0,1c00036e <handle_special_end>

1c0002ca <resume_after_special_end>:
resume_after_special_end:


  // Now check if there are some transfers enqueued in the SW FIFO to be enqueued to the UDMA
  beq x11, x0, checkTask
1c0002ca:	02058f63          	beqz	a1,1c000308 <checkTask>

  // x9 contains the pointer to the channel and x11 the first copy

  // Update the FIFO pointers and just copy from node to UDMA
  lw  x12, RT_PERIPH_COPY_T_ENQUEUE_CALLBACK(x11)
1c0002ce:	4990                	lw	a2,16(a1)
  lw  x10, RT_PERIPH_COPY_T_NEXT(x11)
1c0002d0:	49c8                	lw	a0,20(a1)
  beqz x12, __rt_udma_call_enqueue_callback_resume
1c0002d2:	c611                	beqz	a2,1c0002de <__rt_udma_call_enqueue_callback_resume>

  la  x9, __rt_udma_call_enqueue_callback_resume
1c0002d4:	00000497          	auipc	s1,0x0
1c0002d8:	00a48493          	addi	s1,s1,10 # 1c0002de <__rt_udma_call_enqueue_callback_resume>
  jr  x12
1c0002dc:	8602                	jr	a2

1c0002de <__rt_udma_call_enqueue_callback_resume>:

__rt_udma_call_enqueue_callback_resume:
  lw  x12, RT_PERIPH_CHANNEL_T_BASE(x9)
1c0002de:	44d0                	lw	a2,12(s1)
  sw  x10, RT_PERIPH_CHANNEL_T_FIRST_TO_ENQUEUE(x9)
1c0002e0:	c488                	sw	a0,8(s1)
  lw  x10, RT_PERIPH_COPY_T_ADDR(x11)
1c0002e2:	4188                	lw	a0,0(a1)
  lw  x9, RT_PERIPH_COPY_T_SIZE(x11)
1c0002e4:	41c4                	lw	s1,4(a1)
  sw  x10, UDMA_CHANNEL_SADDR_OFFSET(x12)
1c0002e6:	c208                	sw	a0,0(a2)
  sw  x9, UDMA_CHANNEL_SIZE_OFFSET(x12)
1c0002e8:	c244                	sw	s1,4(a2)

  lw  x9, RT_PERIPH_COPY_T_CTRL(x11)
1c0002ea:	45c4                	lw	s1,12(a1)
  andi x9, x9, (1<<RT_PERIPH_COPY_CTRL_TYPE_WIDTH)-1
1c0002ec:	88bd                	andi	s1,s1,15
  li  x10, RT_PERIPH_COPY_SPECIAL_ENQUEUE_THRESHOLD
1c0002ee:	4515                	li	a0,5
  blt x9, x10, transfer_resume
1c0002f0:	00a4ca63          	blt	s1,a0,1c000304 <transfer_resume>
  li          x10, RT_PERIPH_COPY_HYPER
  beq         x9, x10, hyper
  li          x10, RT_PERIPH_COPY_FC_TCDM
  beq         x9, x10, fc_tcdm
#else
  p.beqimm      x9, RT_PERIPH_COPY_HYPER, hyper
1c0002f4:	0064a463          	p.beqimm	s1,6,1c0002fc <dual>
  p.beqimm      x9, RT_PERIPH_COPY_FC_TCDM, fc_tcdm
1c0002f8:	0074a263          	p.beqimm	s1,7,1c0002fc <dual>

1c0002fc <dual>:
#ifdef RV_ISA_RV32
  li    x10, ~(1<<UDMA_CHANNEL_SIZE_LOG2)
  and   x9, x12, x10
  lw    x10, RT_PERIPH_COPY_T_HYPER_ADDR(x11)
#else
  lw    x10, RT_PERIPH_COPY_T_HYPER_ADDR(x11)
1c0002fc:	51c8                	lw	a0,36(a1)
  p.bclr  x9, x12, 0, UDMA_CHANNEL_SIZE_LOG2
1c0002fe:	c04634b3          	p.bclr	s1,a2,0,4
#endif
  sw    x10, HYPER_EXT_ADDR_CHANNEL_CUSTOM_OFFSET(x9)
1c000302:	d088                	sw	a0,32(s1)

1c000304 <transfer_resume>:
#endif

transfer_resume:
  lw  x10, RT_PERIPH_COPY_T_CFG(x11)
1c000304:	4588                	lw	a0,8(a1)
  sw  x10, UDMA_CHANNEL_CFG_OFFSET(x12)
1c000306:	c608                	sw	a0,8(a2)

1c000308 <checkTask>:

checkTask:

  // Check if we have a DMA transfer from L2 to L1   
  //lw          x10, RT_PERIPH_COPY_T_DMACMD(x8)           // Not null if we must transfer
  lw          x11, RT_PERIPH_COPY_T_EVENT(x8)             // Read this in advance to fill the slot, it is used later on in case there is no DMA command
1c000308:	4c0c                	lw	a1,24(s0)

  //bne         x10, zero, dmaCmd
  la          x9, udma_event_handler_end
1c00030a:	00000497          	auipc	s1,0x0
1c00030e:	19a48493          	addi	s1,s1,410 # 1c0004a4 <udma_event_handler_end>
  bne         x11, zero, __rt_event_enqueue
1c000312:	00058463          	beqz	a1,1c00031a <checkTask+0x12>
1c000316:	df9ff06f          	j	1c00010e <__rt_event_enqueue>

  // Loop again in case there are still events in the FIFO
  j udma_event_handler_end
1c00031a:	18a0006f          	j	1c0004a4 <udma_event_handler_end>

1c00031e <dmaCmd>:
//   x12 : number of bytes to repeat
repeat_transfer:

#ifdef ARCHI_UDMA_HAS_HYPER

  lw      x11, RT_PERIPH_CHANNEL_T_BASE(x9)
1c00031e:	44cc                	lw	a1,12(s1)
#ifdef RV_ISA_RV32
  li      x10, ~(1<<UDMA_CHANNEL_SIZE_LOG2)
  and     x9, x11, x10
  lw      x10, RT_PERIPH_COPY_T_HYPER_ADDR(x8)
#else
  lw      x10, RT_PERIPH_COPY_T_HYPER_ADDR(x8)
1c000320:	5048                	lw	a0,36(s0)
  p.bclr  x9, x11, 0, UDMA_CHANNEL_SIZE_LOG2
1c000322:	c045b4b3          	p.bclr	s1,a1,0,4
#endif
  add     x10, x10, x12
1c000326:	9532                	add	a0,a0,a2
  sw      x10, HYPER_EXT_ADDR_CHANNEL_CUSTOM_OFFSET(x9)
1c000328:	d088                	sw	a0,32(s1)
  sw      x10, RT_PERIPH_COPY_T_HYPER_ADDR(x8)
1c00032a:	d048                	sw	a0,36(s0)

  lw      x10, RT_PERIPH_COPY_T_ADDR(x8)
1c00032c:	4008                	lw	a0,0(s0)
  lw      x9, RT_PERIPH_COPY_T_REPEAT_SIZE(x8)
1c00032e:	5004                	lw	s1,32(s0)
  add     x10, x10, x12
1c000330:	9532                	add	a0,a0,a2
  sub     x9, x9, x12
1c000332:	8c91                	sub	s1,s1,a2
  blt     x12, x9, not_last
1c000334:	00964963          	blt	a2,s1,1c000346 <not_last>
  mv      x12, x9
1c000338:	8626                	mv	a2,s1
  sw      x0, RT_PERIPH_COPY_T_REPEAT(x8)
1c00033a:	00042e23          	sw	zero,28(s0)
  beq     x12, x0, udma_event_handler_end
1c00033e:	00061463          	bnez	a2,1c000346 <not_last>
1c000342:	1620006f          	j	1c0004a4 <udma_event_handler_end>

1c000346 <not_last>:

not_last:
  sw      x10, RT_PERIPH_COPY_T_ADDR(x8)
1c000346:	c008                	sw	a0,0(s0)
  sw      x9, RT_PERIPH_COPY_T_REPEAT_SIZE(x8)
1c000348:	d004                	sw	s1,32(s0)
  sw      x10, UDMA_CHANNEL_SADDR_OFFSET(x11)
1c00034a:	c188                	sw	a0,0(a1)
  sw      x12, UDMA_CHANNEL_SIZE_OFFSET(x11)
1c00034c:	c1d0                	sw	a2,4(a1)

  li      x10, UDMA_CHANNEL_CFG_EN
1c00034e:	4541                	li	a0,16
  sw      x10, UDMA_CHANNEL_CFG_OFFSET(x11)
1c000350:	c588                	sw	a0,8(a1)

#endif

  j           udma_event_handler_end
1c000352:	1520006f          	j	1c0004a4 <udma_event_handler_end>

1c000356 <__rt_udma_no_copy>:




__rt_udma_no_copy:
  la      x9, __rt_socevents_status
1c000356:	e4000497          	auipc	s1,0xe4000
1c00035a:	f5a48493          	addi	s1,s1,-166 # 2b0 <__rt_socevents_status>
  lw      x8, 0(x9)
1c00035e:	4080                	lw	s0,0(s1)
  li      x11, 1
1c000360:	4585                	li	a1,1
  sll     x10, x11, x10
1c000362:	00a59533          	sll	a0,a1,a0
  or      x8, x8, x10
1c000366:	8c49                	or	s0,s0,a0
  sw      x8, 0(x9)
1c000368:	c080                	sw	s0,0(s1)
  j udma_event_handler_end
1c00036a:	13a0006f          	j	1c0004a4 <udma_event_handler_end>

1c00036e <handle_special_end>:
  li          x12, RT_PERIPH_COPY_I2C_STEP1
  beq         x10, x12, i2c_step1
  li          x12, RT_PERIPH_COPY_I2C_STEP2
  beq         x10, x12, i2c_step2
#else
  p.beqimm    x10, RT_PERIPH_COPY_I2C_STEP1, i2c_step1  
1c00036e:	04352463          	p.beqimm	a0,3,1c0003b6 <i2c_step1>
  p.beqimm    x10, RT_PERIPH_COPY_I2C_STEP2, i2c_step2
1c000372:	06452063          	p.beqimm	a0,4,1c0003d2 <i2c_step2>
#endif

  j           resume_after_special_end
1c000376:	bf91                	j	1c0002ca <resume_after_special_end>

1c000378 <spim_step3>:


spim_step3:
  // The current copy was enqueued to configure spi, cs and send command
  // now we need to reenqueue the same copy with the user buffer.
  lw          x10, RT_PERIPH_COPY_T_RAW_VAL1(x8)
1c000378:	5408                	lw	a0,40(s0)
  sw          x10, RT_PERIPH_COPY_T_CTRL(x8)
1c00037a:	c448                	sw	a0,12(s0)

  // Reenqueue the same copy to the list of pending copies as it has been removed
  lw          x10, RT_PERIPH_CHANNEL_T_FIRST(x9)
1c00037c:	4088                	lw	a0,0(s1)
  sw          x10, RT_PERIPH_COPY_T_NEXT(x8)
1c00037e:	c848                	sw	a0,20(s0)
  sw          x8, RT_PERIPH_CHANNEL_T_FIRST(x9)
1c000380:	c080                	sw	s0,0(s1)

  // And rearm the transfer in the udma
  lw          x12, RT_PERIPH_CHANNEL_T_BASE(x9)
1c000382:	44d0                	lw	a2,12(s1)
  lw          x10, RT_PERIPH_COPY_T_RAW_VAL2(x8)
1c000384:	5448                	lw	a0,44(s0)
  sw          x10, UDMA_CHANNEL_SADDR_OFFSET(x12)
1c000386:	c208                	sw	a0,0(a2)
  lw          x10, RT_PERIPH_COPY_T_RAW_VAL0(x8)
1c000388:	5048                	lw	a0,36(s0)
  sw          x10, UDMA_CHANNEL_SIZE_OFFSET(x12)
1c00038a:	c248                	sw	a0,4(a2)
  lw          x10, RT_PERIPH_COPY_T_CFG(x8)
1c00038c:	4408                	lw	a0,8(s0)
  sw          x10, UDMA_CHANNEL_CFG_OFFSET(x12)
1c00038e:	c608                	sw	a0,8(a2)

  j           udma_event_handler_end
1c000390:	1140006f          	j	1c0004a4 <udma_event_handler_end>

1c000394 <spim_step2>:

spim_step2:
  // Now that the user data has been pushed, we must push an EOT command
  sw          x0, RT_PERIPH_COPY_T_CTRL(x8)
1c000394:	00042623          	sw	zero,12(s0)
  
  // Reenqueue the same copy to the list of pending copies as it has been removed
  lw          x10, RT_PERIPH_CHANNEL_T_FIRST(x9)
1c000398:	4088                	lw	a0,0(s1)
  sw          x10, RT_PERIPH_COPY_T_NEXT(x8)
1c00039a:	c848                	sw	a0,20(s0)
  sw          x8, RT_PERIPH_CHANNEL_T_FIRST(x9)
1c00039c:	c080                	sw	s0,0(s1)

  // And rearm the transfer in the udma
  #if PULP_CHIP_FAMILY == CHIP_GAP

  lw          x8, RT_PERIPH_COPY_T_PERIPH_DATA(x8)
1c00039e:	4060                	lw	s0,68(s0)
  li          x12, SPI_CMD_EOT(0)
1c0003a0:	90000637          	lui	a2,0x90000
  sw          x12, 0(x8)
1c0003a4:	c010                	sw	a2,0(s0)
  lw          x12, RT_PERIPH_CHANNEL_T_BASE(x9)
1c0003a6:	44d0                	lw	a2,12(s1)
  sw          x8, UDMA_CHANNEL_SADDR_OFFSET(x12)
1c0003a8:	c200                	sw	s0,0(a2)
  addi        x10, x8, RT_PERIPH_COPY_T_PERIPH_DATA
  sw          x10, UDMA_CHANNEL_SADDR_OFFSET(x12)

  #endif

  li          x10, 4
1c0003aa:	4511                	li	a0,4
  sw          x10, UDMA_CHANNEL_SIZE_OFFSET(x12)
1c0003ac:	c248                	sw	a0,4(a2)
  li          x10, UDMA_CHANNEL_CFG_EN
1c0003ae:	4541                	li	a0,16
  sw          x10, UDMA_CHANNEL_CFG_OFFSET(x12)
1c0003b0:	c608                	sw	a0,8(a2)

  j           udma_event_handler_end
1c0003b2:	0f20006f          	j	1c0004a4 <udma_event_handler_end>

1c0003b6 <i2c_step1>:
 */

i2c_step1:
  // The current copy was enqueued to configure i2c, cs and send command
  // now we need to reenqueue the same copy with the user buffer.
  lw          x10, RT_PERIPH_COPY_T_RAW_VAL1(x8)
1c0003b6:	5408                	lw	a0,40(s0)
  sw          x10, RT_PERIPH_COPY_T_CTRL(x8)
1c0003b8:	c448                	sw	a0,12(s0)

  // Reenqueue the same copy to the list of pending copies as it has been removed
  lw          x10, RT_PERIPH_CHANNEL_T_FIRST(x9)
1c0003ba:	4088                	lw	a0,0(s1)
  sw          x10, RT_PERIPH_COPY_T_NEXT(x8)
1c0003bc:	c848                	sw	a0,20(s0)
  sw          x8, RT_PERIPH_CHANNEL_T_FIRST(x9)
1c0003be:	c080                	sw	s0,0(s1)

  // And rearm the transfer in the udma
  lw          x12, RT_PERIPH_CHANNEL_T_BASE(x9)
1c0003c0:	44d0                	lw	a2,12(s1)
  lw          x10, RT_PERIPH_COPY_T_ADDR(x8)
1c0003c2:	4008                	lw	a0,0(s0)
  sw          x10, UDMA_CHANNEL_SADDR_OFFSET(x12)
1c0003c4:	c208                	sw	a0,0(a2)
  lw          x10, RT_PERIPH_COPY_T_RAW_VAL0(x8)
1c0003c6:	5048                	lw	a0,36(s0)
  sw          x10, UDMA_CHANNEL_SIZE_OFFSET(x12)
1c0003c8:	c248                	sw	a0,4(a2)
  lw          x10, RT_PERIPH_COPY_T_CFG(x8)
1c0003ca:	4408                	lw	a0,8(s0)
  sw          x10, UDMA_CHANNEL_CFG_OFFSET(x12)
1c0003cc:	c608                	sw	a0,8(a2)

  j           udma_event_handler_end
1c0003ce:	0d60006f          	j	1c0004a4 <udma_event_handler_end>

1c0003d2 <i2c_step2>:

i2c_step2:
  // Now that the user data has been pushed, we must push a STOP command
  sw          x0, RT_PERIPH_COPY_T_CTRL(x8)
1c0003d2:	00042623          	sw	zero,12(s0)
  
  // Reenqueue the same copy to the list of pending copies as it has been removed
  lw          x10, RT_PERIPH_CHANNEL_T_FIRST(x9)
1c0003d6:	4088                	lw	a0,0(s1)
  sw          x10, RT_PERIPH_COPY_T_NEXT(x8)
1c0003d8:	c848                	sw	a0,20(s0)
  sw          x8, RT_PERIPH_CHANNEL_T_FIRST(x9)
1c0003da:	c080                	sw	s0,0(s1)

  // And rearm the transfer in the udma
  #if PULP_CHIP_FAMILY == CHIP_GAP

  lw          x8, RT_PERIPH_COPY_T_PERIPH_DATA(x8)
1c0003dc:	4060                	lw	s0,68(s0)
  li          x12, I2C_CMD_STOP
1c0003de:	02000613          	li	a2,32
  sw          x12, 0(x8)
1c0003e2:	c010                	sw	a2,0(s0)
  lw          x12, RT_PERIPH_CHANNEL_T_BASE(x9)
1c0003e4:	44d0                	lw	a2,12(s1)
  sw          x8, UDMA_CHANNEL_SADDR_OFFSET(x12)
1c0003e6:	c200                	sw	s0,0(a2)
  addi        x10, x8, RT_PERIPH_COPY_T_PERIPH_DATA
  sw          x10, UDMA_CHANNEL_SADDR_OFFSET(x12)

  #endif

  li          x10, 1
1c0003e8:	4505                	li	a0,1
  sw          x10, UDMA_CHANNEL_SIZE_OFFSET(x12)
1c0003ea:	c248                	sw	a0,4(a2)
  li          x10, UDMA_CHANNEL_CFG_EN
1c0003ec:	4541                	li	a0,16
  sw          x10, UDMA_CHANNEL_CFG_OFFSET(x12)
1c0003ee:	c608                	sw	a0,8(a2)

  j           udma_event_handler_end
1c0003f0:	0b40006f          	j	1c0004a4 <udma_event_handler_end>

1c0003f4 <__rt_fc_socevents_handler>:

  .global __rt_fc_socevents_handler
  .extern pwm_event_handler
__rt_fc_socevents_handler:
// The stack is first adjusted to have stack-based load/store compressed
  add sp, sp, -128
1c0003f4:	7119                	addi	sp,sp,-128
  sw  x8, 0(sp)
1c0003f6:	c022                	sw	s0,0(sp)
  sw  x9, 4(sp)
1c0003f8:	c226                	sw	s1,4(sp)
  sw  x10, 8(sp)
1c0003fa:	c42a                	sw	a0,8(sp)
  sw  x11, 12(sp)
1c0003fc:	c62e                	sw	a1,12(sp)
  sw  x12, 16(sp)
1c0003fe:	c832                	sw	a2,16(sp)


  // Pop one element from the FIFO
  li  x8, ARCHI_EU_ADDR + EU_SOC_EVENTS_AREA_OFFSET + EU_SOC_EVENTS_CURRENT_EVENT
1c000400:	00201437          	lui	s0,0x201
1c000404:	f0040413          	addi	s0,s0,-256 # 200f00 <__L2+0x180f00>
  lw  x8, 0(x8)
1c000408:	4000                	lw	s0,0(s0)

  // Now that we popped the element, we can clear the soc event FIFO event as the FIFO is generating
  // an event as soon as the FIFO is not empty
  li  x9, 1<<PULP_SOC_EVENTS_EVENT
1c00040a:	080004b7          	lui	s1,0x8000
  li  x10, ARCHI_EU_DEMUX_ADDR + EU_CORE_BUFFER_CLEAR
1c00040e:	00204537          	lui	a0,0x204
1c000412:	02850513          	addi	a0,a0,40 # 204028 <__L2+0x184028>
  sw  x9, 0(x10)
1c000416:	c104                	sw	s1,0(a0)
  // Due to a HW bug in the core on Gap, we have to load this value early
#ifdef CONFIG_NO_FC_TINY
  la    x12, __rt_hyper_udma_handle
  lw    x12, 0(x12)
#else
  lw    x12, %tiny(__rt_hyper_udma_handle)(x0)
1c000418:	30802603          	lw	a2,776(zero) # 308 <__rt_hyper_udma_handle>
#endif
#endif

  // Extract ID part
  p.extractu x10, x8, EU_SOC_EVENTS_EVENT_MASK_BITS-1, EU_SOC_EVENTS_EVENT_MASK_OFFSET
1c00041c:	ce041533          	p.extractu	a0,s0,7,0

#ifdef ARCHI_UDMA_HAS_HYPER
  p.bneimm x10, UDMA_EVENT_ID(ARCHI_UDMA_HYPER_ID(0)), __rt_fc_socevents_not_hyper_rx
1c000420:	00653363          	p.bneimm	a0,6,1c000426 <__rt_fc_socevents_not_hyper_rx>
  jr x12
1c000424:	8602                	jr	a2

1c000426 <__rt_fc_socevents_not_hyper_rx>:

__rt_fc_socevents_not_hyper_rx:
  p.bneimm x10, UDMA_EVENT_ID(ARCHI_UDMA_HYPER_ID(0))+1, __rt_fc_socevents_not_hyper_tx
1c000426:	00753363          	p.bneimm	a0,7,1c00042c <__rt_fc_socevents_not_hyper_tx>
  jr x12
1c00042a:	8602                	jr	a2

1c00042c <__rt_fc_socevents_not_hyper_tx>:
#endif

__rt_fc_socevents_not_hyper_tx:

  // UDMA CHANNEL EVENTS
  li x9, ARCHI_SOC_EVENT_UDMA_NB_EVT
1c00042c:	44cd                	li	s1,19
  bge x10, x9, __rt_soc_evt_no_udma_channel
1c00042e:	00955c63          	ble	s1,a0,1c000446 <__rt_soc_evt_no_udma_channel>
  andi   x8, x10, 1
  srli   x10, x10, 1
  or     x10, x10, x8
#endif

  la     x8, periph_channels
1c000432:	e4000417          	auipc	s0,0xe4000
1c000436:	bfe40413          	addi	s0,s0,-1026 # 30 <periph_channels>
  slli   x9, x10, RT_PERIPH_CHANNEL_T_SIZEOF_LOG2
1c00043a:	00551493          	slli	s1,a0,0x5
  add    x9, x9, x8
1c00043e:	94a2                	add	s1,s1,s0

  lw   x11, RT_PERIPH_CHANNEL_T_CALLBACK(x9)
1c000440:	4ccc                	lw	a1,28(s1)
  lw   x8, RT_PERIPH_CHANNEL_T_FIRST(x9)
1c000442:	4080                	lw	s0,0(s1)

  jr   x11
1c000444:	8582                	jr	a1

1c000446 <__rt_soc_evt_no_udma_channel>:


__rt_soc_evt_no_udma_channel:

  li x9, ARCHI_SOC_EVENT_UDMA_FIRST_EXTRA_EVT + ARCHI_SOC_EVENT_UDMA_NB_EXTRA_EVT
1c000446:	44f9                	li	s1,30
  bge x10, x9, __rt_soc_evt_no_udma
1c000448:	00955b63          	ble	s1,a0,1c00045e <__rt_soc_evt_no_udma>

  addi x8, x10, -ARCHI_SOC_EVENT_UDMA_FIRST_EXTRA_EVT
1c00044c:	fec50413          	addi	s0,a0,-20
  slli x11, x8, 2
1c000450:	00241593          	slli	a1,s0,0x2
  la   x12, __rt_udma_extra_callback
  p.lw x12, x12(x11)
  la   x9, __rt_udma_extra_callback_arg
  p.lw x11, x9(x11)
#else
  lw   x12, %tiny(__rt_udma_extra_callback)(x11)
1c000454:	2b85a603          	lw	a2,696(a1)
  lw   x11, %tiny(__rt_udma_extra_callback_arg)(x11)
1c000458:	2e05a583          	lw	a1,736(a1)
#endif

  jr   x12
1c00045c:	8602                	jr	a2

1c00045e <__rt_soc_evt_no_udma>:

  .global __rt_soc_evt_no_udma
__rt_soc_evt_no_udma:
#ifdef RT_CONFIG_GPIO_ENABLED
  // GPIO EVENT
  li      x9, ARCHI_SOC_EVENT_GPIO
1c00045e:	02a00493          	li	s1,42
  beq     x10, x9, __rt_gpio_handler
1c000462:	00951463          	bne	a0,s1,1c00046a <__rt_soc_evt_no_udma+0xc>
1c000466:	0860006f          	j	1c0004ec <__rt_gpio_handler>
#endif

  li      x9, ARCHI_SOC_EVENT_RTC_IRQ
1c00046a:	02c00493          	li	s1,44
  beq     x9, x10, rtc_event_handler
1c00046e:	04a48363          	beq	s1,a0,1c0004b4 <rtc_event_handler>

1c000472 <__rt_soc_evt_pwm>:


// pwm event handler
//x9 : nb of event that will be used by handler
__rt_soc_evt_pwm:
  li x11, ARCHI_SOC_EVENT_ADV_TIMER_NB_EVT-1 // 3
1c000472:	458d                	li	a1,3
  addi x9, x11, ARCHI_SOC_EVENT_ADV_TIMER_FIRST_EVT //3+38=41
1c000474:	02658493          	addi	s1,a1,38
  sub x9, x9, x10 // 41 - 56
1c000478:	8c89                	sub	s1,s1,a0
  bgt x9, x11, __rt_soc_evt_store // if > 3 not for pwm
1c00047a:	0095c663          	blt	a1,s1,1c000486 <__rt_soc_evt_store>
  blt x9, x0,  __rt_soc_evt_store // if > 3 not for pwm
1c00047e:	0004c463          	bltz	s1,1c000486 <__rt_soc_evt_store>
  j pwm_event_handler
1c000482:	0460006f          	j	1c0004c8 <pwm_event_handler>

1c000486 <__rt_soc_evt_store>:


__rt_soc_evt_store:
  // If the event is not handled, store it in the soc event status mask
  la      x9, __rt_socevents_status
1c000486:	e4000497          	auipc	s1,0xe4000
1c00048a:	e2a48493          	addi	s1,s1,-470 # 2b0 <__rt_socevents_status>
  li      x11, 32
1c00048e:	02000593          	li	a1,32
  blt     x10, x11, socevents_set
1c000492:	00b54463          	blt	a0,a1,1c00049a <socevents_set>
  addi    x9, x9, 4
1c000496:	0491                	addi	s1,s1,4
  addi    x10, x10, -32
1c000498:	1501                	addi	a0,a0,-32

1c00049a <socevents_set>:

socevents_set:
  lw      x11, 0(x9)
1c00049a:	408c                	lw	a1,0(s1)
  p.bsetr x12, x11, x10
1c00049c:	80a5c633          	p.bsetr	a2,a1,a0
  sw      x12, 0(x9)
1c0004a0:	c090                	sw	a2,0(s1)
  j       udma_event_handler_end
1c0004a2:	a009                	j	1c0004a4 <udma_event_handler_end>

1c0004a4 <udma_event_handler_end>:

  .global udma_event_handler_end
udma_event_handler_end:
  lw  x8, 0(sp)
1c0004a4:	4402                	lw	s0,0(sp)
  lw  x9, 4(sp)
1c0004a6:	4492                	lw	s1,4(sp)
  lw  x10, 8(sp)
1c0004a8:	4522                	lw	a0,8(sp)
  lw  x11, 12(sp)
1c0004aa:	45b2                	lw	a1,12(sp)
  lw  x12, 16(sp)
1c0004ac:	4642                	lw	a2,16(sp)
  add sp, sp, 128
1c0004ae:	6109                	addi	sp,sp,128
  mret
1c0004b0:	30200073          	mret

1c0004b4 <rtc_event_handler>:


rtc_event_handler:
  lw    x11, __rtc_handler
1c0004b4:	e4000597          	auipc	a1,0xe4000
1c0004b8:	edc5a583          	lw	a1,-292(a1) # 390 <__rtc_handler>
  la    x9, udma_event_handler_end
1c0004bc:	00000497          	auipc	s1,0x0
1c0004c0:	fe848493          	addi	s1,s1,-24 # 1c0004a4 <udma_event_handler_end>
  j   __rt_event_enqueue
1c0004c4:	c4bff06f          	j	1c00010e <__rt_event_enqueue>

1c0004c8 <pwm_event_handler>:
#include "archi/eu/eu_v3.h"

  .global pwm_event_handler
  .extern pwmEventsStatus
pwm_event_handler:
  la   x10, pwmEventsStatus
1c0004c8:	e4000517          	auipc	a0,0xe4000
1c0004cc:	e8c50513          	addi	a0,a0,-372 # 354 <pwmEventsStatus>
  addi  x11, x0, 1
1c0004d0:	00100593          	li	a1,1
  lw   x8, 0(x10)
1c0004d4:	4100                	lw	s0,0(a0)
  p.insertr x8, x11, x9
1c0004d6:	8095a433          	p.insertr	s0,a1,s1
  sw   x8, 0(x10)
1c0004da:	c100                	sw	s0,0(a0)

  // continue with sw event raising
  li   x9, ARCHI_EU_DEMUX_ADDR + EU_SW_EVENTS_DEMUX_OFFSET + EU_CORE_TRIGG_SW_EVENT + (PLP_RT_NOTIF_EVENT << 2)
1c0004dc:	002044b7          	lui	s1,0x204
1c0004e0:	10c48493          	addi	s1,s1,268 # 20410c <__L2+0x18410c>
  li   x10, -1
1c0004e4:	557d                	li	a0,-1
  sw   x10, 0(x9)
1c0004e6:	c088                	sw	a0,0(s1)

  j udma_event_handler_end
1c0004e8:	fbdff06f          	j	1c0004a4 <udma_event_handler_end>

1c0004ec <__rt_gpio_handler>:
  bnez     x8, __rt_gpio_ff1_loop
#endif

#else
  .extern __pi_gpio_handler
  mv        x11, x8
1c0004ec:	85a2                	mv	a1,s0
  la        x12, __pi_gpio_handler
1c0004ee:	00003617          	auipc	a2,0x3
1c0004f2:	7e260613          	addi	a2,a2,2018 # 1c003cd0 <__pi_gpio_handler>
  la        x9, __rt_gpio_handler_end
1c0004f6:	00000497          	auipc	s1,0x0
1c0004fa:	00c48493          	addi	s1,s1,12 # 1c000502 <__rt_gpio_handler_end>
  j         __rt_call_external_c_function
1c0004fe:	d03ff06f          	j	1c000200 <__rt_call_external_c_function>

1c000502 <__rt_gpio_handler_end>:

  mret

#else

  j udma_event_handler_end
1c000502:	fa3ff06f          	j	1c0004a4 <udma_event_handler_end>

1c000506 <__rt_hyper_handle_copy>:
#if PULP_CHIP == CHIP_GAP8_REVC

  // x9: channel, x10: event, x8,x11,x12:temp
  .global __rt_hyper_handle_copy
__rt_hyper_handle_copy:
  sw  x8, -4(sp)
1c000506:	fe812e23          	sw	s0,-4(sp)
  add sp, sp, -128
1c00050a:	7119                	addi	sp,sp,-128

#ifdef CONFIG_NO_FC_TINY
  la    x12, __rt_hyper_pending_repeat
  lw    x12, 0(x12)
#else
  lw    x12, %tiny(__rt_hyper_pending_repeat)(x0)
1c00050c:	31802603          	lw	a2,792(zero) # 318 <__rt_hyper_pending_repeat>
#endif
  beqz      x12, __rt_hyper_handle_copy_end
1c000510:	c229                	beqz	a2,1c000552 <__rt_hyper_handle_copy_end>

1c000512 <__rt_hyper_repeat_copy>:

#ifdef CONFIG_NO_FC_TINY
  la        x11, __rt_hyper_pending_base
  lw        x11, 0(x11)
#else
  lw        x11, %tiny(__rt_hyper_pending_base)(x0)
1c000512:	30c02583          	lw	a1,780(zero) # 30c <__rt_hyper_pending_base>
#else
#ifdef CONFIG_NO_FC_TINY
  la        x10, __rt_hyper_pending_hyper_addr
  lw        x10, 0(x10)
#else
  lw        x10, %tiny(__rt_hyper_pending_hyper_addr)(x0)
1c000516:	31002503          	lw	a0,784(zero) # 310 <__rt_hyper_pending_hyper_addr>
#endif
  p.bclr    x9, x11, 0, UDMA_CHANNEL_SIZE_LOG2
1c00051a:	c045b4b3          	p.bclr	s1,a1,0,4
#endif
  add       x10, x10, x12
1c00051e:	9532                	add	a0,a0,a2
  sw        x10, HYPER_EXT_ADDR_CHANNEL_CUSTOM_OFFSET(x9)
1c000520:	d088                	sw	a0,32(s1)
#ifdef CONFIG_NO_FC_TINY
  la        x10, __rt_hyper_pending_hyper_addr
  sw        x10, 0(x10)
#else
  sw        x10, %tiny(__rt_hyper_pending_hyper_addr)(x0)
1c000522:	30a02823          	sw	a0,784(zero) # 310 <__rt_hyper_pending_hyper_addr>
  la        x10, __rt_hyper_pending_addr
  lw        x10, 0(x10)
  la        x9, __rt_hyper_pending_repeat_size
  lw        x9, 0(x9)
#else
  lw        x10, %tiny(__rt_hyper_pending_addr)(x0)
1c000526:	31402503          	lw	a0,788(zero) # 314 <__rt_hyper_pending_addr>
  lw        x9, %tiny(__rt_hyper_pending_repeat_size)(x0)
1c00052a:	31c02483          	lw	s1,796(zero) # 31c <__rt_hyper_pending_repeat_size>
#endif
  add       x10, x10, x12
1c00052e:	9532                	add	a0,a0,a2
  sub       x9, x9, x12
1c000530:	8c91                	sub	s1,s1,a2
  blt       x12, x9, __rt_hyper_repeat_copy_not_last
1c000532:	00964763          	blt	a2,s1,1c000540 <__rt_hyper_repeat_copy_not_last>
  mv        x12, x9
1c000536:	8626                	mv	a2,s1
#ifdef CONFIG_NO_FC_TINY
  la        x8, __rt_hyper_pending_repeat
  sw        x0, 0(x8)
#else
  sw        x0, %tiny(__rt_hyper_pending_repeat)(x0)
1c000538:	30002c23          	sw	zero,792(zero) # 318 <__rt_hyper_pending_repeat>
#endif
  beq       x12, x0, udma_event_handler_end_hyper
1c00053c:	04060e63          	beqz	a2,1c000598 <udma_event_handler_end_hyper>

1c000540 <__rt_hyper_repeat_copy_not_last>:
  la        x8, __rt_hyper_pending_addr
  sw        x10, 0(x8)
  la        x8, __rt_hyper_pending_repeat_size
  sw        x9, 0(x8)
#else
  sw        x10, %tiny(__rt_hyper_pending_addr)(x0)
1c000540:	30a02a23          	sw	a0,788(zero) # 314 <__rt_hyper_pending_addr>
  sw        x9, %tiny(__rt_hyper_pending_repeat_size)(x0)
1c000544:	30902e23          	sw	s1,796(zero) # 31c <__rt_hyper_pending_repeat_size>
#endif
  sw        x10, UDMA_CHANNEL_SADDR_OFFSET(x11)
1c000548:	c188                	sw	a0,0(a1)
  sw        x12, UDMA_CHANNEL_SIZE_OFFSET(x11)
1c00054a:	c1d0                	sw	a2,4(a1)

  li        x10, UDMA_CHANNEL_CFG_EN
1c00054c:	4541                	li	a0,16
  sw        x10, UDMA_CHANNEL_CFG_OFFSET(x11)
1c00054e:	c588                	sw	a0,8(a1)

  j         udma_event_handler_end_hyper
1c000550:	a0a1                	j	1c000598 <udma_event_handler_end_hyper>

1c000552 <__rt_hyper_handle_copy_end>:
#ifdef CONFIG_NO_FC_TINY
  la        x8, __rt_hyper_end_task
  lw        x11, 0(x8)
  sw        x0, 0(x8)
#else
  lw        x11, %tiny(__rt_hyper_end_task)(x0)
1c000552:	32002583          	lw	a1,800(zero) # 320 <__rt_hyper_end_task>
  sw        x0, %tiny(__rt_hyper_end_task)(x0)
1c000556:	32002023          	sw	zero,800(zero) # 320 <__rt_hyper_end_task>
#endif
  beqz      x11, __rt_hyper_handle_emu_task
1c00055a:	c589                	beqz	a1,1c000564 <__rt_hyper_handle_emu_task>
#ifdef CONFIG_NO_FC_TINY
  la        x8, __rt_hyper_current_task
  sw        x0, 0(x8)
#else
  sw        x0, %tiny(__rt_hyper_current_task)(x0)
1c00055c:	32002223          	sw	zero,804(zero) # 324 <__rt_hyper_current_task>
#endif
  jal       x9, __rt_event_enqueue
1c000560:	bafff4ef          	jal	s1,1c00010e <__rt_event_enqueue>

1c000564 <__rt_hyper_handle_emu_task>:
__rt_hyper_handle_emu_task:
#ifdef CONFIG_NO_FC_TINY
  la        x8, __rt_hyper_pending_emu_task
  lw        x10, 0(x8)
#else
  lw        x10, %tiny(__rt_hyper_pending_emu_task)(x0)
1c000564:	33c02503          	lw	a0,828(zero) # 33c <__rt_hyper_pending_emu_task>
#endif
  beqz      x10, __rt_hyper_handle_pending_tasks
1c000568:	c919                	beqz	a0,1c00057e <__rt_hyper_handle_pending_tasks>

  la      x12, __rt_hyper_resume_emu_task
1c00056a:	00003617          	auipc	a2,0x3
1c00056e:	70e60613          	addi	a2,a2,1806 # 1c003c78 <__rt_hyper_resume_emu_task>
  la        x9, udma_event_handler_end_hyper
1c000572:	00000497          	auipc	s1,0x0
1c000576:	02648493          	addi	s1,s1,38 # 1c000598 <udma_event_handler_end_hyper>
  j         __rt_call_external_c_function
1c00057a:	c87ff06f          	j	1c000200 <__rt_call_external_c_function>

1c00057e <__rt_hyper_handle_pending_tasks>:
__rt_hyper_handle_pending_tasks:
#ifdef CONFIG_NO_FC_TINY
  la        x8, __rt_hyper_pending_tasks
  lw        x10, 0(x8)
#else
  lw        x10, %tiny(__rt_hyper_pending_tasks)(x0)
1c00057e:	34002503          	lw	a0,832(zero) # 340 <__rt_hyper_pending_tasks>
#endif
  beqz      x10, udma_event_handler_end_hyper
1c000582:	c919                	beqz	a0,1c000598 <udma_event_handler_end_hyper>

  la      x12, __rt_hyper_resume_copy
1c000584:	00003617          	auipc	a2,0x3
1c000588:	6fa60613          	addi	a2,a2,1786 # 1c003c7e <__rt_hyper_resume_copy>
  la        x9, udma_event_handler_end_hyper
1c00058c:	00000497          	auipc	s1,0x0
1c000590:	00c48493          	addi	s1,s1,12 # 1c000598 <udma_event_handler_end_hyper>
  j         __rt_call_external_c_function
1c000594:	c6dff06f          	j	1c000200 <__rt_call_external_c_function>

1c000598 <udma_event_handler_end_hyper>:

  .global udma_event_handler_end_hyper
udma_event_handler_end_hyper:
  add sp, sp, 128
1c000598:	6109                	addi	sp,sp,128
  lw  x8, -4(sp)
1c00059a:	ffc12403          	lw	s0,-4(sp)
  lw  x9, -8(sp)
1c00059e:	ff812483          	lw	s1,-8(sp)
  lw  x10, -12(sp)
1c0005a2:	ff412503          	lw	a0,-12(sp)
  lw  x11, -16(sp)
1c0005a6:	ff012583          	lw	a1,-16(sp)
  lw  x12, -20(sp)
1c0005aa:	fec12603          	lw	a2,-20(sp)
  mret
1c0005ae:	30200073          	mret

1c0005b2 <__rt_hyper_handler>:



  .global __rt_hyper_handler
__rt_hyper_handler:
  sw  x9, -8(sp)
1c0005b2:	fe912c23          	sw	s1,-8(sp)
  sw  x10, -12(sp)
1c0005b6:	fea12a23          	sw	a0,-12(sp)
  sw  x12, -20(sp)
1c0005ba:	fec12623          	sw	a2,-20(sp)
#ifdef CONFIG_NO_FC_TINY
  la        x8, __rt_hyper_udma_handle
  lw        x12, 0(x8)
#else
  lw        x12, %tiny(__rt_hyper_udma_handle)(x0)
1c0005be:	30802603          	lw	a2,776(zero) # 308 <__rt_hyper_udma_handle>
#endif
  sw  x11, -16(sp)
1c0005c2:	feb12823          	sw	a1,-16(sp)
  jr        x12
1c0005c6:	8602                	jr	a2

1c0005c8 <__rt_hyper_handle_burst>:
  la        x8, __rt_hyper_pending_repeat
  lw        x12, 0(x8)
  la        x8, __rt_hyper_pending_base
  lw        x11, 0(x8)
#else
  lw        x12, %tiny(__rt_hyper_pending_repeat)(x0)
1c0005c8:	31802603          	lw	a2,792(zero) # 318 <__rt_hyper_pending_repeat>

  lw        x11, %tiny(__rt_hyper_pending_base)(x0)
1c0005cc:	30c02583          	lw	a1,780(zero) # 30c <__rt_hyper_pending_base>
#else
#ifdef CONFIG_NO_FC_TINY
  la        x8, __rt_hyper_pending_hyper_addr
  lw        x10, 0(x8)
#else
  lw        x10, %tiny(__rt_hyper_pending_hyper_addr)(x0)
1c0005d0:	31002503          	lw	a0,784(zero) # 310 <__rt_hyper_pending_hyper_addr>
#endif
  p.bclr    x9, x11, 0, UDMA_CHANNEL_SIZE_LOG2
1c0005d4:	c045b4b3          	p.bclr	s1,a1,0,4
#endif
  add       x10, x10, x12
1c0005d8:	9532                	add	a0,a0,a2
  sw        x10, HYPER_EXT_ADDR_CHANNEL_CUSTOM_OFFSET(x9)
1c0005da:	d088                	sw	a0,32(s1)
  la        x8, __rt_hyper_pending_addr
  lw        x10, 0(x8)
  la        x8, __rt_hyper_pending_repeat_size
  lw        x9, 0(x8)
#else
  sw        x10, %tiny(__rt_hyper_pending_hyper_addr)(x0)
1c0005dc:	30a02823          	sw	a0,784(zero) # 310 <__rt_hyper_pending_hyper_addr>

  lw        x10, %tiny(__rt_hyper_pending_addr)(x0)
1c0005e0:	31402503          	lw	a0,788(zero) # 314 <__rt_hyper_pending_addr>
  lw        x9, %tiny(__rt_hyper_pending_repeat_size)(x0)
1c0005e4:	31c02483          	lw	s1,796(zero) # 31c <__rt_hyper_pending_repeat_size>
#endif
  add       x10, x10, x12
1c0005e8:	9532                	add	a0,a0,a2
  sub       x9, x9, x12
1c0005ea:	8c91                	sub	s1,s1,a2
  bge       x12, x9, __rt_hyper_repeat_copy_last3
1c0005ec:	02965463          	ble	s1,a2,1c000614 <__rt_hyper_repeat_copy_last3>

1c0005f0 <__rt_hyper_repeat_copy_not_last3>:
  la        x8, __rt_hyper_pending_addr
  sw        x10, 0(x8)
  la        x8, __rt_hyper_pending_repeat_size
  sw        x9, 0(x8)
#else
  sw        x10, %tiny(__rt_hyper_pending_addr)(x0)
1c0005f0:	30a02a23          	sw	a0,788(zero) # 314 <__rt_hyper_pending_addr>
  sw        x9, %tiny(__rt_hyper_pending_repeat_size)(x0)
1c0005f4:	30902e23          	sw	s1,796(zero) # 31c <__rt_hyper_pending_repeat_size>
#endif
  sw        x10, UDMA_CHANNEL_SADDR_OFFSET(x11)
1c0005f8:	c188                	sw	a0,0(a1)
  sw        x12, UDMA_CHANNEL_SIZE_OFFSET(x11)
1c0005fa:	c1d0                	sw	a2,4(a1)

  li        x10, UDMA_CHANNEL_CFG_EN
1c0005fc:	4541                	li	a0,16
  sw        x10, UDMA_CHANNEL_CFG_OFFSET(x11)
1c0005fe:	c588                	sw	a0,8(a1)

  lw  x9, -8(sp)
1c000600:	ff812483          	lw	s1,-8(sp)
  lw  x10, -12(sp)
1c000604:	ff412503          	lw	a0,-12(sp)
  lw  x11, -16(sp)
1c000608:	ff012583          	lw	a1,-16(sp)
  lw  x12, -20(sp)
1c00060c:	fec12603          	lw	a2,-20(sp)
  mret
1c000610:	30200073          	mret

1c000614 <__rt_hyper_repeat_copy_last3>:

__rt_hyper_repeat_copy_last3:
  la        x12, __rt_hyper_handle_copy
1c000614:	00000617          	auipc	a2,0x0
1c000618:	ef260613          	addi	a2,a2,-270 # 1c000506 <__rt_hyper_handle_copy>
#ifdef CONFIG_NO_FC_TINY
  la        x8, __rt_hyper_udma_handle
  sw        x12, 0(x8)
#else
  sw        x12, %tiny(__rt_hyper_udma_handle)(x0)
1c00061c:	30c02423          	sw	a2,776(zero) # 308 <__rt_hyper_udma_handle>
#endif

  mv        x12, x9
1c000620:	8626                	mv	a2,s1
#ifdef CONFIG_NO_FC_TINY
  la        x8, __rt_hyper_pending_repeat
  sw        x0, 0(x8)
#else
  sw        x0, %tiny(__rt_hyper_pending_repeat)(x0)
1c000622:	30002c23          	sw	zero,792(zero) # 318 <__rt_hyper_pending_repeat>
#endif
  beq       x12, x0, udma_event_handler_end
1c000626:	00061463          	bnez	a2,1c00062e <__rt_hyper_repeat_copy_last3+0x1a>
1c00062a:	e7bff06f          	j	1c0004a4 <udma_event_handler_end>

  j         __rt_hyper_repeat_copy_not_last3
1c00062e:	b7c9                	j	1c0005f0 <__rt_hyper_repeat_copy_not_last3>

1c000630 <__udivdi3>:
1c000630:	87b2                	mv	a5,a2
1c000632:	8736                	mv	a4,a3
1c000634:	88aa                	mv	a7,a0
1c000636:	882e                	mv	a6,a1
1c000638:	1e069d63          	bnez	a3,1c000832 <__udivdi3+0x202>
1c00063c:	1c005337          	lui	t1,0x1c005
1c000640:	67c30313          	addi	t1,t1,1660 # 1c00567c <__clz_tab>
1c000644:	0ac5fd63          	bleu	a2,a1,1c0006fe <__udivdi3+0xce>
1c000648:	6741                	lui	a4,0x10
1c00064a:	0ae67363          	bleu	a4,a2,1c0006f0 <__udivdi3+0xc0>
1c00064e:	0ff00693          	li	a3,255
1c000652:	00c6b6b3          	sltu	a3,a3,a2
1c000656:	068e                	slli	a3,a3,0x3
1c000658:	00d65733          	srl	a4,a2,a3
1c00065c:	933a                	add	t1,t1,a4
1c00065e:	00034703          	lbu	a4,0(t1)
1c000662:	02000313          	li	t1,32
1c000666:	96ba                	add	a3,a3,a4
1c000668:	40d30333          	sub	t1,t1,a3
1c00066c:	00030c63          	beqz	t1,1c000684 <__udivdi3+0x54>
1c000670:	00659733          	sll	a4,a1,t1
1c000674:	00d556b3          	srl	a3,a0,a3
1c000678:	006617b3          	sll	a5,a2,t1
1c00067c:	00e6e833          	or	a6,a3,a4
1c000680:	006518b3          	sll	a7,a0,t1
1c000684:	0107d513          	srli	a0,a5,0x10
1c000688:	02a85733          	divu	a4,a6,a0
1c00068c:	1007d5b3          	p.exthz	a1,a5
1c000690:	0108d693          	srli	a3,a7,0x10
1c000694:	02a87633          	remu	a2,a6,a0
1c000698:	02e58833          	mul	a6,a1,a4
1c00069c:	0642                	slli	a2,a2,0x10
1c00069e:	8ed1                	or	a3,a3,a2
1c0006a0:	863a                	mv	a2,a4
1c0006a2:	0106fc63          	bleu	a6,a3,1c0006ba <__udivdi3+0x8a>
1c0006a6:	96be                	add	a3,a3,a5
1c0006a8:	fff70613          	addi	a2,a4,-1 # ffff <__l1_heap_size+0x1f>
1c0006ac:	00f6e763          	bltu	a3,a5,1c0006ba <__udivdi3+0x8a>
1c0006b0:	0106f563          	bleu	a6,a3,1c0006ba <__udivdi3+0x8a>
1c0006b4:	ffe70613          	addi	a2,a4,-2
1c0006b8:	96be                	add	a3,a3,a5
1c0006ba:	410686b3          	sub	a3,a3,a6
1c0006be:	02a6f833          	remu	a6,a3,a0
1c0006c2:	02a6d6b3          	divu	a3,a3,a0
1c0006c6:	df0828b3          	p.insert	a7,a6,15,16
1c0006ca:	02d58733          	mul	a4,a1,a3
1c0006ce:	8536                	mv	a0,a3
1c0006d0:	00e8fb63          	bleu	a4,a7,1c0006e6 <__udivdi3+0xb6>
1c0006d4:	98be                	add	a7,a7,a5
1c0006d6:	fff68513          	addi	a0,a3,-1
1c0006da:	00f8e663          	bltu	a7,a5,1c0006e6 <__udivdi3+0xb6>
1c0006de:	00e8f463          	bleu	a4,a7,1c0006e6 <__udivdi3+0xb6>
1c0006e2:	ffe68513          	addi	a0,a3,-2
1c0006e6:	01061793          	slli	a5,a2,0x10
1c0006ea:	8fc9                	or	a5,a5,a0
1c0006ec:	4801                	li	a6,0
1c0006ee:	a06d                	j	1c000798 <__udivdi3+0x168>
1c0006f0:	01000737          	lui	a4,0x1000
1c0006f4:	46c1                	li	a3,16
1c0006f6:	f6e661e3          	bltu	a2,a4,1c000658 <__udivdi3+0x28>
1c0006fa:	46e1                	li	a3,24
1c0006fc:	bfb1                	j	1c000658 <__udivdi3+0x28>
1c0006fe:	e601                	bnez	a2,1c000706 <__udivdi3+0xd6>
1c000700:	4685                	li	a3,1
1c000702:	02c6d7b3          	divu	a5,a3,a2
1c000706:	66c1                	lui	a3,0x10
1c000708:	08d7fb63          	bleu	a3,a5,1c00079e <__udivdi3+0x16e>
1c00070c:	0ff00693          	li	a3,255
1c000710:	00f6f363          	bleu	a5,a3,1c000716 <__udivdi3+0xe6>
1c000714:	4721                	li	a4,8
1c000716:	00e7d6b3          	srl	a3,a5,a4
1c00071a:	9336                	add	t1,t1,a3
1c00071c:	00034683          	lbu	a3,0(t1)
1c000720:	02000613          	li	a2,32
1c000724:	96ba                	add	a3,a3,a4
1c000726:	8e15                	sub	a2,a2,a3
1c000728:	e251                	bnez	a2,1c0007ac <__udivdi3+0x17c>
1c00072a:	40f58733          	sub	a4,a1,a5
1c00072e:	4805                	li	a6,1
1c000730:	0107d513          	srli	a0,a5,0x10
1c000734:	1007d5b3          	p.exthz	a1,a5
1c000738:	0108d693          	srli	a3,a7,0x10
1c00073c:	02a77633          	remu	a2,a4,a0
1c000740:	02a75733          	divu	a4,a4,a0
1c000744:	0642                	slli	a2,a2,0x10
1c000746:	8ed1                	or	a3,a3,a2
1c000748:	02e58333          	mul	t1,a1,a4
1c00074c:	863a                	mv	a2,a4
1c00074e:	0066fc63          	bleu	t1,a3,1c000766 <__udivdi3+0x136>
1c000752:	96be                	add	a3,a3,a5
1c000754:	fff70613          	addi	a2,a4,-1 # ffffff <__L2+0xf7ffff>
1c000758:	00f6e763          	bltu	a3,a5,1c000766 <__udivdi3+0x136>
1c00075c:	0066f563          	bleu	t1,a3,1c000766 <__udivdi3+0x136>
1c000760:	ffe70613          	addi	a2,a4,-2
1c000764:	96be                	add	a3,a3,a5
1c000766:	406686b3          	sub	a3,a3,t1
1c00076a:	02a6f333          	remu	t1,a3,a0
1c00076e:	02a6d6b3          	divu	a3,a3,a0
1c000772:	df0328b3          	p.insert	a7,t1,15,16
1c000776:	02d58733          	mul	a4,a1,a3
1c00077a:	8536                	mv	a0,a3
1c00077c:	00e8fb63          	bleu	a4,a7,1c000792 <__udivdi3+0x162>
1c000780:	98be                	add	a7,a7,a5
1c000782:	fff68513          	addi	a0,a3,-1 # ffff <__l1_heap_size+0x1f>
1c000786:	00f8e663          	bltu	a7,a5,1c000792 <__udivdi3+0x162>
1c00078a:	00e8f463          	bleu	a4,a7,1c000792 <__udivdi3+0x162>
1c00078e:	ffe68513          	addi	a0,a3,-2
1c000792:	01061793          	slli	a5,a2,0x10
1c000796:	8fc9                	or	a5,a5,a0
1c000798:	853e                	mv	a0,a5
1c00079a:	85c2                	mv	a1,a6
1c00079c:	8082                	ret
1c00079e:	010006b7          	lui	a3,0x1000
1c0007a2:	4741                	li	a4,16
1c0007a4:	f6d7e9e3          	bltu	a5,a3,1c000716 <__udivdi3+0xe6>
1c0007a8:	4761                	li	a4,24
1c0007aa:	b7b5                	j	1c000716 <__udivdi3+0xe6>
1c0007ac:	00c797b3          	sll	a5,a5,a2
1c0007b0:	00d5d333          	srl	t1,a1,a3
1c0007b4:	0107de13          	srli	t3,a5,0x10
1c0007b8:	00c59733          	sll	a4,a1,a2
1c0007bc:	00c518b3          	sll	a7,a0,a2
1c0007c0:	00d555b3          	srl	a1,a0,a3
1c0007c4:	03c35533          	divu	a0,t1,t3
1c0007c8:	8dd9                	or	a1,a1,a4
1c0007ca:	1007d733          	p.exthz	a4,a5
1c0007ce:	0105d693          	srli	a3,a1,0x10
1c0007d2:	03c37633          	remu	a2,t1,t3
1c0007d6:	882a                	mv	a6,a0
1c0007d8:	02a70333          	mul	t1,a4,a0
1c0007dc:	0642                	slli	a2,a2,0x10
1c0007de:	8ed1                	or	a3,a3,a2
1c0007e0:	0066fc63          	bleu	t1,a3,1c0007f8 <__udivdi3+0x1c8>
1c0007e4:	96be                	add	a3,a3,a5
1c0007e6:	fff50813          	addi	a6,a0,-1
1c0007ea:	00f6e763          	bltu	a3,a5,1c0007f8 <__udivdi3+0x1c8>
1c0007ee:	0066f563          	bleu	t1,a3,1c0007f8 <__udivdi3+0x1c8>
1c0007f2:	ffe50813          	addi	a6,a0,-2
1c0007f6:	96be                	add	a3,a3,a5
1c0007f8:	406686b3          	sub	a3,a3,t1
1c0007fc:	03c6f633          	remu	a2,a3,t3
1c000800:	03c6d6b3          	divu	a3,a3,t3
1c000804:	df0625b3          	p.insert	a1,a2,15,16
1c000808:	02d70733          	mul	a4,a4,a3
1c00080c:	8636                	mv	a2,a3
1c00080e:	00e5fc63          	bleu	a4,a1,1c000826 <__udivdi3+0x1f6>
1c000812:	95be                	add	a1,a1,a5
1c000814:	fff68613          	addi	a2,a3,-1 # ffffff <__L2+0xf7ffff>
1c000818:	00f5e763          	bltu	a1,a5,1c000826 <__udivdi3+0x1f6>
1c00081c:	00e5f563          	bleu	a4,a1,1c000826 <__udivdi3+0x1f6>
1c000820:	ffe68613          	addi	a2,a3,-2
1c000824:	95be                	add	a1,a1,a5
1c000826:	0842                	slli	a6,a6,0x10
1c000828:	40e58733          	sub	a4,a1,a4
1c00082c:	00c86833          	or	a6,a6,a2
1c000830:	b701                	j	1c000730 <__udivdi3+0x100>
1c000832:	12d5ea63          	bltu	a1,a3,1c000966 <__udivdi3+0x336>
1c000836:	67c1                	lui	a5,0x10
1c000838:	02f6fd63          	bleu	a5,a3,1c000872 <__udivdi3+0x242>
1c00083c:	0ff00793          	li	a5,255
1c000840:	00d7b8b3          	sltu	a7,a5,a3
1c000844:	088e                	slli	a7,a7,0x3
1c000846:	1c005737          	lui	a4,0x1c005
1c00084a:	0116d7b3          	srl	a5,a3,a7
1c00084e:	67c70713          	addi	a4,a4,1660 # 1c00567c <__clz_tab>
1c000852:	97ba                	add	a5,a5,a4
1c000854:	0007c783          	lbu	a5,0(a5) # 10000 <__L1Cl>
1c000858:	02000813          	li	a6,32
1c00085c:	97c6                	add	a5,a5,a7
1c00085e:	40f80833          	sub	a6,a6,a5
1c000862:	00081f63          	bnez	a6,1c000880 <__udivdi3+0x250>
1c000866:	4785                	li	a5,1
1c000868:	f2b6e8e3          	bltu	a3,a1,1c000798 <__udivdi3+0x168>
1c00086c:	04a637b3          	p.sletu	a5,a2,a0
1c000870:	b725                	j	1c000798 <__udivdi3+0x168>
1c000872:	010007b7          	lui	a5,0x1000
1c000876:	48c1                	li	a7,16
1c000878:	fcf6e7e3          	bltu	a3,a5,1c000846 <__udivdi3+0x216>
1c00087c:	48e1                	li	a7,24
1c00087e:	b7e1                	j	1c000846 <__udivdi3+0x216>
1c000880:	00f658b3          	srl	a7,a2,a5
1c000884:	010696b3          	sll	a3,a3,a6
1c000888:	00d8e6b3          	or	a3,a7,a3
1c00088c:	00f5d333          	srl	t1,a1,a5
1c000890:	0106de13          	srli	t3,a3,0x10
1c000894:	00f55733          	srl	a4,a0,a5
1c000898:	03c377b3          	remu	a5,t1,t3
1c00089c:	1006d8b3          	p.exthz	a7,a3
1c0008a0:	010595b3          	sll	a1,a1,a6
1c0008a4:	8f4d                	or	a4,a4,a1
1c0008a6:	01075593          	srli	a1,a4,0x10
1c0008aa:	01061633          	sll	a2,a2,a6
1c0008ae:	03c35333          	divu	t1,t1,t3
1c0008b2:	07c2                	slli	a5,a5,0x10
1c0008b4:	8ddd                	or	a1,a1,a5
1c0008b6:	02688eb3          	mul	t4,a7,t1
1c0008ba:	879a                	mv	a5,t1
1c0008bc:	01d5fc63          	bleu	t4,a1,1c0008d4 <__udivdi3+0x2a4>
1c0008c0:	95b6                	add	a1,a1,a3
1c0008c2:	fff30793          	addi	a5,t1,-1
1c0008c6:	00d5e763          	bltu	a1,a3,1c0008d4 <__udivdi3+0x2a4>
1c0008ca:	01d5f563          	bleu	t4,a1,1c0008d4 <__udivdi3+0x2a4>
1c0008ce:	ffe30793          	addi	a5,t1,-2
1c0008d2:	95b6                	add	a1,a1,a3
1c0008d4:	41d585b3          	sub	a1,a1,t4
1c0008d8:	03c5f333          	remu	t1,a1,t3
1c0008dc:	03c5d5b3          	divu	a1,a1,t3
1c0008e0:	df032733          	p.insert	a4,t1,15,16
1c0008e4:	02b888b3          	mul	a7,a7,a1
1c0008e8:	832e                	mv	t1,a1
1c0008ea:	01177c63          	bleu	a7,a4,1c000902 <__udivdi3+0x2d2>
1c0008ee:	9736                	add	a4,a4,a3
1c0008f0:	fff58313          	addi	t1,a1,-1
1c0008f4:	00d76763          	bltu	a4,a3,1c000902 <__udivdi3+0x2d2>
1c0008f8:	01177563          	bleu	a7,a4,1c000902 <__udivdi3+0x2d2>
1c0008fc:	ffe58313          	addi	t1,a1,-2
1c000900:	9736                	add	a4,a4,a3
1c000902:	07c2                	slli	a5,a5,0x10
1c000904:	6e41                	lui	t3,0x10
1c000906:	0067e7b3          	or	a5,a5,t1
1c00090a:	fffe0593          	addi	a1,t3,-1 # ffff <__l1_heap_size+0x1f>
1c00090e:	00b7f6b3          	and	a3,a5,a1
1c000912:	41170733          	sub	a4,a4,a7
1c000916:	8df1                	and	a1,a1,a2
1c000918:	0107d893          	srli	a7,a5,0x10
1c00091c:	02b68333          	mul	t1,a3,a1
1c000920:	8241                	srli	a2,a2,0x10
1c000922:	02b885b3          	mul	a1,a7,a1
1c000926:	8eae                	mv	t4,a1
1c000928:	42c68eb3          	p.mac	t4,a3,a2
1c00092c:	01035693          	srli	a3,t1,0x10
1c000930:	96f6                	add	a3,a3,t4
1c000932:	02c888b3          	mul	a7,a7,a2
1c000936:	00b6f363          	bleu	a1,a3,1c00093c <__udivdi3+0x30c>
1c00093a:	98f2                	add	a7,a7,t3
1c00093c:	0106d613          	srli	a2,a3,0x10
1c000940:	98b2                	add	a7,a7,a2
1c000942:	03176063          	bltu	a4,a7,1c000962 <__udivdi3+0x332>
1c000946:	db1713e3          	bne	a4,a7,1c0006ec <__udivdi3+0xbc>
1c00094a:	6741                	lui	a4,0x10
1c00094c:	177d                	addi	a4,a4,-1
1c00094e:	8ef9                	and	a3,a3,a4
1c000950:	06c2                	slli	a3,a3,0x10
1c000952:	00e37333          	and	t1,t1,a4
1c000956:	01051533          	sll	a0,a0,a6
1c00095a:	969a                	add	a3,a3,t1
1c00095c:	4801                	li	a6,0
1c00095e:	e2d57de3          	bleu	a3,a0,1c000798 <__udivdi3+0x168>
1c000962:	17fd                	addi	a5,a5,-1
1c000964:	b361                	j	1c0006ec <__udivdi3+0xbc>
1c000966:	4801                	li	a6,0
1c000968:	4781                	li	a5,0
1c00096a:	b53d                	j	1c000798 <__udivdi3+0x168>

1c00096c <__umoddi3>:
1c00096c:	88b2                	mv	a7,a2
1c00096e:	8736                	mv	a4,a3
1c000970:	87aa                	mv	a5,a0
1c000972:	882e                	mv	a6,a1
1c000974:	1a069963          	bnez	a3,1c000b26 <__umoddi3+0x1ba>
1c000978:	1c0056b7          	lui	a3,0x1c005
1c00097c:	67c68693          	addi	a3,a3,1660 # 1c00567c <__clz_tab>
1c000980:	0ac5f463          	bleu	a2,a1,1c000a28 <__umoddi3+0xbc>
1c000984:	6341                	lui	t1,0x10
1c000986:	08667a63          	bleu	t1,a2,1c000a1a <__umoddi3+0xae>
1c00098a:	0ff00313          	li	t1,255
1c00098e:	00c37363          	bleu	a2,t1,1c000994 <__umoddi3+0x28>
1c000992:	4721                	li	a4,8
1c000994:	00e65333          	srl	t1,a2,a4
1c000998:	969a                	add	a3,a3,t1
1c00099a:	0006c683          	lbu	a3,0(a3)
1c00099e:	02000313          	li	t1,32
1c0009a2:	9736                	add	a4,a4,a3
1c0009a4:	40e30333          	sub	t1,t1,a4
1c0009a8:	00030c63          	beqz	t1,1c0009c0 <__umoddi3+0x54>
1c0009ac:	006595b3          	sll	a1,a1,t1
1c0009b0:	00e55733          	srl	a4,a0,a4
1c0009b4:	006618b3          	sll	a7,a2,t1
1c0009b8:	00b76833          	or	a6,a4,a1
1c0009bc:	006517b3          	sll	a5,a0,t1
1c0009c0:	0108d613          	srli	a2,a7,0x10
1c0009c4:	02c87733          	remu	a4,a6,a2
1c0009c8:	1008d533          	p.exthz	a0,a7
1c0009cc:	0107d693          	srli	a3,a5,0x10
1c0009d0:	02c85833          	divu	a6,a6,a2
1c0009d4:	0742                	slli	a4,a4,0x10
1c0009d6:	8ed9                	or	a3,a3,a4
1c0009d8:	03050833          	mul	a6,a0,a6
1c0009dc:	0106f863          	bleu	a6,a3,1c0009ec <__umoddi3+0x80>
1c0009e0:	96c6                	add	a3,a3,a7
1c0009e2:	0116e563          	bltu	a3,a7,1c0009ec <__umoddi3+0x80>
1c0009e6:	0106f363          	bleu	a6,a3,1c0009ec <__umoddi3+0x80>
1c0009ea:	96c6                	add	a3,a3,a7
1c0009ec:	410686b3          	sub	a3,a3,a6
1c0009f0:	02c6f733          	remu	a4,a3,a2
1c0009f4:	02c6d6b3          	divu	a3,a3,a2
1c0009f8:	df0727b3          	p.insert	a5,a4,15,16
1c0009fc:	02d506b3          	mul	a3,a0,a3
1c000a00:	00d7f863          	bleu	a3,a5,1c000a10 <__umoddi3+0xa4>
1c000a04:	97c6                	add	a5,a5,a7
1c000a06:	0117e563          	bltu	a5,a7,1c000a10 <__umoddi3+0xa4>
1c000a0a:	00d7f363          	bleu	a3,a5,1c000a10 <__umoddi3+0xa4>
1c000a0e:	97c6                	add	a5,a5,a7
1c000a10:	8f95                	sub	a5,a5,a3
1c000a12:	0067d533          	srl	a0,a5,t1
1c000a16:	4581                	li	a1,0
1c000a18:	8082                	ret
1c000a1a:	01000337          	lui	t1,0x1000
1c000a1e:	4741                	li	a4,16
1c000a20:	f6666ae3          	bltu	a2,t1,1c000994 <__umoddi3+0x28>
1c000a24:	4761                	li	a4,24
1c000a26:	b7bd                	j	1c000994 <__umoddi3+0x28>
1c000a28:	e601                	bnez	a2,1c000a30 <__umoddi3+0xc4>
1c000a2a:	4605                	li	a2,1
1c000a2c:	031658b3          	divu	a7,a2,a7
1c000a30:	6641                	lui	a2,0x10
1c000a32:	06c8ff63          	bleu	a2,a7,1c000ab0 <__umoddi3+0x144>
1c000a36:	0ff00613          	li	a2,255
1c000a3a:	01167363          	bleu	a7,a2,1c000a40 <__umoddi3+0xd4>
1c000a3e:	4721                	li	a4,8
1c000a40:	00e8d633          	srl	a2,a7,a4
1c000a44:	96b2                	add	a3,a3,a2
1c000a46:	0006c603          	lbu	a2,0(a3)
1c000a4a:	02000313          	li	t1,32
1c000a4e:	963a                	add	a2,a2,a4
1c000a50:	40c30333          	sub	t1,t1,a2
1c000a54:	06031563          	bnez	t1,1c000abe <__umoddi3+0x152>
1c000a58:	411585b3          	sub	a1,a1,a7
1c000a5c:	0108d713          	srli	a4,a7,0x10
1c000a60:	1008d533          	p.exthz	a0,a7
1c000a64:	0107d613          	srli	a2,a5,0x10
1c000a68:	02e5f6b3          	remu	a3,a1,a4
1c000a6c:	02e5d5b3          	divu	a1,a1,a4
1c000a70:	06c2                	slli	a3,a3,0x10
1c000a72:	8ed1                	or	a3,a3,a2
1c000a74:	02b505b3          	mul	a1,a0,a1
1c000a78:	00b6f863          	bleu	a1,a3,1c000a88 <__umoddi3+0x11c>
1c000a7c:	96c6                	add	a3,a3,a7
1c000a7e:	0116e563          	bltu	a3,a7,1c000a88 <__umoddi3+0x11c>
1c000a82:	00b6f363          	bleu	a1,a3,1c000a88 <__umoddi3+0x11c>
1c000a86:	96c6                	add	a3,a3,a7
1c000a88:	40b685b3          	sub	a1,a3,a1
1c000a8c:	02e5f6b3          	remu	a3,a1,a4
1c000a90:	02e5d5b3          	divu	a1,a1,a4
1c000a94:	df06a7b3          	p.insert	a5,a3,15,16
1c000a98:	02b505b3          	mul	a1,a0,a1
1c000a9c:	00b7f863          	bleu	a1,a5,1c000aac <__umoddi3+0x140>
1c000aa0:	97c6                	add	a5,a5,a7
1c000aa2:	0117e563          	bltu	a5,a7,1c000aac <__umoddi3+0x140>
1c000aa6:	00b7f363          	bleu	a1,a5,1c000aac <__umoddi3+0x140>
1c000aaa:	97c6                	add	a5,a5,a7
1c000aac:	8f8d                	sub	a5,a5,a1
1c000aae:	b795                	j	1c000a12 <__umoddi3+0xa6>
1c000ab0:	01000637          	lui	a2,0x1000
1c000ab4:	4741                	li	a4,16
1c000ab6:	f8c8e5e3          	bltu	a7,a2,1c000a40 <__umoddi3+0xd4>
1c000aba:	4761                	li	a4,24
1c000abc:	b751                	j	1c000a40 <__umoddi3+0xd4>
1c000abe:	006898b3          	sll	a7,a7,t1
1c000ac2:	00c5d733          	srl	a4,a1,a2
1c000ac6:	006517b3          	sll	a5,a0,t1
1c000aca:	00c55633          	srl	a2,a0,a2
1c000ace:	006595b3          	sll	a1,a1,t1
1c000ad2:	0108d513          	srli	a0,a7,0x10
1c000ad6:	8dd1                	or	a1,a1,a2
1c000ad8:	02a77633          	remu	a2,a4,a0
1c000adc:	1008d833          	p.exthz	a6,a7
1c000ae0:	0105d693          	srli	a3,a1,0x10
1c000ae4:	02a75733          	divu	a4,a4,a0
1c000ae8:	0642                	slli	a2,a2,0x10
1c000aea:	8ed1                	or	a3,a3,a2
1c000aec:	02e80733          	mul	a4,a6,a4
1c000af0:	00e6f863          	bleu	a4,a3,1c000b00 <__umoddi3+0x194>
1c000af4:	96c6                	add	a3,a3,a7
1c000af6:	0116e563          	bltu	a3,a7,1c000b00 <__umoddi3+0x194>
1c000afa:	00e6f363          	bleu	a4,a3,1c000b00 <__umoddi3+0x194>
1c000afe:	96c6                	add	a3,a3,a7
1c000b00:	8e99                	sub	a3,a3,a4
1c000b02:	02a6f733          	remu	a4,a3,a0
1c000b06:	02a6d6b3          	divu	a3,a3,a0
1c000b0a:	df0725b3          	p.insert	a1,a4,15,16
1c000b0e:	02d806b3          	mul	a3,a6,a3
1c000b12:	00d5f863          	bleu	a3,a1,1c000b22 <__umoddi3+0x1b6>
1c000b16:	95c6                	add	a1,a1,a7
1c000b18:	0115e563          	bltu	a1,a7,1c000b22 <__umoddi3+0x1b6>
1c000b1c:	00d5f363          	bleu	a3,a1,1c000b22 <__umoddi3+0x1b6>
1c000b20:	95c6                	add	a1,a1,a7
1c000b22:	8d95                	sub	a1,a1,a3
1c000b24:	bf25                	j	1c000a5c <__umoddi3+0xf0>
1c000b26:	eed5e9e3          	bltu	a1,a3,1c000a18 <__umoddi3+0xac>
1c000b2a:	6741                	lui	a4,0x10
1c000b2c:	04e6f563          	bleu	a4,a3,1c000b76 <__umoddi3+0x20a>
1c000b30:	0ff00e93          	li	t4,255
1c000b34:	00deb733          	sltu	a4,t4,a3
1c000b38:	070e                	slli	a4,a4,0x3
1c000b3a:	1c005337          	lui	t1,0x1c005
1c000b3e:	00e6d8b3          	srl	a7,a3,a4
1c000b42:	67c30313          	addi	t1,t1,1660 # 1c00567c <__clz_tab>
1c000b46:	989a                	add	a7,a7,t1
1c000b48:	0008ce83          	lbu	t4,0(a7)
1c000b4c:	02000e13          	li	t3,32
1c000b50:	9eba                	add	t4,t4,a4
1c000b52:	41de0e33          	sub	t3,t3,t4
1c000b56:	020e1763          	bnez	t3,1c000b84 <__umoddi3+0x218>
1c000b5a:	00b6e463          	bltu	a3,a1,1c000b62 <__umoddi3+0x1f6>
1c000b5e:	00c56963          	bltu	a0,a2,1c000b70 <__umoddi3+0x204>
1c000b62:	40c507b3          	sub	a5,a0,a2
1c000b66:	8d95                	sub	a1,a1,a3
1c000b68:	00f53533          	sltu	a0,a0,a5
1c000b6c:	40a58833          	sub	a6,a1,a0
1c000b70:	853e                	mv	a0,a5
1c000b72:	85c2                	mv	a1,a6
1c000b74:	b555                	j	1c000a18 <__umoddi3+0xac>
1c000b76:	010008b7          	lui	a7,0x1000
1c000b7a:	4741                	li	a4,16
1c000b7c:	fb16efe3          	bltu	a3,a7,1c000b3a <__umoddi3+0x1ce>
1c000b80:	4761                	li	a4,24
1c000b82:	bf65                	j	1c000b3a <__umoddi3+0x1ce>
1c000b84:	01d65733          	srl	a4,a2,t4
1c000b88:	01c696b3          	sll	a3,a3,t3
1c000b8c:	8ed9                	or	a3,a3,a4
1c000b8e:	01d5d7b3          	srl	a5,a1,t4
1c000b92:	0106d813          	srli	a6,a3,0x10
1c000b96:	0307f333          	remu	t1,a5,a6
1c000b9a:	1006d733          	p.exthz	a4,a3
1c000b9e:	01d558b3          	srl	a7,a0,t4
1c000ba2:	01c595b3          	sll	a1,a1,t3
1c000ba6:	00b8e5b3          	or	a1,a7,a1
1c000baa:	0105d893          	srli	a7,a1,0x10
1c000bae:	01c61633          	sll	a2,a2,t3
1c000bb2:	01c51533          	sll	a0,a0,t3
1c000bb6:	0307d7b3          	divu	a5,a5,a6
1c000bba:	0342                	slli	t1,t1,0x10
1c000bbc:	011368b3          	or	a7,t1,a7
1c000bc0:	02f70f33          	mul	t5,a4,a5
1c000bc4:	833e                	mv	t1,a5
1c000bc6:	01e8fc63          	bleu	t5,a7,1c000bde <__umoddi3+0x272>
1c000bca:	98b6                	add	a7,a7,a3
1c000bcc:	fff78313          	addi	t1,a5,-1 # ffffff <__L2+0xf7ffff>
1c000bd0:	00d8e763          	bltu	a7,a3,1c000bde <__umoddi3+0x272>
1c000bd4:	01e8f563          	bleu	t5,a7,1c000bde <__umoddi3+0x272>
1c000bd8:	ffe78313          	addi	t1,a5,-2
1c000bdc:	98b6                	add	a7,a7,a3
1c000bde:	41e888b3          	sub	a7,a7,t5
1c000be2:	0308f7b3          	remu	a5,a7,a6
1c000be6:	0308d8b3          	divu	a7,a7,a6
1c000bea:	df07a5b3          	p.insert	a1,a5,15,16
1c000bee:	03170733          	mul	a4,a4,a7
1c000bf2:	87c6                	mv	a5,a7
1c000bf4:	00e5fc63          	bleu	a4,a1,1c000c0c <__umoddi3+0x2a0>
1c000bf8:	95b6                	add	a1,a1,a3
1c000bfa:	fff88793          	addi	a5,a7,-1 # ffffff <__L2+0xf7ffff>
1c000bfe:	00d5e763          	bltu	a1,a3,1c000c0c <__umoddi3+0x2a0>
1c000c02:	00e5f563          	bleu	a4,a1,1c000c0c <__umoddi3+0x2a0>
1c000c06:	ffe88793          	addi	a5,a7,-2
1c000c0a:	95b6                	add	a1,a1,a3
1c000c0c:	0342                	slli	t1,t1,0x10
1c000c0e:	6f41                	lui	t5,0x10
1c000c10:	00f36333          	or	t1,t1,a5
1c000c14:	ffff0793          	addi	a5,t5,-1 # ffff <__l1_heap_size+0x1f>
1c000c18:	00f37833          	and	a6,t1,a5
1c000c1c:	01035313          	srli	t1,t1,0x10
1c000c20:	8ff1                	and	a5,a5,a2
1c000c22:	02f808b3          	mul	a7,a6,a5
1c000c26:	8d99                	sub	a1,a1,a4
1c000c28:	01065713          	srli	a4,a2,0x10
1c000c2c:	02f307b3          	mul	a5,t1,a5
1c000c30:	8fbe                	mv	t6,a5
1c000c32:	42e80fb3          	p.mac	t6,a6,a4
1c000c36:	0108d813          	srli	a6,a7,0x10
1c000c3a:	987e                	add	a6,a6,t6
1c000c3c:	02e30333          	mul	t1,t1,a4
1c000c40:	00f87363          	bleu	a5,a6,1c000c46 <__umoddi3+0x2da>
1c000c44:	937a                	add	t1,t1,t5
1c000c46:	01085713          	srli	a4,a6,0x10
1c000c4a:	933a                	add	t1,t1,a4
1c000c4c:	6741                	lui	a4,0x10
1c000c4e:	177d                	addi	a4,a4,-1
1c000c50:	00e87833          	and	a6,a6,a4
1c000c54:	0842                	slli	a6,a6,0x10
1c000c56:	00e8f733          	and	a4,a7,a4
1c000c5a:	9742                	add	a4,a4,a6
1c000c5c:	0065e663          	bltu	a1,t1,1c000c68 <__umoddi3+0x2fc>
1c000c60:	00659d63          	bne	a1,t1,1c000c7a <__umoddi3+0x30e>
1c000c64:	00e57b63          	bleu	a4,a0,1c000c7a <__umoddi3+0x30e>
1c000c68:	40c70633          	sub	a2,a4,a2
1c000c6c:	00c73733          	sltu	a4,a4,a2
1c000c70:	40d30333          	sub	t1,t1,a3
1c000c74:	40e30333          	sub	t1,t1,a4
1c000c78:	8732                	mv	a4,a2
1c000c7a:	40e50733          	sub	a4,a0,a4
1c000c7e:	00e53533          	sltu	a0,a0,a4
1c000c82:	406585b3          	sub	a1,a1,t1
1c000c86:	8d89                	sub	a1,a1,a0
1c000c88:	01d597b3          	sll	a5,a1,t4
1c000c8c:	01c75733          	srl	a4,a4,t3
1c000c90:	00e7e533          	or	a0,a5,a4
1c000c94:	01c5d5b3          	srl	a1,a1,t3
1c000c98:	b341                	j	1c000a18 <__umoddi3+0xac>

1c000c9a <__addsf3>:
1c000c9a:	ec0597b3          	p.extractu	a5,a1,22,0
1c000c9e:	cf759733          	p.extractu	a4,a1,7,23
1c000ca2:	ec0518b3          	p.extractu	a7,a0,22,0
1c000ca6:	cf751633          	p.extractu	a2,a0,7,23
1c000caa:	01f55313          	srli	t1,a0,0x1f
1c000cae:	81fd                	srli	a1,a1,0x1f
1c000cb0:	088e                	slli	a7,a7,0x3
1c000cb2:	078e                	slli	a5,a5,0x3
1c000cb4:	40e606b3          	sub	a3,a2,a4
1c000cb8:	12b31663          	bne	t1,a1,1c000de4 <__addsf3+0x14a>
1c000cbc:	08d05063          	blez	a3,1c000d3c <__addsf3+0xa2>
1c000cc0:	e739                	bnez	a4,1c000d0e <__addsf3+0x74>
1c000cc2:	eb81                	bnez	a5,1c000cd2 <__addsf3+0x38>
1c000cc4:	0ff00793          	li	a5,255
1c000cc8:	02f60f63          	beq	a2,a5,1c000d06 <__addsf3+0x6c>
1c000ccc:	87c6                	mv	a5,a7
1c000cce:	8732                	mv	a4,a2
1c000cd0:	a061                	j	1c000d58 <__addsf3+0xbe>
1c000cd2:	16fd                	addi	a3,a3,-1
1c000cd4:	e68d                	bnez	a3,1c000cfe <__addsf3+0x64>
1c000cd6:	97c6                	add	a5,a5,a7
1c000cd8:	8732                	mv	a4,a2
1c000cda:	00579693          	slli	a3,a5,0x5
1c000cde:	0606dd63          	bgez	a3,1c000d58 <__addsf3+0xbe>
1c000ce2:	0705                	addi	a4,a4,1
1c000ce4:	0ff00693          	li	a3,255
1c000ce8:	24d70963          	beq	a4,a3,1c000f3a <__addsf3+0x2a0>
1c000cec:	7e0006b7          	lui	a3,0x7e000
1c000cf0:	fc17b633          	p.bclr	a2,a5,30,1
1c000cf4:	16fd                	addi	a3,a3,-1
1c000cf6:	8385                	srli	a5,a5,0x1
1c000cf8:	8ff5                	and	a5,a5,a3
1c000cfa:	8fd1                	or	a5,a5,a2
1c000cfc:	a8b1                	j	1c000d58 <__addsf3+0xbe>
1c000cfe:	0ff00713          	li	a4,255
1c000d02:	00e61c63          	bne	a2,a4,1c000d1a <__addsf3+0x80>
1c000d06:	87c6                	mv	a5,a7
1c000d08:	0ff00713          	li	a4,255
1c000d0c:	a0b1                	j	1c000d58 <__addsf3+0xbe>
1c000d0e:	0ff00713          	li	a4,255
1c000d12:	fee60ae3          	beq	a2,a4,1c000d06 <__addsf3+0x6c>
1c000d16:	c1a7c7b3          	p.bset	a5,a5,0,26
1c000d1a:	476d                	li	a4,27
1c000d1c:	00d75463          	ble	a3,a4,1c000d24 <__addsf3+0x8a>
1c000d20:	4785                	li	a5,1
1c000d22:	bf55                	j	1c000cd6 <__addsf3+0x3c>
1c000d24:	02000713          	li	a4,32
1c000d28:	00d7d5b3          	srl	a1,a5,a3
1c000d2c:	40d706b3          	sub	a3,a4,a3
1c000d30:	00d797b3          	sll	a5,a5,a3
1c000d34:	00f037b3          	snez	a5,a5
1c000d38:	8fcd                	or	a5,a5,a1
1c000d3a:	bf71                	j	1c000cd6 <__addsf3+0x3c>
1c000d3c:	c2b5                	beqz	a3,1c000da0 <__addsf3+0x106>
1c000d3e:	e61d                	bnez	a2,1c000d6c <__addsf3+0xd2>
1c000d40:	00088c63          	beqz	a7,1c000d58 <__addsf3+0xbe>
1c000d44:	01f6b463          	p.bneimm	a3,-1,1c000d4c <__addsf3+0xb2>
1c000d48:	97c6                	add	a5,a5,a7
1c000d4a:	bf41                	j	1c000cda <__addsf3+0x40>
1c000d4c:	0ff00613          	li	a2,255
1c000d50:	fff6c693          	not	a3,a3
1c000d54:	02c71463          	bne	a4,a2,1c000d7c <__addsf3+0xe2>
1c000d58:	f837b6b3          	p.bclr	a3,a5,28,3
1c000d5c:	1e068063          	beqz	a3,1c000f3c <__addsf3+0x2a2>
1c000d60:	f647b6b3          	p.bclr	a3,a5,27,4
1c000d64:	1c46ac63          	p.beqimm	a3,4,1c000f3c <__addsf3+0x2a2>
1c000d68:	0791                	addi	a5,a5,4
1c000d6a:	aac9                	j	1c000f3c <__addsf3+0x2a2>
1c000d6c:	0ff00613          	li	a2,255
1c000d70:	fec704e3          	beq	a4,a2,1c000d58 <__addsf3+0xbe>
1c000d74:	40d006b3          	neg	a3,a3
1c000d78:	c1a8c8b3          	p.bset	a7,a7,0,26
1c000d7c:	466d                	li	a2,27
1c000d7e:	00d65463          	ble	a3,a2,1c000d86 <__addsf3+0xec>
1c000d82:	4885                	li	a7,1
1c000d84:	b7d1                	j	1c000d48 <__addsf3+0xae>
1c000d86:	02000613          	li	a2,32
1c000d8a:	00d8d5b3          	srl	a1,a7,a3
1c000d8e:	40d606b3          	sub	a3,a2,a3
1c000d92:	00d898b3          	sll	a7,a7,a3
1c000d96:	011038b3          	snez	a7,a7
1c000d9a:	0115e8b3          	or	a7,a1,a7
1c000d9e:	b76d                	j	1c000d48 <__addsf3+0xae>
1c000da0:	00160713          	addi	a4,a2,1 # 1000001 <__L2+0xf80001>
1c000da4:	ee8735b3          	p.bclr	a1,a4,23,8
1c000da8:	4685                	li	a3,1
1c000daa:	02b6c663          	blt	a3,a1,1c000dd6 <__addsf3+0x13c>
1c000dae:	ee19                	bnez	a2,1c000dcc <__addsf3+0x132>
1c000db0:	4701                	li	a4,0
1c000db2:	fa0883e3          	beqz	a7,1c000d58 <__addsf3+0xbe>
1c000db6:	18078063          	beqz	a5,1c000f36 <__addsf3+0x29c>
1c000dba:	97c6                	add	a5,a5,a7
1c000dbc:	00579693          	slli	a3,a5,0x5
1c000dc0:	f806dce3          	bgez	a3,1c000d58 <__addsf3+0xbe>
1c000dc4:	c1a7b7b3          	p.bclr	a5,a5,0,26
1c000dc8:	4705                	li	a4,1
1c000dca:	b779                	j	1c000d58 <__addsf3+0xbe>
1c000dcc:	f2088ee3          	beqz	a7,1c000d08 <__addsf3+0x6e>
1c000dd0:	10079263          	bnez	a5,1c000ed4 <__addsf3+0x23a>
1c000dd4:	bf0d                	j	1c000d06 <__addsf3+0x6c>
1c000dd6:	0ff00693          	li	a3,255
1c000dda:	16d70063          	beq	a4,a3,1c000f3a <__addsf3+0x2a0>
1c000dde:	82f8a7db          	p.addun	a5,a7,a5,1
1c000de2:	bf9d                	j	1c000d58 <__addsf3+0xbe>
1c000de4:	04d05e63          	blez	a3,1c000e40 <__addsf3+0x1a6>
1c000de8:	eb0d                	bnez	a4,1c000e1a <__addsf3+0x180>
1c000dea:	ec078de3          	beqz	a5,1c000cc4 <__addsf3+0x2a>
1c000dee:	16fd                	addi	a3,a3,-1
1c000df0:	ee81                	bnez	a3,1c000e08 <__addsf3+0x16e>
1c000df2:	40f887b3          	sub	a5,a7,a5
1c000df6:	8732                	mv	a4,a2
1c000df8:	00579693          	slli	a3,a5,0x5
1c000dfc:	f406dee3          	bgez	a3,1c000d58 <__addsf3+0xbe>
1c000e00:	cba7b833          	p.bclr	a6,a5,5,26
1c000e04:	863a                	mv	a2,a4
1c000e06:	a0f5                	j	1c000ef2 <__addsf3+0x258>
1c000e08:	0ff00713          	li	a4,255
1c000e0c:	eee60de3          	beq	a2,a4,1c000d06 <__addsf3+0x6c>
1c000e10:	476d                	li	a4,27
1c000e12:	00d75b63          	ble	a3,a4,1c000e28 <__addsf3+0x18e>
1c000e16:	4785                	li	a5,1
1c000e18:	bfe9                	j	1c000df2 <__addsf3+0x158>
1c000e1a:	0ff00713          	li	a4,255
1c000e1e:	eee604e3          	beq	a2,a4,1c000d06 <__addsf3+0x6c>
1c000e22:	c1a7c7b3          	p.bset	a5,a5,0,26
1c000e26:	b7ed                	j	1c000e10 <__addsf3+0x176>
1c000e28:	02000713          	li	a4,32
1c000e2c:	00d7d5b3          	srl	a1,a5,a3
1c000e30:	40d706b3          	sub	a3,a4,a3
1c000e34:	00d797b3          	sll	a5,a5,a3
1c000e38:	00f037b3          	snez	a5,a5
1c000e3c:	8fcd                	or	a5,a5,a1
1c000e3e:	bf55                	j	1c000df2 <__addsf3+0x158>
1c000e40:	cea9                	beqz	a3,1c000e9a <__addsf3+0x200>
1c000e42:	e60d                	bnez	a2,1c000e6c <__addsf3+0x1d2>
1c000e44:	832e                	mv	t1,a1
1c000e46:	f00889e3          	beqz	a7,1c000d58 <__addsf3+0xbe>
1c000e4a:	01f6b663          	p.bneimm	a3,-1,1c000e56 <__addsf3+0x1bc>
1c000e4e:	411787b3          	sub	a5,a5,a7
1c000e52:	832e                	mv	t1,a1
1c000e54:	b755                	j	1c000df8 <__addsf3+0x15e>
1c000e56:	0ff00613          	li	a2,255
1c000e5a:	fff6c693          	not	a3,a3
1c000e5e:	eec70de3          	beq	a4,a2,1c000d58 <__addsf3+0xbe>
1c000e62:	466d                	li	a2,27
1c000e64:	00d65e63          	ble	a3,a2,1c000e80 <__addsf3+0x1e6>
1c000e68:	4885                	li	a7,1
1c000e6a:	b7d5                	j	1c000e4e <__addsf3+0x1b4>
1c000e6c:	0ff00613          	li	a2,255
1c000e70:	832e                	mv	t1,a1
1c000e72:	eec703e3          	beq	a4,a2,1c000d58 <__addsf3+0xbe>
1c000e76:	40d006b3          	neg	a3,a3
1c000e7a:	c1a8c8b3          	p.bset	a7,a7,0,26
1c000e7e:	b7d5                	j	1c000e62 <__addsf3+0x1c8>
1c000e80:	02000613          	li	a2,32
1c000e84:	00d8d533          	srl	a0,a7,a3
1c000e88:	40d606b3          	sub	a3,a2,a3
1c000e8c:	00d898b3          	sll	a7,a7,a3
1c000e90:	011038b3          	snez	a7,a7
1c000e94:	011568b3          	or	a7,a0,a7
1c000e98:	bf5d                	j	1c000e4e <__addsf3+0x1b4>
1c000e9a:	00160713          	addi	a4,a2,1
1c000e9e:	ee873733          	p.bclr	a4,a4,23,8
1c000ea2:	4685                	li	a3,1
1c000ea4:	02e6ce63          	blt	a3,a4,1c000ee0 <__addsf3+0x246>
1c000ea8:	e21d                	bnez	a2,1c000ece <__addsf3+0x234>
1c000eaa:	00089563          	bnez	a7,1c000eb4 <__addsf3+0x21a>
1c000eae:	e3f9                	bnez	a5,1c000f74 <__addsf3+0x2da>
1c000eb0:	4701                	li	a4,0
1c000eb2:	a02d                	j	1c000edc <__addsf3+0x242>
1c000eb4:	c3f1                	beqz	a5,1c000f78 <__addsf3+0x2de>
1c000eb6:	40f88733          	sub	a4,a7,a5
1c000eba:	00571693          	slli	a3,a4,0x5
1c000ebe:	411787b3          	sub	a5,a5,a7
1c000ec2:	0a06c963          	bltz	a3,1c000f74 <__addsf3+0x2da>
1c000ec6:	87ba                	mv	a5,a4
1c000ec8:	ef29                	bnez	a4,1c000f22 <__addsf3+0x288>
1c000eca:	4781                	li	a5,0
1c000ecc:	b7d5                	j	1c000eb0 <__addsf3+0x216>
1c000ece:	f00891e3          	bnez	a7,1c000dd0 <__addsf3+0x136>
1c000ed2:	e7cd                	bnez	a5,1c000f7c <__addsf3+0x2e2>
1c000ed4:	020007b7          	lui	a5,0x2000
1c000ed8:	0ff00713          	li	a4,255
1c000edc:	4301                	li	t1,0
1c000ede:	a8b9                	j	1c000f3c <__addsf3+0x2a2>
1c000ee0:	40f88833          	sub	a6,a7,a5
1c000ee4:	00581713          	slli	a4,a6,0x5
1c000ee8:	02075f63          	bgez	a4,1c000f26 <__addsf3+0x28c>
1c000eec:	41178833          	sub	a6,a5,a7
1c000ef0:	832e                	mv	t1,a1
1c000ef2:	10081733          	p.fl1	a4,a6
1c000ef6:	47fd                	li	a5,31
1c000ef8:	40e78733          	sub	a4,a5,a4
1c000efc:	176d                	addi	a4,a4,-5
1c000efe:	00e81833          	sll	a6,a6,a4
1c000f02:	02c74563          	blt	a4,a2,1c000f2c <__addsf3+0x292>
1c000f06:	8f11                	sub	a4,a4,a2
1c000f08:	0705                	addi	a4,a4,1
1c000f0a:	02000613          	li	a2,32
1c000f0e:	00e857b3          	srl	a5,a6,a4
1c000f12:	40e60733          	sub	a4,a2,a4
1c000f16:	00e81833          	sll	a6,a6,a4
1c000f1a:	01003833          	snez	a6,a6
1c000f1e:	0107e7b3          	or	a5,a5,a6
1c000f22:	4701                	li	a4,0
1c000f24:	bd15                	j	1c000d58 <__addsf3+0xbe>
1c000f26:	fa0802e3          	beqz	a6,1c000eca <__addsf3+0x230>
1c000f2a:	b7e1                	j	1c000ef2 <__addsf3+0x258>
1c000f2c:	40e60733          	sub	a4,a2,a4
1c000f30:	c1a837b3          	p.bclr	a5,a6,0,26
1c000f34:	b515                	j	1c000d58 <__addsf3+0xbe>
1c000f36:	87c6                	mv	a5,a7
1c000f38:	b505                	j	1c000d58 <__addsf3+0xbe>
1c000f3a:	4781                	li	a5,0
1c000f3c:	00579693          	slli	a3,a5,0x5
1c000f40:	0006d963          	bgez	a3,1c000f52 <__addsf3+0x2b8>
1c000f44:	0705                	addi	a4,a4,1
1c000f46:	0ff00693          	li	a3,255
1c000f4a:	02d70b63          	beq	a4,a3,1c000f80 <__addsf3+0x2e6>
1c000f4e:	c1a7b7b3          	p.bclr	a5,a5,0,26
1c000f52:	0ff00693          	li	a3,255
1c000f56:	838d                	srli	a5,a5,0x3
1c000f58:	00d71663          	bne	a4,a3,1c000f64 <__addsf3+0x2ca>
1c000f5c:	c781                	beqz	a5,1c000f64 <__addsf3+0x2ca>
1c000f5e:	004007b7          	lui	a5,0x400
1c000f62:	4301                	li	t1,0
1c000f64:	4501                	li	a0,0
1c000f66:	ec07a533          	p.insert	a0,a5,22,0
1c000f6a:	cf772533          	p.insert	a0,a4,7,23
1c000f6e:	c1f32533          	p.insert	a0,t1,0,31
1c000f72:	8082                	ret
1c000f74:	832e                	mv	t1,a1
1c000f76:	b775                	j	1c000f22 <__addsf3+0x288>
1c000f78:	87c6                	mv	a5,a7
1c000f7a:	b765                	j	1c000f22 <__addsf3+0x288>
1c000f7c:	832e                	mv	t1,a1
1c000f7e:	b369                	j	1c000d08 <__addsf3+0x6e>
1c000f80:	4781                	li	a5,0
1c000f82:	bfc1                	j	1c000f52 <__addsf3+0x2b8>

1c000f84 <__divsf3>:
1c000f84:	cf751633          	p.extractu	a2,a0,7,23
1c000f88:	ec051333          	p.extractu	t1,a0,22,0
1c000f8c:	817d                	srli	a0,a0,0x1f
1c000f8e:	ce39                	beqz	a2,1c000fec <__divsf3+0x68>
1c000f90:	0ff00793          	li	a5,255
1c000f94:	06f60b63          	beq	a2,a5,1c00100a <__divsf3+0x86>
1c000f98:	030e                	slli	t1,t1,0x3
1c000f9a:	c1a34333          	p.bset	t1,t1,0,26
1c000f9e:	f8160613          	addi	a2,a2,-127
1c000fa2:	4681                	li	a3,0
1c000fa4:	cf759733          	p.extractu	a4,a1,7,23
1c000fa8:	ec0597b3          	p.extractu	a5,a1,22,0
1c000fac:	81fd                	srli	a1,a1,0x1f
1c000fae:	cb25                	beqz	a4,1c00101e <__divsf3+0x9a>
1c000fb0:	0ff00813          	li	a6,255
1c000fb4:	09070463          	beq	a4,a6,1c00103c <__divsf3+0xb8>
1c000fb8:	078e                	slli	a5,a5,0x3
1c000fba:	c1a7c7b3          	p.bset	a5,a5,0,26
1c000fbe:	f8170713          	addi	a4,a4,-127 # ff81 <__rt_stack_size+0xf781>
1c000fc2:	4801                	li	a6,0
1c000fc4:	40e60e33          	sub	t3,a2,a4
1c000fc8:	00269713          	slli	a4,a3,0x2
1c000fcc:	01076733          	or	a4,a4,a6
1c000fd0:	177d                	addi	a4,a4,-1
1c000fd2:	4639                	li	a2,14
1c000fd4:	00b548b3          	xor	a7,a0,a1
1c000fd8:	06e66b63          	bltu	a2,a4,1c00104e <__divsf3+0xca>
1c000fdc:	1c005637          	lui	a2,0x1c005
1c000fe0:	070a                	slli	a4,a4,0x2
1c000fe2:	60460613          	addi	a2,a2,1540 # 1c005604 <__DTOR_END__>
1c000fe6:	20e67703          	p.lw	a4,a4(a2)
1c000fea:	8702                	jr	a4
1c000fec:	02030663          	beqz	t1,1c001018 <__divsf3+0x94>
1c000ff0:	10031733          	p.fl1	a4,t1
1c000ff4:	47fd                	li	a5,31
1c000ff6:	40e78733          	sub	a4,a5,a4
1c000ffa:	ffb70793          	addi	a5,a4,-5
1c000ffe:	f8a00613          	li	a2,-118
1c001002:	00f31333          	sll	t1,t1,a5
1c001006:	8e19                	sub	a2,a2,a4
1c001008:	bf69                	j	1c000fa2 <__divsf3+0x1e>
1c00100a:	0ff00613          	li	a2,255
1c00100e:	4689                	li	a3,2
1c001010:	f8030ae3          	beqz	t1,1c000fa4 <__divsf3+0x20>
1c001014:	468d                	li	a3,3
1c001016:	b779                	j	1c000fa4 <__divsf3+0x20>
1c001018:	4601                	li	a2,0
1c00101a:	4685                	li	a3,1
1c00101c:	b761                	j	1c000fa4 <__divsf3+0x20>
1c00101e:	c78d                	beqz	a5,1c001048 <__divsf3+0xc4>
1c001020:	10079833          	p.fl1	a6,a5
1c001024:	477d                	li	a4,31
1c001026:	41070833          	sub	a6,a4,a6
1c00102a:	ffb80713          	addi	a4,a6,-5
1c00102e:	00e797b3          	sll	a5,a5,a4
1c001032:	f8a00713          	li	a4,-118
1c001036:	41070733          	sub	a4,a4,a6
1c00103a:	b761                	j	1c000fc2 <__divsf3+0x3e>
1c00103c:	0ff00713          	li	a4,255
1c001040:	4809                	li	a6,2
1c001042:	d3c9                	beqz	a5,1c000fc4 <__divsf3+0x40>
1c001044:	480d                	li	a6,3
1c001046:	bfbd                	j	1c000fc4 <__divsf3+0x40>
1c001048:	4701                	li	a4,0
1c00104a:	4805                	li	a6,1
1c00104c:	bfa5                	j	1c000fc4 <__divsf3+0x40>
1c00104e:	00579813          	slli	a6,a5,0x5
1c001052:	0af37a63          	bleu	a5,t1,1c001106 <__divsf3+0x182>
1c001056:	1e7d                	addi	t3,t3,-1
1c001058:	4601                	li	a2,0
1c00105a:	01085793          	srli	a5,a6,0x10
1c00105e:	02f35eb3          	divu	t4,t1,a5
1c001062:	65c1                	lui	a1,0x10
1c001064:	15fd                	addi	a1,a1,-1
1c001066:	00b87733          	and	a4,a6,a1
1c00106a:	8241                	srli	a2,a2,0x10
1c00106c:	02f376b3          	remu	a3,t1,a5
1c001070:	8576                	mv	a0,t4
1c001072:	03d705b3          	mul	a1,a4,t4
1c001076:	06c2                	slli	a3,a3,0x10
1c001078:	8ed1                	or	a3,a3,a2
1c00107a:	00b6fc63          	bleu	a1,a3,1c001092 <__divsf3+0x10e>
1c00107e:	96c2                	add	a3,a3,a6
1c001080:	fffe8513          	addi	a0,t4,-1
1c001084:	0106e763          	bltu	a3,a6,1c001092 <__divsf3+0x10e>
1c001088:	00b6f563          	bleu	a1,a3,1c001092 <__divsf3+0x10e>
1c00108c:	ffee8513          	addi	a0,t4,-2
1c001090:	96c2                	add	a3,a3,a6
1c001092:	8e8d                	sub	a3,a3,a1
1c001094:	02f6d633          	divu	a2,a3,a5
1c001098:	02f6f6b3          	remu	a3,a3,a5
1c00109c:	87b2                	mv	a5,a2
1c00109e:	02c705b3          	mul	a1,a4,a2
1c0010a2:	01069713          	slli	a4,a3,0x10
1c0010a6:	00b77c63          	bleu	a1,a4,1c0010be <__divsf3+0x13a>
1c0010aa:	9742                	add	a4,a4,a6
1c0010ac:	fff60793          	addi	a5,a2,-1
1c0010b0:	01076763          	bltu	a4,a6,1c0010be <__divsf3+0x13a>
1c0010b4:	00b77563          	bleu	a1,a4,1c0010be <__divsf3+0x13a>
1c0010b8:	ffe60793          	addi	a5,a2,-2
1c0010bc:	9742                	add	a4,a4,a6
1c0010be:	0542                	slli	a0,a0,0x10
1c0010c0:	8f0d                	sub	a4,a4,a1
1c0010c2:	8d5d                	or	a0,a0,a5
1c0010c4:	00e03733          	snez	a4,a4
1c0010c8:	00e567b3          	or	a5,a0,a4
1c0010cc:	07fe0693          	addi	a3,t3,127
1c0010d0:	04d05e63          	blez	a3,1c00112c <__divsf3+0x1a8>
1c0010d4:	f837b733          	p.bclr	a4,a5,28,3
1c0010d8:	c711                	beqz	a4,1c0010e4 <__divsf3+0x160>
1c0010da:	f647b733          	p.bclr	a4,a5,27,4
1c0010de:	00472363          	p.beqimm	a4,4,1c0010e4 <__divsf3+0x160>
1c0010e2:	0791                	addi	a5,a5,4
1c0010e4:	00479713          	slli	a4,a5,0x4
1c0010e8:	00075663          	bgez	a4,1c0010f4 <__divsf3+0x170>
1c0010ec:	c1b7b7b3          	p.bclr	a5,a5,0,27
1c0010f0:	080e0693          	addi	a3,t3,128
1c0010f4:	0fe00713          	li	a4,254
1c0010f8:	838d                	srli	a5,a5,0x3
1c0010fa:	06d75c63          	ble	a3,a4,1c001172 <__divsf3+0x1ee>
1c0010fe:	4781                	li	a5,0
1c001100:	0ff00693          	li	a3,255
1c001104:	a0bd                	j	1c001172 <__divsf3+0x1ee>
1c001106:	01f31613          	slli	a2,t1,0x1f
1c00110a:	00135313          	srli	t1,t1,0x1
1c00110e:	b7b1                	j	1c00105a <__divsf3+0xd6>
1c001110:	88aa                	mv	a7,a0
1c001112:	879a                	mv	a5,t1
1c001114:	8836                	mv	a6,a3
1c001116:	fe2824e3          	p.beqimm	a6,2,1c0010fe <__divsf3+0x17a>
1c00111a:	04382763          	p.beqimm	a6,3,1c001168 <__divsf3+0x1e4>
1c00111e:	fa1837e3          	p.bneimm	a6,1,1c0010cc <__divsf3+0x148>
1c001122:	4781                	li	a5,0
1c001124:	4681                	li	a3,0
1c001126:	a0b1                	j	1c001172 <__divsf3+0x1ee>
1c001128:	88ae                	mv	a7,a1
1c00112a:	b7f5                	j	1c001116 <__divsf3+0x192>
1c00112c:	4705                	li	a4,1
1c00112e:	8f15                	sub	a4,a4,a3
1c001130:	46ed                	li	a3,27
1c001132:	fee6c8e3          	blt	a3,a4,1c001122 <__divsf3+0x19e>
1c001136:	09ee0613          	addi	a2,t3,158
1c00113a:	00e7d733          	srl	a4,a5,a4
1c00113e:	00c797b3          	sll	a5,a5,a2
1c001142:	00f037b3          	snez	a5,a5
1c001146:	8fd9                	or	a5,a5,a4
1c001148:	f837b733          	p.bclr	a4,a5,28,3
1c00114c:	c711                	beqz	a4,1c001158 <__divsf3+0x1d4>
1c00114e:	f647b733          	p.bclr	a4,a5,27,4
1c001152:	00472363          	p.beqimm	a4,4,1c001158 <__divsf3+0x1d4>
1c001156:	0791                	addi	a5,a5,4
1c001158:	00579713          	slli	a4,a5,0x5
1c00115c:	838d                	srli	a5,a5,0x3
1c00115e:	fc0753e3          	bgez	a4,1c001124 <__divsf3+0x1a0>
1c001162:	4781                	li	a5,0
1c001164:	4685                	li	a3,1
1c001166:	a031                	j	1c001172 <__divsf3+0x1ee>
1c001168:	004007b7          	lui	a5,0x400
1c00116c:	0ff00693          	li	a3,255
1c001170:	4881                	li	a7,0
1c001172:	4501                	li	a0,0
1c001174:	ec07a533          	p.insert	a0,a5,22,0
1c001178:	cf76a533          	p.insert	a0,a3,7,23
1c00117c:	c1f8a533          	p.insert	a0,a7,0,31
1c001180:	8082                	ret

1c001182 <__gesf2>:
1c001182:	ec051733          	p.extractu	a4,a0,22,0
1c001186:	cf7516b3          	p.extractu	a3,a0,7,23
1c00118a:	01f55793          	srli	a5,a0,0x1f
1c00118e:	0ff00513          	li	a0,255
1c001192:	ec059833          	p.extractu	a6,a1,22,0
1c001196:	cf759633          	p.extractu	a2,a1,7,23
1c00119a:	81fd                	srli	a1,a1,0x1f
1c00119c:	00a69563          	bne	a3,a0,1c0011a6 <__gesf2+0x24>
1c0011a0:	5579                	li	a0,-2
1c0011a2:	cb21                	beqz	a4,1c0011f2 <__gesf2+0x70>
1c0011a4:	8082                	ret
1c0011a6:	00a61663          	bne	a2,a0,1c0011b2 <__gesf2+0x30>
1c0011aa:	5579                	li	a0,-2
1c0011ac:	04080963          	beqz	a6,1c0011fe <__gesf2+0x7c>
1c0011b0:	8082                	ret
1c0011b2:	e2b1                	bnez	a3,1c0011f6 <__gesf2+0x74>
1c0011b4:	00173513          	seqz	a0,a4
1c0011b8:	e219                	bnez	a2,1c0011be <__gesf2+0x3c>
1c0011ba:	02080963          	beqz	a6,1c0011ec <__gesf2+0x6a>
1c0011be:	e901                	bnez	a0,1c0011ce <__gesf2+0x4c>
1c0011c0:	00b79463          	bne	a5,a1,1c0011c8 <__gesf2+0x46>
1c0011c4:	00d65863          	ble	a3,a2,1c0011d4 <__gesf2+0x52>
1c0011c8:	4505                	li	a0,1
1c0011ca:	e399                	bnez	a5,1c0011d0 <__gesf2+0x4e>
1c0011cc:	8082                	ret
1c0011ce:	fdfd                	bnez	a1,1c0011cc <__gesf2+0x4a>
1c0011d0:	557d                	li	a0,-1
1c0011d2:	8082                	ret
1c0011d4:	00c6d663          	ble	a2,a3,1c0011e0 <__gesf2+0x5e>
1c0011d8:	557d                	li	a0,-1
1c0011da:	dbed                	beqz	a5,1c0011cc <__gesf2+0x4a>
1c0011dc:	4505                	li	a0,1
1c0011de:	8082                	ret
1c0011e0:	fee864e3          	bltu	a6,a4,1c0011c8 <__gesf2+0x46>
1c0011e4:	4501                	li	a0,0
1c0011e6:	ff0769e3          	bltu	a4,a6,1c0011d8 <__gesf2+0x56>
1c0011ea:	b7cd                	j	1c0011cc <__gesf2+0x4a>
1c0011ec:	4501                	li	a0,0
1c0011ee:	df79                	beqz	a4,1c0011cc <__gesf2+0x4a>
1c0011f0:	bfe1                	j	1c0011c8 <__gesf2+0x46>
1c0011f2:	fad60ce3          	beq	a2,a3,1c0011aa <__gesf2+0x28>
1c0011f6:	f669                	bnez	a2,1c0011c0 <__gesf2+0x3e>
1c0011f8:	fc0808e3          	beqz	a6,1c0011c8 <__gesf2+0x46>
1c0011fc:	b7d1                	j	1c0011c0 <__gesf2+0x3e>
1c0011fe:	00173513          	seqz	a0,a4
1c001202:	ded5                	beqz	a3,1c0011be <__gesf2+0x3c>
1c001204:	bf75                	j	1c0011c0 <__gesf2+0x3e>

1c001206 <__lesf2>:
1c001206:	ec051733          	p.extractu	a4,a0,22,0
1c00120a:	cf7516b3          	p.extractu	a3,a0,7,23
1c00120e:	01f55793          	srli	a5,a0,0x1f
1c001212:	0ff00513          	li	a0,255
1c001216:	ec059833          	p.extractu	a6,a1,22,0
1c00121a:	cf759633          	p.extractu	a2,a1,7,23
1c00121e:	81fd                	srli	a1,a1,0x1f
1c001220:	00a69563          	bne	a3,a0,1c00122a <__lesf2+0x24>
1c001224:	4509                	li	a0,2
1c001226:	cb21                	beqz	a4,1c001276 <__lesf2+0x70>
1c001228:	8082                	ret
1c00122a:	00a61663          	bne	a2,a0,1c001236 <__lesf2+0x30>
1c00122e:	4509                	li	a0,2
1c001230:	04080963          	beqz	a6,1c001282 <__lesf2+0x7c>
1c001234:	8082                	ret
1c001236:	e2b1                	bnez	a3,1c00127a <__lesf2+0x74>
1c001238:	00173513          	seqz	a0,a4
1c00123c:	e219                	bnez	a2,1c001242 <__lesf2+0x3c>
1c00123e:	02080963          	beqz	a6,1c001270 <__lesf2+0x6a>
1c001242:	e901                	bnez	a0,1c001252 <__lesf2+0x4c>
1c001244:	00b79463          	bne	a5,a1,1c00124c <__lesf2+0x46>
1c001248:	00d65863          	ble	a3,a2,1c001258 <__lesf2+0x52>
1c00124c:	4505                	li	a0,1
1c00124e:	e399                	bnez	a5,1c001254 <__lesf2+0x4e>
1c001250:	8082                	ret
1c001252:	fdfd                	bnez	a1,1c001250 <__lesf2+0x4a>
1c001254:	557d                	li	a0,-1
1c001256:	8082                	ret
1c001258:	00c6d663          	ble	a2,a3,1c001264 <__lesf2+0x5e>
1c00125c:	557d                	li	a0,-1
1c00125e:	dbed                	beqz	a5,1c001250 <__lesf2+0x4a>
1c001260:	4505                	li	a0,1
1c001262:	8082                	ret
1c001264:	fee864e3          	bltu	a6,a4,1c00124c <__lesf2+0x46>
1c001268:	4501                	li	a0,0
1c00126a:	ff0769e3          	bltu	a4,a6,1c00125c <__lesf2+0x56>
1c00126e:	b7cd                	j	1c001250 <__lesf2+0x4a>
1c001270:	4501                	li	a0,0
1c001272:	df79                	beqz	a4,1c001250 <__lesf2+0x4a>
1c001274:	bfe1                	j	1c00124c <__lesf2+0x46>
1c001276:	fad60ce3          	beq	a2,a3,1c00122e <__lesf2+0x28>
1c00127a:	f669                	bnez	a2,1c001244 <__lesf2+0x3e>
1c00127c:	fc0808e3          	beqz	a6,1c00124c <__lesf2+0x46>
1c001280:	b7d1                	j	1c001244 <__lesf2+0x3e>
1c001282:	00173513          	seqz	a0,a4
1c001286:	ded5                	beqz	a3,1c001242 <__lesf2+0x3c>
1c001288:	bf75                	j	1c001244 <__lesf2+0x3e>

1c00128a <__mulsf3>:
1c00128a:	cf751633          	p.extractu	a2,a0,7,23
1c00128e:	ec051733          	p.extractu	a4,a0,22,0
1c001292:	817d                	srli	a0,a0,0x1f
1c001294:	c225                	beqz	a2,1c0012f4 <__mulsf3+0x6a>
1c001296:	0ff00793          	li	a5,255
1c00129a:	06f60b63          	beq	a2,a5,1c001310 <__mulsf3+0x86>
1c00129e:	070e                	slli	a4,a4,0x3
1c0012a0:	c1a74733          	p.bset	a4,a4,0,26
1c0012a4:	f8160613          	addi	a2,a2,-127
1c0012a8:	4301                	li	t1,0
1c0012aa:	cf7596b3          	p.extractu	a3,a1,7,23
1c0012ae:	ec0597b3          	p.extractu	a5,a1,22,0
1c0012b2:	81fd                	srli	a1,a1,0x1f
1c0012b4:	c6bd                	beqz	a3,1c001322 <__mulsf3+0x98>
1c0012b6:	0ff00813          	li	a6,255
1c0012ba:	09068363          	beq	a3,a6,1c001340 <__mulsf3+0xb6>
1c0012be:	078e                	slli	a5,a5,0x3
1c0012c0:	c1a7c7b3          	p.bset	a5,a5,0,26
1c0012c4:	f8168693          	addi	a3,a3,-127 # 7dffff81 <__l2_end+0x61ff1fbd>
1c0012c8:	4801                	li	a6,0
1c0012ca:	96b2                	add	a3,a3,a2
1c0012cc:	00231613          	slli	a2,t1,0x2
1c0012d0:	01066633          	or	a2,a2,a6
1c0012d4:	167d                	addi	a2,a2,-1
1c0012d6:	4eb9                	li	t4,14
1c0012d8:	00b548b3          	xor	a7,a0,a1
1c0012dc:	00168e13          	addi	t3,a3,1
1c0012e0:	06cee963          	bltu	t4,a2,1c001352 <__mulsf3+0xc8>
1c0012e4:	1c0056b7          	lui	a3,0x1c005
1c0012e8:	060a                	slli	a2,a2,0x2
1c0012ea:	64068693          	addi	a3,a3,1600 # 1c005640 <__DTOR_END__+0x3c>
1c0012ee:	20c6f603          	p.lw	a2,a2(a3)
1c0012f2:	8602                	jr	a2
1c0012f4:	c705                	beqz	a4,1c00131c <__mulsf3+0x92>
1c0012f6:	100716b3          	p.fl1	a3,a4
1c0012fa:	47fd                	li	a5,31
1c0012fc:	40d786b3          	sub	a3,a5,a3
1c001300:	ffb68793          	addi	a5,a3,-5
1c001304:	f8a00613          	li	a2,-118
1c001308:	00f71733          	sll	a4,a4,a5
1c00130c:	8e15                	sub	a2,a2,a3
1c00130e:	bf69                	j	1c0012a8 <__mulsf3+0x1e>
1c001310:	0ff00613          	li	a2,255
1c001314:	4309                	li	t1,2
1c001316:	db51                	beqz	a4,1c0012aa <__mulsf3+0x20>
1c001318:	430d                	li	t1,3
1c00131a:	bf41                	j	1c0012aa <__mulsf3+0x20>
1c00131c:	4601                	li	a2,0
1c00131e:	4305                	li	t1,1
1c001320:	b769                	j	1c0012aa <__mulsf3+0x20>
1c001322:	c78d                	beqz	a5,1c00134c <__mulsf3+0xc2>
1c001324:	10079833          	p.fl1	a6,a5
1c001328:	46fd                	li	a3,31
1c00132a:	41068833          	sub	a6,a3,a6
1c00132e:	ffb80693          	addi	a3,a6,-5
1c001332:	00d797b3          	sll	a5,a5,a3
1c001336:	f8a00693          	li	a3,-118
1c00133a:	410686b3          	sub	a3,a3,a6
1c00133e:	b769                	j	1c0012c8 <__mulsf3+0x3e>
1c001340:	0ff00693          	li	a3,255
1c001344:	4809                	li	a6,2
1c001346:	d3d1                	beqz	a5,1c0012ca <__mulsf3+0x40>
1c001348:	480d                	li	a6,3
1c00134a:	b741                	j	1c0012ca <__mulsf3+0x40>
1c00134c:	4681                	li	a3,0
1c00134e:	4805                	li	a6,1
1c001350:	bfad                	j	1c0012ca <__mulsf3+0x40>
1c001352:	6641                	lui	a2,0x10
1c001354:	fff60313          	addi	t1,a2,-1 # ffff <__l1_heap_size+0x1f>
1c001358:	01075593          	srli	a1,a4,0x10
1c00135c:	0107de93          	srli	t4,a5,0x10
1c001360:	0067f7b3          	and	a5,a5,t1
1c001364:	02f58533          	mul	a0,a1,a5
1c001368:	00677733          	and	a4,a4,t1
1c00136c:	02f70833          	mul	a6,a4,a5
1c001370:	03d587b3          	mul	a5,a1,t4
1c001374:	85aa                	mv	a1,a0
1c001376:	42ee85b3          	p.mac	a1,t4,a4
1c00137a:	01085713          	srli	a4,a6,0x10
1c00137e:	972e                	add	a4,a4,a1
1c001380:	00a77363          	bleu	a0,a4,1c001386 <__mulsf3+0xfc>
1c001384:	97b2                	add	a5,a5,a2
1c001386:	00677633          	and	a2,a4,t1
1c00138a:	0642                	slli	a2,a2,0x10
1c00138c:	00687833          	and	a6,a6,t1
1c001390:	9642                	add	a2,a2,a6
1c001392:	00661593          	slli	a1,a2,0x6
1c001396:	8341                	srli	a4,a4,0x10
1c001398:	97ba                	add	a5,a5,a4
1c00139a:	00b035b3          	snez	a1,a1
1c00139e:	8269                	srli	a2,a2,0x1a
1c0013a0:	8e4d                	or	a2,a2,a1
1c0013a2:	079a                	slli	a5,a5,0x6
1c0013a4:	8fd1                	or	a5,a5,a2
1c0013a6:	00479713          	slli	a4,a5,0x4
1c0013aa:	06075763          	bgez	a4,1c001418 <__mulsf3+0x18e>
1c0013ae:	0017d713          	srli	a4,a5,0x1
1c0013b2:	fc17b7b3          	p.bclr	a5,a5,30,1
1c0013b6:	8fd9                	or	a5,a5,a4
1c0013b8:	07fe0693          	addi	a3,t3,127
1c0013bc:	06d05063          	blez	a3,1c00141c <__mulsf3+0x192>
1c0013c0:	f837b733          	p.bclr	a4,a5,28,3
1c0013c4:	c711                	beqz	a4,1c0013d0 <__mulsf3+0x146>
1c0013c6:	f647b733          	p.bclr	a4,a5,27,4
1c0013ca:	00472363          	p.beqimm	a4,4,1c0013d0 <__mulsf3+0x146>
1c0013ce:	0791                	addi	a5,a5,4
1c0013d0:	00479713          	slli	a4,a5,0x4
1c0013d4:	00075663          	bgez	a4,1c0013e0 <__mulsf3+0x156>
1c0013d8:	c1b7b7b3          	p.bclr	a5,a5,0,27
1c0013dc:	080e0693          	addi	a3,t3,128
1c0013e0:	0fe00713          	li	a4,254
1c0013e4:	08d74063          	blt	a4,a3,1c001464 <__mulsf3+0x1da>
1c0013e8:	0037d713          	srli	a4,a5,0x3
1c0013ec:	a821                	j	1c001404 <__mulsf3+0x17a>
1c0013ee:	88aa                	mv	a7,a0
1c0013f0:	87ba                	mv	a5,a4
1c0013f2:	881a                	mv	a6,t1
1c0013f4:	06282863          	p.beqimm	a6,2,1c001464 <__mulsf3+0x1da>
1c0013f8:	06382063          	p.beqimm	a6,3,1c001458 <__mulsf3+0x1ce>
1c0013fc:	4701                	li	a4,0
1c0013fe:	4681                	li	a3,0
1c001400:	fa183ce3          	p.bneimm	a6,1,1c0013b8 <__mulsf3+0x12e>
1c001404:	4501                	li	a0,0
1c001406:	ec072533          	p.insert	a0,a4,22,0
1c00140a:	cf76a533          	p.insert	a0,a3,7,23
1c00140e:	c1f8a533          	p.insert	a0,a7,0,31
1c001412:	8082                	ret
1c001414:	88ae                	mv	a7,a1
1c001416:	bff9                	j	1c0013f4 <__mulsf3+0x16a>
1c001418:	8e36                	mv	t3,a3
1c00141a:	bf79                	j	1c0013b8 <__mulsf3+0x12e>
1c00141c:	4705                	li	a4,1
1c00141e:	8f15                	sub	a4,a4,a3
1c001420:	46ed                	li	a3,27
1c001422:	04e6c563          	blt	a3,a4,1c00146c <__mulsf3+0x1e2>
1c001426:	09ee0e13          	addi	t3,t3,158
1c00142a:	00e7d733          	srl	a4,a5,a4
1c00142e:	01c797b3          	sll	a5,a5,t3
1c001432:	00f037b3          	snez	a5,a5
1c001436:	8fd9                	or	a5,a5,a4
1c001438:	f837b733          	p.bclr	a4,a5,28,3
1c00143c:	c711                	beqz	a4,1c001448 <__mulsf3+0x1be>
1c00143e:	f647b733          	p.bclr	a4,a5,27,4
1c001442:	00472363          	p.beqimm	a4,4,1c001448 <__mulsf3+0x1be>
1c001446:	0791                	addi	a5,a5,4
1c001448:	00579713          	slli	a4,a5,0x5
1c00144c:	02074263          	bltz	a4,1c001470 <__mulsf3+0x1e6>
1c001450:	0037d713          	srli	a4,a5,0x3
1c001454:	4681                	li	a3,0
1c001456:	b77d                	j	1c001404 <__mulsf3+0x17a>
1c001458:	00400737          	lui	a4,0x400
1c00145c:	0ff00693          	li	a3,255
1c001460:	4881                	li	a7,0
1c001462:	b74d                	j	1c001404 <__mulsf3+0x17a>
1c001464:	4701                	li	a4,0
1c001466:	0ff00693          	li	a3,255
1c00146a:	bf69                	j	1c001404 <__mulsf3+0x17a>
1c00146c:	4701                	li	a4,0
1c00146e:	b7dd                	j	1c001454 <__mulsf3+0x1ca>
1c001470:	4701                	li	a4,0
1c001472:	4685                	li	a3,1
1c001474:	bf41                	j	1c001404 <__mulsf3+0x17a>

1c001476 <__subsf3>:
1c001476:	ec051833          	p.extractu	a6,a0,22,0
1c00147a:	cf751633          	p.extractu	a2,a0,7,23
1c00147e:	ec0597b3          	p.extractu	a5,a1,22,0
1c001482:	01f55893          	srli	a7,a0,0x1f
1c001486:	0ff00693          	li	a3,255
1c00148a:	cf759533          	p.extractu	a0,a1,7,23
1c00148e:	8332                	mv	t1,a2
1c001490:	080e                	slli	a6,a6,0x3
1c001492:	872a                	mv	a4,a0
1c001494:	81fd                	srli	a1,a1,0x1f
1c001496:	078e                	slli	a5,a5,0x3
1c001498:	00d51363          	bne	a0,a3,1c00149e <__subsf3+0x28>
1c00149c:	e399                	bnez	a5,1c0014a2 <__subsf3+0x2c>
1c00149e:	0015c593          	xori	a1,a1,1
1c0014a2:	40a606b3          	sub	a3,a2,a0
1c0014a6:	13159f63          	bne	a1,a7,1c0015e4 <__subsf3+0x16e>
1c0014aa:	06d05e63          	blez	a3,1c001526 <__subsf3+0xb0>
1c0014ae:	e529                	bnez	a0,1c0014f8 <__subsf3+0x82>
1c0014b0:	eb81                	bnez	a5,1c0014c0 <__subsf3+0x4a>
1c0014b2:	0ff00793          	li	a5,255
1c0014b6:	02f60f63          	beq	a2,a5,1c0014f4 <__subsf3+0x7e>
1c0014ba:	87c2                	mv	a5,a6
1c0014bc:	8732                	mv	a4,a2
1c0014be:	a8cd                	j	1c0015b0 <__subsf3+0x13a>
1c0014c0:	16fd                	addi	a3,a3,-1
1c0014c2:	e68d                	bnez	a3,1c0014ec <__subsf3+0x76>
1c0014c4:	97c2                	add	a5,a5,a6
1c0014c6:	8732                	mv	a4,a2
1c0014c8:	00579693          	slli	a3,a5,0x5
1c0014cc:	0e06d263          	bgez	a3,1c0015b0 <__subsf3+0x13a>
1c0014d0:	0705                	addi	a4,a4,1
1c0014d2:	0ff00693          	li	a3,255
1c0014d6:	24d70f63          	beq	a4,a3,1c001734 <__subsf3+0x2be>
1c0014da:	7e0006b7          	lui	a3,0x7e000
1c0014de:	fc17b633          	p.bclr	a2,a5,30,1
1c0014e2:	16fd                	addi	a3,a3,-1
1c0014e4:	8385                	srli	a5,a5,0x1
1c0014e6:	8ff5                	and	a5,a5,a3
1c0014e8:	8fd1                	or	a5,a5,a2
1c0014ea:	a0d9                	j	1c0015b0 <__subsf3+0x13a>
1c0014ec:	0ff00713          	li	a4,255
1c0014f0:	00e61a63          	bne	a2,a4,1c001504 <__subsf3+0x8e>
1c0014f4:	87c2                	mv	a5,a6
1c0014f6:	a899                	j	1c00154c <__subsf3+0xd6>
1c0014f8:	0ff00713          	li	a4,255
1c0014fc:	fee60ce3          	beq	a2,a4,1c0014f4 <__subsf3+0x7e>
1c001500:	c1a7c7b3          	p.bset	a5,a5,0,26
1c001504:	476d                	li	a4,27
1c001506:	00d75463          	ble	a3,a4,1c00150e <__subsf3+0x98>
1c00150a:	4785                	li	a5,1
1c00150c:	bf65                	j	1c0014c4 <__subsf3+0x4e>
1c00150e:	02000713          	li	a4,32
1c001512:	00d7d5b3          	srl	a1,a5,a3
1c001516:	40d706b3          	sub	a3,a4,a3
1c00151a:	00d797b3          	sll	a5,a5,a3
1c00151e:	00f037b3          	snez	a5,a5
1c001522:	8fcd                	or	a5,a5,a1
1c001524:	b745                	j	1c0014c4 <__subsf3+0x4e>
1c001526:	c2a5                	beqz	a3,1c001586 <__subsf3+0x110>
1c001528:	e60d                	bnez	a2,1c001552 <__subsf3+0xdc>
1c00152a:	00081763          	bnez	a6,1c001538 <__subsf3+0xc2>
1c00152e:	0ff00693          	li	a3,255
1c001532:	06d51f63          	bne	a0,a3,1c0015b0 <__subsf3+0x13a>
1c001536:	a819                	j	1c00154c <__subsf3+0xd6>
1c001538:	01f6b463          	p.bneimm	a3,-1,1c001540 <__subsf3+0xca>
1c00153c:	97c2                	add	a5,a5,a6
1c00153e:	b769                	j	1c0014c8 <__subsf3+0x52>
1c001540:	0ff00613          	li	a2,255
1c001544:	fff6c693          	not	a3,a3
1c001548:	00c51d63          	bne	a0,a2,1c001562 <__subsf3+0xec>
1c00154c:	0ff00713          	li	a4,255
1c001550:	a085                	j	1c0015b0 <__subsf3+0x13a>
1c001552:	0ff00613          	li	a2,255
1c001556:	fec50be3          	beq	a0,a2,1c00154c <__subsf3+0xd6>
1c00155a:	40d006b3          	neg	a3,a3
1c00155e:	c1a84833          	p.bset	a6,a6,0,26
1c001562:	466d                	li	a2,27
1c001564:	00d65463          	ble	a3,a2,1c00156c <__subsf3+0xf6>
1c001568:	4805                	li	a6,1
1c00156a:	bfc9                	j	1c00153c <__subsf3+0xc6>
1c00156c:	02000613          	li	a2,32
1c001570:	00d855b3          	srl	a1,a6,a3
1c001574:	40d606b3          	sub	a3,a2,a3
1c001578:	00d81833          	sll	a6,a6,a3
1c00157c:	01003833          	snez	a6,a6
1c001580:	0105e833          	or	a6,a1,a6
1c001584:	bf65                	j	1c00153c <__subsf3+0xc6>
1c001586:	00160713          	addi	a4,a2,1
1c00158a:	ee8735b3          	p.bclr	a1,a4,23,8
1c00158e:	4685                	li	a3,1
1c001590:	04b6c363          	blt	a3,a1,1c0015d6 <__subsf3+0x160>
1c001594:	ea05                	bnez	a2,1c0015c4 <__subsf3+0x14e>
1c001596:	4701                	li	a4,0
1c001598:	00080c63          	beqz	a6,1c0015b0 <__subsf3+0x13a>
1c00159c:	18078a63          	beqz	a5,1c001730 <__subsf3+0x2ba>
1c0015a0:	97c2                	add	a5,a5,a6
1c0015a2:	00579693          	slli	a3,a5,0x5
1c0015a6:	0006d563          	bgez	a3,1c0015b0 <__subsf3+0x13a>
1c0015aa:	c1a7b7b3          	p.bclr	a5,a5,0,26
1c0015ae:	4705                	li	a4,1
1c0015b0:	f837b6b3          	p.bclr	a3,a5,28,3
1c0015b4:	18068163          	beqz	a3,1c001736 <__subsf3+0x2c0>
1c0015b8:	f647b6b3          	p.bclr	a3,a5,27,4
1c0015bc:	1646ad63          	p.beqimm	a3,4,1c001736 <__subsf3+0x2c0>
1c0015c0:	0791                	addi	a5,a5,4
1c0015c2:	aa95                	j	1c001736 <__subsf3+0x2c0>
1c0015c4:	f80804e3          	beqz	a6,1c00154c <__subsf3+0xd6>
1c0015c8:	d795                	beqz	a5,1c0014f4 <__subsf3+0x7e>
1c0015ca:	020007b7          	lui	a5,0x2000
1c0015ce:	0ff00713          	li	a4,255
1c0015d2:	4881                	li	a7,0
1c0015d4:	a28d                	j	1c001736 <__subsf3+0x2c0>
1c0015d6:	0ff00693          	li	a3,255
1c0015da:	14d70d63          	beq	a4,a3,1c001734 <__subsf3+0x2be>
1c0015de:	82f827db          	p.addun	a5,a6,a5,1
1c0015e2:	b7f9                	j	1c0015b0 <__subsf3+0x13a>
1c0015e4:	04d05e63          	blez	a3,1c001640 <__subsf3+0x1ca>
1c0015e8:	e90d                	bnez	a0,1c00161a <__subsf3+0x1a4>
1c0015ea:	ec0784e3          	beqz	a5,1c0014b2 <__subsf3+0x3c>
1c0015ee:	16fd                	addi	a3,a3,-1
1c0015f0:	ee81                	bnez	a3,1c001608 <__subsf3+0x192>
1c0015f2:	40f807b3          	sub	a5,a6,a5
1c0015f6:	8732                	mv	a4,a2
1c0015f8:	00579693          	slli	a3,a5,0x5
1c0015fc:	fa06dae3          	bgez	a3,1c0015b0 <__subsf3+0x13a>
1c001600:	cba7b633          	p.bclr	a2,a5,5,26
1c001604:	833a                	mv	t1,a4
1c001606:	a0e5                	j	1c0016ee <__subsf3+0x278>
1c001608:	0ff00713          	li	a4,255
1c00160c:	eee604e3          	beq	a2,a4,1c0014f4 <__subsf3+0x7e>
1c001610:	476d                	li	a4,27
1c001612:	00d75b63          	ble	a3,a4,1c001628 <__subsf3+0x1b2>
1c001616:	4785                	li	a5,1
1c001618:	bfe9                	j	1c0015f2 <__subsf3+0x17c>
1c00161a:	0ff00713          	li	a4,255
1c00161e:	ece60be3          	beq	a2,a4,1c0014f4 <__subsf3+0x7e>
1c001622:	c1a7c7b3          	p.bset	a5,a5,0,26
1c001626:	b7ed                	j	1c001610 <__subsf3+0x19a>
1c001628:	02000713          	li	a4,32
1c00162c:	00d7d5b3          	srl	a1,a5,a3
1c001630:	40d706b3          	sub	a3,a4,a3
1c001634:	00d797b3          	sll	a5,a5,a3
1c001638:	00f037b3          	snez	a5,a5
1c00163c:	8fcd                	or	a5,a5,a1
1c00163e:	bf55                	j	1c0015f2 <__subsf3+0x17c>
1c001640:	c2a5                	beqz	a3,1c0016a0 <__subsf3+0x22a>
1c001642:	e60d                	bnez	a2,1c00166c <__subsf3+0x1f6>
1c001644:	00081663          	bnez	a6,1c001650 <__subsf3+0x1da>
1c001648:	0ff00693          	li	a3,255
1c00164c:	88ae                	mv	a7,a1
1c00164e:	b5d5                	j	1c001532 <__subsf3+0xbc>
1c001650:	01f6b663          	p.bneimm	a3,-1,1c00165c <__subsf3+0x1e6>
1c001654:	410787b3          	sub	a5,a5,a6
1c001658:	88ae                	mv	a7,a1
1c00165a:	bf79                	j	1c0015f8 <__subsf3+0x182>
1c00165c:	0ff00613          	li	a2,255
1c001660:	fff6c693          	not	a3,a3
1c001664:	00c51c63          	bne	a0,a2,1c00167c <__subsf3+0x206>
1c001668:	88ae                	mv	a7,a1
1c00166a:	b5cd                	j	1c00154c <__subsf3+0xd6>
1c00166c:	0ff00613          	li	a2,255
1c001670:	fec50ce3          	beq	a0,a2,1c001668 <__subsf3+0x1f2>
1c001674:	40d006b3          	neg	a3,a3
1c001678:	c1a84833          	p.bset	a6,a6,0,26
1c00167c:	466d                	li	a2,27
1c00167e:	00d65463          	ble	a3,a2,1c001686 <__subsf3+0x210>
1c001682:	4805                	li	a6,1
1c001684:	bfc1                	j	1c001654 <__subsf3+0x1de>
1c001686:	02000613          	li	a2,32
1c00168a:	00d85533          	srl	a0,a6,a3
1c00168e:	40d606b3          	sub	a3,a2,a3
1c001692:	00d81833          	sll	a6,a6,a3
1c001696:	01003833          	snez	a6,a6
1c00169a:	01056833          	or	a6,a0,a6
1c00169e:	bf5d                	j	1c001654 <__subsf3+0x1de>
1c0016a0:	00160713          	addi	a4,a2,1
1c0016a4:	ee873733          	p.bclr	a4,a4,23,8
1c0016a8:	4685                	li	a3,1
1c0016aa:	02e6c963          	blt	a3,a4,1c0016dc <__subsf3+0x266>
1c0016ae:	e21d                	bnez	a2,1c0016d4 <__subsf3+0x25e>
1c0016b0:	00081563          	bnez	a6,1c0016ba <__subsf3+0x244>
1c0016b4:	efcd                	bnez	a5,1c00176e <__subsf3+0x2f8>
1c0016b6:	4701                	li	a4,0
1c0016b8:	bf29                	j	1c0015d2 <__subsf3+0x15c>
1c0016ba:	cfc5                	beqz	a5,1c001772 <__subsf3+0x2fc>
1c0016bc:	40f80733          	sub	a4,a6,a5
1c0016c0:	00571693          	slli	a3,a4,0x5
1c0016c4:	410787b3          	sub	a5,a5,a6
1c0016c8:	0a06c363          	bltz	a3,1c00176e <__subsf3+0x2f8>
1c0016cc:	87ba                	mv	a5,a4
1c0016ce:	eb21                	bnez	a4,1c00171e <__subsf3+0x2a8>
1c0016d0:	4781                	li	a5,0
1c0016d2:	b7d5                	j	1c0016b6 <__subsf3+0x240>
1c0016d4:	ee081ae3          	bnez	a6,1c0015c8 <__subsf3+0x152>
1c0016d8:	fbc1                	bnez	a5,1c001668 <__subsf3+0x1f2>
1c0016da:	bdc5                	j	1c0015ca <__subsf3+0x154>
1c0016dc:	40f80633          	sub	a2,a6,a5
1c0016e0:	00561713          	slli	a4,a2,0x5
1c0016e4:	02075f63          	bgez	a4,1c001722 <__subsf3+0x2ac>
1c0016e8:	41078633          	sub	a2,a5,a6
1c0016ec:	88ae                	mv	a7,a1
1c0016ee:	10061733          	p.fl1	a4,a2
1c0016f2:	47fd                	li	a5,31
1c0016f4:	40e78733          	sub	a4,a5,a4
1c0016f8:	176d                	addi	a4,a4,-5
1c0016fa:	00e61633          	sll	a2,a2,a4
1c0016fe:	02674463          	blt	a4,t1,1c001726 <__subsf3+0x2b0>
1c001702:	40670733          	sub	a4,a4,t1
1c001706:	0705                	addi	a4,a4,1
1c001708:	02000693          	li	a3,32
1c00170c:	00e657b3          	srl	a5,a2,a4
1c001710:	40e68733          	sub	a4,a3,a4
1c001714:	00e61633          	sll	a2,a2,a4
1c001718:	00c03633          	snez	a2,a2
1c00171c:	8fd1                	or	a5,a5,a2
1c00171e:	4701                	li	a4,0
1c001720:	bd41                	j	1c0015b0 <__subsf3+0x13a>
1c001722:	d65d                	beqz	a2,1c0016d0 <__subsf3+0x25a>
1c001724:	b7e9                	j	1c0016ee <__subsf3+0x278>
1c001726:	40e30733          	sub	a4,t1,a4
1c00172a:	c1a637b3          	p.bclr	a5,a2,0,26
1c00172e:	b549                	j	1c0015b0 <__subsf3+0x13a>
1c001730:	87c2                	mv	a5,a6
1c001732:	bdbd                	j	1c0015b0 <__subsf3+0x13a>
1c001734:	4781                	li	a5,0
1c001736:	00579693          	slli	a3,a5,0x5
1c00173a:	0006d963          	bgez	a3,1c00174c <__subsf3+0x2d6>
1c00173e:	0705                	addi	a4,a4,1
1c001740:	0ff00693          	li	a3,255
1c001744:	02d70963          	beq	a4,a3,1c001776 <__subsf3+0x300>
1c001748:	c1a7b7b3          	p.bclr	a5,a5,0,26
1c00174c:	0ff00693          	li	a3,255
1c001750:	838d                	srli	a5,a5,0x3
1c001752:	00d71663          	bne	a4,a3,1c00175e <__subsf3+0x2e8>
1c001756:	c781                	beqz	a5,1c00175e <__subsf3+0x2e8>
1c001758:	004007b7          	lui	a5,0x400
1c00175c:	4881                	li	a7,0
1c00175e:	4501                	li	a0,0
1c001760:	ec07a533          	p.insert	a0,a5,22,0
1c001764:	cf772533          	p.insert	a0,a4,7,23
1c001768:	c1f8a533          	p.insert	a0,a7,0,31
1c00176c:	8082                	ret
1c00176e:	88ae                	mv	a7,a1
1c001770:	b77d                	j	1c00171e <__subsf3+0x2a8>
1c001772:	87c2                	mv	a5,a6
1c001774:	b76d                	j	1c00171e <__subsf3+0x2a8>
1c001776:	4781                	li	a5,0
1c001778:	bfd1                	j	1c00174c <__subsf3+0x2d6>

1c00177a <__floatunsisf>:
1c00177a:	4701                	li	a4,0
1c00177c:	c11d                	beqz	a0,1c0017a2 <__floatunsisf+0x28>
1c00177e:	477d                	li	a4,31
1c001780:	100517b3          	p.fl1	a5,a0
1c001784:	40f707b3          	sub	a5,a4,a5
1c001788:	09e00713          	li	a4,158
1c00178c:	8f1d                	sub	a4,a4,a5
1c00178e:	09600693          	li	a3,150
1c001792:	02e6c063          	blt	a3,a4,1c0017b2 <__floatunsisf+0x38>
1c001796:	46a1                	li	a3,8
1c001798:	00f6d563          	ble	a5,a3,1c0017a2 <__floatunsisf+0x28>
1c00179c:	17e1                	addi	a5,a5,-8
1c00179e:	00f51533          	sll	a0,a0,a5
1c0017a2:	4781                	li	a5,0
1c0017a4:	ec0527b3          	p.insert	a5,a0,22,0
1c0017a8:	cf7727b3          	p.insert	a5,a4,7,23
1c0017ac:	c1f7b533          	p.bclr	a0,a5,0,31
1c0017b0:	8082                	ret
1c0017b2:	09900693          	li	a3,153
1c0017b6:	00e6dd63          	ble	a4,a3,1c0017d0 <__floatunsisf+0x56>
1c0017ba:	01b78693          	addi	a3,a5,27 # 40001b <__L2+0x38001b>
1c0017be:	4615                	li	a2,5
1c0017c0:	00d516b3          	sll	a3,a0,a3
1c0017c4:	8e1d                	sub	a2,a2,a5
1c0017c6:	00d036b3          	snez	a3,a3
1c0017ca:	00c55533          	srl	a0,a0,a2
1c0017ce:	8d55                	or	a0,a0,a3
1c0017d0:	4695                	li	a3,5
1c0017d2:	00f6d663          	ble	a5,a3,1c0017de <__floatunsisf+0x64>
1c0017d6:	ffb78693          	addi	a3,a5,-5
1c0017da:	00d51533          	sll	a0,a0,a3
1c0017de:	f8353633          	p.bclr	a2,a0,28,3
1c0017e2:	c1a536b3          	p.bclr	a3,a0,0,26
1c0017e6:	c611                	beqz	a2,1c0017f2 <__floatunsisf+0x78>
1c0017e8:	f6453533          	p.bclr	a0,a0,27,4
1c0017ec:	00452363          	p.beqimm	a0,4,1c0017f2 <__floatunsisf+0x78>
1c0017f0:	0691                	addi	a3,a3,4
1c0017f2:	00569613          	slli	a2,a3,0x5
1c0017f6:	00065763          	bgez	a2,1c001804 <__floatunsisf+0x8a>
1c0017fa:	09f00713          	li	a4,159
1c0017fe:	c1a6b6b3          	p.bclr	a3,a3,0,26
1c001802:	8f1d                	sub	a4,a4,a5
1c001804:	0036d513          	srli	a0,a3,0x3
1c001808:	bf69                	j	1c0017a2 <__floatunsisf+0x28>

1c00180a <__extendsfdf2>:
1c00180a:	cf7516b3          	p.extractu	a3,a0,7,23
1c00180e:	00168793          	addi	a5,a3,1 # 7e000001 <__l2_end+0x61ff203d>
1c001812:	ee87b7b3          	p.bclr	a5,a5,23,8
1c001816:	4605                	li	a2,1
1c001818:	ec051733          	p.extractu	a4,a0,22,0
1c00181c:	817d                	srli	a0,a0,0x1f
1c00181e:	02f65163          	ble	a5,a2,1c001840 <__extendsfdf2+0x36>
1c001822:	00375793          	srli	a5,a4,0x3
1c001826:	38068693          	addi	a3,a3,896
1c00182a:	0776                	slli	a4,a4,0x1d
1c00182c:	4601                	li	a2,0
1c00182e:	e607a633          	p.insert	a2,a5,19,0
1c001832:	d546a633          	p.insert	a2,a3,10,20
1c001836:	c1f52633          	p.insert	a2,a0,0,31
1c00183a:	85b2                	mv	a1,a2
1c00183c:	853a                	mv	a0,a4
1c00183e:	8082                	ret
1c001840:	ee85                	bnez	a3,1c001878 <__extendsfdf2+0x6e>
1c001842:	c729                	beqz	a4,1c00188c <__extendsfdf2+0x82>
1c001844:	47fd                	li	a5,31
1c001846:	10071633          	p.fl1	a2,a4
1c00184a:	40c78633          	sub	a2,a5,a2
1c00184e:	47a9                	li	a5,10
1c001850:	00c7ce63          	blt	a5,a2,1c00186c <__extendsfdf2+0x62>
1c001854:	47ad                	li	a5,11
1c001856:	8f91                	sub	a5,a5,a2
1c001858:	01560693          	addi	a3,a2,21
1c00185c:	00f757b3          	srl	a5,a4,a5
1c001860:	00d71733          	sll	a4,a4,a3
1c001864:	38900693          	li	a3,905
1c001868:	8e91                	sub	a3,a3,a2
1c00186a:	b7c9                	j	1c00182c <__extendsfdf2+0x22>
1c00186c:	ff560793          	addi	a5,a2,-11
1c001870:	00f717b3          	sll	a5,a4,a5
1c001874:	4701                	li	a4,0
1c001876:	b7fd                	j	1c001864 <__extendsfdf2+0x5a>
1c001878:	4781                	li	a5,0
1c00187a:	c711                	beqz	a4,1c001886 <__extendsfdf2+0x7c>
1c00187c:	00375793          	srli	a5,a4,0x3
1c001880:	c137c7b3          	p.bset	a5,a5,0,19
1c001884:	0776                	slli	a4,a4,0x1d
1c001886:	7ff00693          	li	a3,2047
1c00188a:	b74d                	j	1c00182c <__extendsfdf2+0x22>
1c00188c:	4781                	li	a5,0
1c00188e:	4681                	li	a3,0
1c001890:	bf71                	j	1c00182c <__extendsfdf2+0x22>

1c001892 <cluster_entry>:

void cluster_fn();

// Cluster entry point
static void cluster_entry(void *arg)
{
1c001892:	1141                	addi	sp,sp,-16
1c001894:	c422                	sw	s0,8(sp)
#endif
}

static inline void eu_dispatch_team_config(unsigned value)
{
  IP_WRITE(ARCHI_EU_DEMUX_ADDR, EU_DISPATCH_DEMUX_OFFSET + EU_DISPATCH_TEAM_CONFIG, value);
1c001896:	4785                	li	a5,1
1c001898:	00204437          	lui	s0,0x204
1c00189c:	c606                	sw	ra,12(sp)
1c00189e:	08f42223          	sw	a5,132(s0) # 204084 <__L2+0x184084>
  IP_WRITE(barAddr, EU_HW_BARR_TRIGGER_MASK, coreMask);
1c0018a2:	20040413          	addi	s0,s0,512
1c0018a6:	00f42023          	sw	a5,0(s0)
  IP_WRITE(barAddr, EU_HW_BARR_TARGET_MASK, targetMask);
1c0018aa:	00f42623          	sw	a5,12(s0)
  IP_WRITE_PTR(ARCHI_EU_DEMUX_ADDR, EU_DISPATCH_DEMUX_OFFSET + EU_DISPATCH_FIFO_ACCESS, value);
1c0018ae:	1c0027b7          	lui	a5,0x1c002
1c0018b2:	94078793          	addi	a5,a5,-1728 # 1c001940 <cluster_fn>
1c0018b6:	00204737          	lui	a4,0x204
1c0018ba:	08f72023          	sw	a5,128(a4) # 204080 <__L2+0x184080>
1c0018be:	002047b7          	lui	a5,0x204
1c0018c2:	0807a023          	sw	zero,128(a5) # 204080 <__L2+0x184080>
#endif

  if (nb_cores) __rt_team_config(nb_cores);
  eu_dispatch_push((int)entry);
  eu_dispatch_push((int)arg);
  entry(arg);
1c0018c6:	4501                	li	a0,0
1c0018c8:	28a5                	jal	1c001940 <cluster_fn>
  value = __builtin_pulp_event_unit_read_fenced((int *)base, offset);
1c0018ca:	01c46783          	p.elw	a5,28(s0)
  pi_cl_team_fork(NUM_CORES, cluster_fn, (void *)0x0);
}
1c0018ce:	40b2                	lw	ra,12(sp)
1c0018d0:	4422                	lw	s0,8(sp)
1c0018d2:	0141                	addi	sp,sp,16
1c0018d4:	8082                	ret

1c0018d6 <main>:


int main()
{
1c0018d6:	711d                	addi	sp,sp,-96
static inline struct pi_cluster_task *pi_cluster_task(struct pi_cluster_task *task, void (*entry)(void*), void *arg)
{
    #if defined(PMSIS_DRIVERS)
    memset(task, 0, sizeof(struct pi_cluster_task));
    #endif  /* PMSIS_DRIVERS */
    task->entry = entry;
1c0018d8:	1c0027b7          	lui	a5,0x1c002
1c0018dc:	89278793          	addi	a5,a5,-1902 # 1c001892 <cluster_entry>
  // [OPTIONAL] specify the stack size for the task
  //cluster_task.stack_size = STACK_SIZE;
  //cluster_task.slave_stack_size = STACK_SIZE;

  // open the cluster
  pi_cluster_conf_init(&conf);
1c0018e0:	0068                	addi	a0,sp,12
{
1c0018e2:	ce86                	sw	ra,92(sp)
1c0018e4:	cca2                	sw	s0,88(sp)
1c0018e6:	d23e                	sw	a5,36(sp)
  struct pi_device cluster_dev = {0};
1c0018e8:	c002                	sw	zero,0(sp)
1c0018ea:	c202                	sw	zero,4(sp)
1c0018ec:	c402                	sw	zero,8(sp)
  struct pi_cluster_task cluster_task = {0};
1c0018ee:	d402                	sw	zero,40(sp)
1c0018f0:	d602                	sw	zero,44(sp)
1c0018f2:	d802                	sw	zero,48(sp)
1c0018f4:	da02                	sw	zero,52(sp)
1c0018f6:	dc02                	sw	zero,56(sp)
1c0018f8:	de02                	sw	zero,60(sp)
1c0018fa:	c082                	sw	zero,64(sp)
1c0018fc:	c282                	sw	zero,68(sp)
1c0018fe:	c482                	sw	zero,72(sp)
1c001900:	c682                	sw	zero,76(sp)
  pi_cluster_conf_init(&conf);
1c001902:	385010ef          	jal	ra,1c003486 <pi_cluster_conf_init>
  pi_open_from_conf(&cluster_dev, &conf);
1c001906:	850a                	mv	a0,sp
1c001908:	006c                	addi	a1,sp,12
1c00190a:	00d000ef          	jal	ra,1c002116 <pi_open_from_conf>
  if (pi_cluster_open(&cluster_dev))
1c00190e:	850a                	mv	a0,sp
1c001910:	37d010ef          	jal	ra,1c00348c <pi_cluster_open>
1c001914:	ed11                	bnez	a0,1c001930 <main+0x5a>
1c001916:	842a                	mv	s0,a0
    printf("ERROR: Cluster not working\n");
    return -1;
  }

  // send a task to the cluster
  pi_cluster_send_task_to_cl(&cluster_dev, &cluster_task);
1c001918:	104c                	addi	a1,sp,36
1c00191a:	850a                	mv	a0,sp
1c00191c:	73d010ef          	jal	ra,1c003858 <pi_cluster_send_task_to_cl>

  // closing the cluster
  pi_cluster_close(&cluster_dev);
1c001920:	850a                	mv	a0,sp
1c001922:	43f010ef          	jal	ra,1c003560 <pi_cluster_close>

  return 0;
 
}
1c001926:	8522                	mv	a0,s0
1c001928:	40f6                	lw	ra,92(sp)
1c00192a:	4466                	lw	s0,88(sp)
1c00192c:	6125                	addi	sp,sp,96
1c00192e:	8082                	ret
    printf("ERROR: Cluster not working\n");
1c001930:	1c005537          	lui	a0,0x1c005
1c001934:	77c50513          	addi	a0,a0,1916 # 1c00577c <__clz_tab+0x100>
1c001938:	249020ef          	jal	ra,1c004380 <puts>
    return -1;
1c00193c:	547d                	li	s0,-1
1c00193e:	b7e5                	j	1c001926 <main+0x50>

1c001940 <cluster_fn>:
  void backpropagation_Par(uint8_t * X_in, float * Y_out, float * Y_ex, float * W_wg, float * B_bs, uint32_t in, uint32_t out, float lr);
#endif



void cluster_fn() {
1c001940:	7139                	addi	sp,sp,-64

/* Configure the active events. eventMask is an OR of events got through SPR_PCER_EVENT_MASK */
static inline void cpu_perf_conf_events(unsigned int eventMask)
{
#ifndef PLP_NO_PERF_COUNTERS
  asm volatile ("csrw 0x7A0, %0" : "+r" (eventMask));
1c001942:	67e5                	lui	a5,0x19
1c001944:	de06                	sw	ra,60(sp)
1c001946:	dc22                	sw	s0,56(sp)
1c001948:	da26                	sw	s1,52(sp)
1c00194a:	d84a                	sw	s2,48(sp)
1c00194c:	d64e                	sw	s3,44(sp)
1c00194e:	d452                	sw	s4,40(sp)
1c001950:	d256                	sw	s5,36(sp)
1c001952:	d05a                	sw	s6,32(sp)
1c001954:	ce5e                	sw	s7,28(sp)
1c001956:	cc62                	sw	s8,24(sp)
1c001958:	ca66                	sw	s9,20(sp)
1c00195a:	c86a                	sw	s10,16(sp)
1c00195c:	c66e                	sw	s11,12(sp)
1c00195e:	81778793          	addi	a5,a5,-2025 # 18817 <__L1Cl+0x8817>
1c001962:	7a079073          	csrw	pcer,a5
  asm("csrr %0, 0x014" : "=r" (hart_id) : );
1c001966:	014027f3          	csrr	a5,uhartid
#endif
}

static inline void pi_perf_reset()
{
  if (hal_is_fc())
1c00196a:	02000713          	li	a4,32
  return (hart_id >> 5) & 0x3f;
1c00196e:	ca5797b3          	p.extractu	a5,a5,5,5
1c001972:	1ee78563          	beq	a5,a4,1c001b5c <cluster_fn+0x21c>

static inline uint32_t timer_start_hi_get(uint32_t base) { return ARCHI_READ(base, TIMER_START_HI_OFFSET); }
static inline void timer_start_hi_set(uint32_t base, uint32_t value) { ARCHI_WRITE(base, TIMER_START_HI_OFFSET, value); }

static inline uint32_t timer_reset_lo_get(uint32_t base) { return ARCHI_READ(base, TIMER_RESET_LO_OFFSET); }
static inline void timer_reset_lo_set(uint32_t base, uint32_t value) { ARCHI_WRITE(base, TIMER_RESET_LO_OFFSET, value); }
1c001976:	102007b7          	lui	a5,0x10200
1c00197a:	4705                	li	a4,1
1c00197c:	40078793          	addi	a5,a5,1024 # 10200400 <__l1_end+0x2003e0>
1c001980:	02e7a023          	sw	a4,32(a5)
}

/* Set all counters to the specified value */
static inline void cpu_perf_setall(unsigned int value) {
#ifndef PLP_NO_PERF_COUNTERS
  asm volatile ("csrw 0x79F, %0" :: "r" (value));
1c001984:	4781                	li	a5,0
1c001986:	79f79073          	csrw	pccr31,a5
  asm("csrr %0, 0x014" : "=r" (hart_id) : );
1c00198a:	014027f3          	csrr	a5,uhartid
#endif
}

static inline void pi_perf_start()
{
  if (hal_is_fc())
1c00198e:	02000713          	li	a4,32
  return (hart_id >> 5) & 0x3f;
1c001992:	ca5797b3          	p.extractu	a5,a5,5,5
1c001996:	1ee78563          	beq	a5,a4,1c001b80 <cluster_fn+0x240>
static inline void timer_start_lo_set(uint32_t base, uint32_t value) { ARCHI_WRITE(base, TIMER_START_LO_OFFSET, value); }
1c00199a:	102007b7          	lui	a5,0x10200
1c00199e:	4705                	li	a4,1
1c0019a0:	40078793          	addi	a5,a5,1024 # 10200400 <__l1_end+0x2003e0>
1c0019a4:	00e7ac23          	sw	a4,24(a5)
  asm volatile ("csrw 0x7A1, %0" :: "r" (confMask));
1c0019a8:	478d                	li	a5,3
1c0019aa:	7a179073          	csrw	pcmr,a5
  // workload
  #if NUM_CORES == 1

    float cost = 0.0, new_cost = 0.0;
    
    forewardProp(X_input, Y_output, W_weight, B_bias, IN, OUT);
1c0019ae:	1c006937          	lui	s2,0x1c006
1c0019b2:	cd890493          	addi	s1,s2,-808 # 1c005cd8 <B_bias>
1c0019b6:	01048413          	addi	s0,s1,16
1c0019ba:	02048993          	addi	s3,s1,32
1c0019be:	1c006a37          	lui	s4,0x1c006
1c0019c2:	4791                	li	a5,4
1c0019c4:	78000713          	li	a4,1920
1c0019c8:	cd890693          	addi	a3,s2,-808
1c0019cc:	488a0613          	addi	a2,s4,1160 # 1c006488 <W_weight>
1c0019d0:	85a2                	mv	a1,s0
1c0019d2:	854e                	mv	a0,s3
1c0019d4:	22d5                	jal	1c001bb8 <forewardProp>
    validateLayer(Y_output, Verification_Vec, OUT);
1c0019d6:	7a048593          	addi	a1,s1,1952
1c0019da:	4611                	li	a2,4
1c0019dc:	8522                	mv	a0,s0
1c0019de:	1c006b37          	lui	s6,0x1c006
1c0019e2:	2605                	jal	1c001d02 <validateLayer>
1c0019e4:	4b89                	li	s7,2
1c0019e6:	1c0064b7          	lui	s1,0x1c006
1c0019ea:	1c005db7          	lui	s11,0x1c005
1c0019ee:	cc8b0b13          	addi	s6,s6,-824 # 1c005cc8 <learningRate>
1c0019f2:	1c005d37          	lui	s10,0x1c005
    
    for(int epochs = 0; epochs<2; epochs++){
      cost = cost_func(Y_output, Y_expected, OUT);
1c0019f6:	4611                	li	a2,4
1c0019f8:	bb048593          	addi	a1,s1,-1104 # 1c005bb0 <Y_expected>
1c0019fc:	8522                	mv	a0,s0
1c0019fe:	2e6d                	jal	1c001db8 <cost_func>
1c001a00:	8c2a                	mv	s8,a0
      printf("cost: %f\n", cost);
1c001a02:	3521                	jal	1c00180a <__extendsfdf2>
1c001a04:	862a                	mv	a2,a0
1c001a06:	86ae                	mv	a3,a1
1c001a08:	798d8513          	addi	a0,s11,1944 # 1c005798 <__clz_tab+0x11c>
1c001a0c:	2e5020ef          	jal	ra,1c0044f0 <printf>
      backpropagation(X_input, Y_output, Y_expected, W_weight, B_bias, IN, OUT, learningRate);
1c001a10:	000b2883          	lw	a7,0(s6)
1c001a14:	4811                	li	a6,4
1c001a16:	78000793          	li	a5,1920
1c001a1a:	cd890713          	addi	a4,s2,-808
1c001a1e:	488a0693          	addi	a3,s4,1160
1c001a22:	bb048613          	addi	a2,s1,-1104
1c001a26:	85a2                	mv	a1,s0
1c001a28:	854e                	mv	a0,s3
1c001a2a:	2ec5                	jal	1c001e1a <backpropagation>
      forewardProp(X_input, Y_output, W_weight, B_bias, IN, OUT);
1c001a2c:	4791                	li	a5,4
1c001a2e:	78000713          	li	a4,1920
1c001a32:	cd890693          	addi	a3,s2,-808
1c001a36:	488a0613          	addi	a2,s4,1160
1c001a3a:	85a2                	mv	a1,s0
1c001a3c:	854e                	mv	a0,s3
1c001a3e:	2aad                	jal	1c001bb8 <forewardProp>
      new_cost = cost_func(Y_output, Y_expected, OUT);
1c001a40:	4611                	li	a2,4
1c001a42:	bb048593          	addi	a1,s1,-1104
1c001a46:	8522                	mv	a0,s0
1c001a48:	2e85                	jal	1c001db8 <cost_func>
      
      printf("new cost: %f\n     change: %f\n", new_cost, (cost-new_cost));
1c001a4a:	85aa                	mv	a1,a0
      new_cost = cost_func(Y_output, Y_expected, OUT);
1c001a4c:	8aaa                	mv	s5,a0
      printf("new cost: %f\n     change: %f\n", new_cost, (cost-new_cost));
1c001a4e:	8562                	mv	a0,s8
1c001a50:	341d                	jal	1c001476 <__subsf3>
1c001a52:	3b65                	jal	1c00180a <__extendsfdf2>
1c001a54:	8c2a                	mv	s8,a0
1c001a56:	8556                	mv	a0,s5
1c001a58:	8cae                	mv	s9,a1
1c001a5a:	3b45                	jal	1c00180a <__extendsfdf2>
1c001a5c:	862a                	mv	a2,a0
1c001a5e:	8762                	mv	a4,s8
1c001a60:	87e6                	mv	a5,s9
1c001a62:	86ae                	mv	a3,a1
1c001a64:	7a4d0513          	addi	a0,s10,1956 # 1c0057a4 <__clz_tab+0x128>
1c001a68:	289020ef          	jal	ra,1c0044f0 <printf>
    for(int epochs = 0; epochs<2; epochs++){
1c001a6c:	0e1bb663          	p.bneimm	s7,1,1c001b58 <cluster_fn+0x218>
  asm("csrr %0, 0x014" : "=r" (hart_id) : );
1c001a70:	014027f3          	csrr	a5,uhartid
#endif
}

static inline void pi_perf_stop()
{
  if (hal_is_fc())
1c001a74:	02000713          	li	a4,32
  return (hart_id >> 5) & 0x3f;
1c001a78:	ca5797b3          	p.extractu	a5,a5,5,5
1c001a7c:	12e78463          	beq	a5,a4,1c001ba4 <cluster_fn+0x264>
static inline void timer_cfg_lo_set(uint32_t base, uint32_t value) { ARCHI_WRITE(base, TIMER_CFG_LO_OFFSET, value); }
1c001a80:	102007b7          	lui	a5,0x10200
1c001a84:	40078793          	addi	a5,a5,1024 # 10200400 <__l1_end+0x2003e0>
1c001a88:	0007a023          	sw	zero,0(a5)
  asm volatile ("csrw 0x7A1, %0" :: "r" (confMask));
1c001a8c:	4781                	li	a5,0
1c001a8e:	7a179073          	csrw	pcmr,a5
  asm("csrr %0, 0x014" : "=r" (hart_id) : );
1c001a92:	014027f3          	csrr	a5,uhartid
#endif
}

static inline unsigned int pi_perf_read(int event)
{
  if (hal_is_fc())
1c001a96:	02000713          	li	a4,32
  return (hart_id >> 5) & 0x3f;
1c001a9a:	ca5797b3          	p.extractu	a5,a5,5,5
1c001a9e:	0ee78c63          	beq	a5,a4,1c001b96 <cluster_fn+0x256>
static inline uint32_t timer_cnt_lo_get(uint32_t base) { return ARCHI_READ(base, TIMER_CNT_LO_OFFSET); }
1c001aa2:	10200637          	lui	a2,0x10200
1c001aa6:	40060613          	addi	a2,a2,1024 # 10200400 <__l1_end+0x2003e0>
1c001aaa:	00862603          	lw	a2,8(a2)
  unsigned int value = 0;

  // This is stupid! But I really don't know how else we could do that
  switch(counterId) {
   case  0: asm volatile ("csrr %0, 0x780" : "=r" (value)); break;
   case  1: asm volatile ("csrr %0, 0x781" : "=r" (value)); break;
1c001aae:	781029f3          	csrr	s3,pccr1
   case  0: asm volatile ("csrr %0, 0x780" : "=r" (value)); break;
1c001ab2:	78002973          	csrr	s2,pccr0
   case  6: asm volatile ("csrr %0, 0x786" : "=r" (value)); break;
   case  7: asm volatile ("csrr %0, 0x787" : "=r" (value)); break;
   case  8: asm volatile ("csrr %0, 0x788" : "=r" (value)); break;
   case  9: asm volatile ("csrr %0, 0x789" : "=r" (value)); break;
   case 10: asm volatile ("csrr %0, 0x78A" : "=r" (value)); break;
   case 11: asm volatile ("csrr %0, 0x78B" : "=r" (value)); break;
1c001ab6:	78b024f3          	csrr	s1,pccr11
   case 12: asm volatile ("csrr %0, 0x78C" : "=r" (value)); break;
   case 13: asm volatile ("csrr %0, 0x78D" : "=r" (value)); break;
   case 14: asm volatile ("csrr %0, 0x78E" : "=r" (value)); break;
   case 15: asm volatile ("csrr %0, 0x78F" : "=r" (value)); break;
1c001aba:	78f02a73          	csrr	s4,pccr15
   case  2: asm volatile ("csrr %0, 0x782" : "=r" (value)); break;
1c001abe:	78202b73          	csrr	s6,pccr2
   case  4: asm volatile ("csrr %0, 0x784" : "=r" (value)); break;
1c001ac2:	78402af3          	csrr	s5,pccr4
  asm("csrr %0, 0x014" : "=r" (hart_id) : );
1c001ac6:	01402473          	csrr	s0,uhartid

  // stop measuring
  STOP_STATS();

  // end of the performance statistics loop
  EXIT_STATS_LOOP();
1c001aca:	1c005537          	lui	a0,0x1c005
  return hart_id & 0x01f;
1c001ace:	f4543433          	p.bclr	s0,s0,26,5
1c001ad2:	85a2                	mv	a1,s0
1c001ad4:	7c450513          	addi	a0,a0,1988 # 1c0057c4 <__clz_tab+0x148>
1c001ad8:	219020ef          	jal	ra,1c0044f0 <printf>
1c001adc:	1c005537          	lui	a0,0x1c005
1c001ae0:	864e                	mv	a2,s3
1c001ae2:	85a2                	mv	a1,s0
1c001ae4:	7e050513          	addi	a0,a0,2016 # 1c0057e0 <__clz_tab+0x164>
1c001ae8:	209020ef          	jal	ra,1c0044f0 <printf>
1c001aec:	1c005537          	lui	a0,0x1c005
1c001af0:	864a                	mv	a2,s2
1c001af2:	85a2                	mv	a1,s0
1c001af4:	7fc50513          	addi	a0,a0,2044 # 1c0057fc <__clz_tab+0x180>
1c001af8:	1f9020ef          	jal	ra,1c0044f0 <printf>
1c001afc:	1c006537          	lui	a0,0x1c006
1c001b00:	8626                	mv	a2,s1
1c001b02:	85a2                	mv	a1,s0
1c001b04:	81850513          	addi	a0,a0,-2024 # 1c005818 <__clz_tab+0x19c>
1c001b08:	1e9020ef          	jal	ra,1c0044f0 <printf>
1c001b0c:	1c006537          	lui	a0,0x1c006
1c001b10:	8652                	mv	a2,s4
1c001b12:	85a2                	mv	a1,s0
1c001b14:	84050513          	addi	a0,a0,-1984 # 1c005840 <__clz_tab+0x1c4>
1c001b18:	1d9020ef          	jal	ra,1c0044f0 <printf>
1c001b1c:	1c006537          	lui	a0,0x1c006
1c001b20:	865a                	mv	a2,s6
1c001b22:	85a2                	mv	a1,s0
1c001b24:	85850513          	addi	a0,a0,-1960 # 1c005858 <__clz_tab+0x1dc>
1c001b28:	1c9020ef          	jal	ra,1c0044f0 <printf>
1c001b2c:	85a2                	mv	a1,s0

#ifdef DEBUG  
  // check the result (optional)
//  vect_check(vectC, n);
#endif  
}
1c001b2e:	5462                	lw	s0,56(sp)
1c001b30:	50f2                	lw	ra,60(sp)
1c001b32:	54d2                	lw	s1,52(sp)
1c001b34:	5942                	lw	s2,48(sp)
1c001b36:	59b2                	lw	s3,44(sp)
1c001b38:	5a22                	lw	s4,40(sp)
1c001b3a:	5b02                	lw	s6,32(sp)
1c001b3c:	4bf2                	lw	s7,28(sp)
1c001b3e:	4c62                	lw	s8,24(sp)
1c001b40:	4cd2                	lw	s9,20(sp)
1c001b42:	4d42                	lw	s10,16(sp)
1c001b44:	4db2                	lw	s11,12(sp)
  EXIT_STATS_LOOP();
1c001b46:	8656                	mv	a2,s5
}
1c001b48:	5a92                	lw	s5,36(sp)
  EXIT_STATS_LOOP();
1c001b4a:	1c006537          	lui	a0,0x1c006
1c001b4e:	87050513          	addi	a0,a0,-1936 # 1c005870 <__clz_tab+0x1f4>
}
1c001b52:	6121                	addi	sp,sp,64
  EXIT_STATS_LOOP();
1c001b54:	19d0206f          	j	1c0044f0 <printf>
1c001b58:	4b85                	li	s7,1
1c001b5a:	bd71                	j	1c0019f6 <cluster_fn+0xb6>
static inline void timer_reset_lo_set(uint32_t base, uint32_t value) { ARCHI_WRITE(base, TIMER_RESET_LO_OFFSET, value); }
1c001b5c:	002007b7          	lui	a5,0x200
1c001b60:	4705                	li	a4,1
1c001b62:	40078793          	addi	a5,a5,1024 # 200400 <__L2+0x180400>
1c001b66:	02e7a023          	sw	a4,32(a5)
  asm volatile ("csrw 0x79F, %0" :: "r" (value));
1c001b6a:	4781                	li	a5,0
1c001b6c:	79f79073          	csrw	pccr31,a5
  asm("csrr %0, 0x014" : "=r" (hart_id) : );
1c001b70:	014027f3          	csrr	a5,uhartid
  if (hal_is_fc())
1c001b74:	02000713          	li	a4,32
  return (hart_id >> 5) & 0x3f;
1c001b78:	ca5797b3          	p.extractu	a5,a5,5,5
1c001b7c:	e0e79fe3          	bne	a5,a4,1c00199a <cluster_fn+0x5a>
static inline void timer_start_lo_set(uint32_t base, uint32_t value) { ARCHI_WRITE(base, TIMER_START_LO_OFFSET, value); }
1c001b80:	002007b7          	lui	a5,0x200
1c001b84:	4705                	li	a4,1
1c001b86:	40078793          	addi	a5,a5,1024 # 200400 <__L2+0x180400>
1c001b8a:	00e7ac23          	sw	a4,24(a5)
  asm volatile ("csrw 0x7A1, %0" :: "r" (confMask));
1c001b8e:	478d                	li	a5,3
1c001b90:	7a179073          	csrw	pcmr,a5
1c001b94:	bd29                	j	1c0019ae <cluster_fn+0x6e>
static inline uint32_t timer_cnt_lo_get(uint32_t base) { return ARCHI_READ(base, TIMER_CNT_LO_OFFSET); }
1c001b96:	00200637          	lui	a2,0x200
1c001b9a:	40060613          	addi	a2,a2,1024 # 200400 <__L2+0x180400>
1c001b9e:	00862603          	lw	a2,8(a2)
1c001ba2:	b731                	j	1c001aae <cluster_fn+0x16e>
static inline void timer_cfg_lo_set(uint32_t base, uint32_t value) { ARCHI_WRITE(base, TIMER_CFG_LO_OFFSET, value); }
1c001ba4:	002007b7          	lui	a5,0x200
1c001ba8:	40078793          	addi	a5,a5,1024 # 200400 <__L2+0x180400>
1c001bac:	0007a023          	sw	zero,0(a5)
1c001bb0:	4781                	li	a5,0
1c001bb2:	7a179073          	csrw	pcmr,a5
1c001bb6:	bdf1                	j	1c001a92 <cluster_fn+0x152>

1c001bb8 <forewardProp>:
#include "pmsis.h"

////////////////////////////////////////// SINGLE CORE ///////////////////////////////////////////////////

void forewardProp(uint8_t * X_in, float * Y_out , float * W_wg, float * B_bs, uint32_t in, uint32_t out){
1c001bb8:	711d                	addi	sp,sp,-96
1c001bba:	ce86                	sw	ra,92(sp)
1c001bbc:	cca2                	sw	s0,88(sp)
1c001bbe:	caa6                	sw	s1,84(sp)
1c001bc0:	c8ca                	sw	s2,80(sp)
1c001bc2:	c6ce                	sw	s3,76(sp)
1c001bc4:	c4d2                	sw	s4,72(sp)
1c001bc6:	c2d6                	sw	s5,68(sp)
1c001bc8:	c0da                	sw	s6,64(sp)
1c001bca:	de5e                	sw	s7,60(sp)
1c001bcc:	dc62                	sw	s8,56(sp)
1c001bce:	da66                	sw	s9,52(sp)
1c001bd0:	d86a                	sw	s10,48(sp)
1c001bd2:	d66e                	sw	s11,44(sp)
1c001bd4:	cc2e                	sw	a1,24(sp)
1c001bd6:	ce36                	sw	a3,28(sp)
    uint32_t i, j;
    float a, b, c, d, common;

    float acc0 = 0.0, acc1 = 0.0, acc2 = 0.0, acc3 = 0.0;
    
    for(i=0; i< in; i++){       // 1920 times
1c001bd8:	10070e63          	beqz	a4,1c001cf4 <forewardProp+0x13c>
1c001bdc:	00271913          	slli	s2,a4,0x2
1c001be0:	01260bb3          	add	s7,a2,s2
    float acc0 = 0.0, acc1 = 0.0, acc2 = 0.0, acc3 = 0.0;
1c001be4:	00000a13          	li	s4,0
1c001be8:	012b8d33          	add	s10,s7,s2
1c001bec:	972a                	add	a4,a4,a0
1c001bee:	89b2                	mv	s3,a2
1c001bf0:	84aa                	mv	s1,a0
1c001bf2:	996a                	add	s2,s2,s10
1c001bf4:	ca3a                	sw	a4,20(sp)
1c001bf6:	8ad2                	mv	s5,s4
1c001bf8:	8b52                	mv	s6,s4
1c001bfa:	8cd2                	mv	s9,s4
        common = (float)X_in[i];
1c001bfc:	0014c50b          	p.lbu	a0,1(s1!)
1c001c00:	3ead                	jal	1c00177a <__floatunsisf>
        a = W_wg[i];
        b = W_wg[in + i];
        c = W_wg[2*in + i];
        d = W_wg[3*in + i];

        acc0 += a * common;
1c001c02:	0049a58b          	p.lw	a1,4(s3!)
        common = (float)X_in[i];
1c001c06:	842a                	mv	s0,a0
        b = W_wg[in + i];
1c001c08:	004bac0b          	p.lw	s8,4(s7!)
        acc0 += a * common;
1c001c0c:	e7eff0ef          	jal	ra,1c00128a <__mulsf3>
1c001c10:	85aa                	mv	a1,a0
1c001c12:	8566                	mv	a0,s9
1c001c14:	886ff0ef          	jal	ra,1c000c9a <__addsf3>
        acc1 += b * common;
1c001c18:	85e2                	mv	a1,s8
        acc0 += a * common;
1c001c1a:	8caa                	mv	s9,a0
        acc1 += b * common;
1c001c1c:	8522                	mv	a0,s0
1c001c1e:	e6cff0ef          	jal	ra,1c00128a <__mulsf3>
        c = W_wg[2*in + i];
1c001c22:	004d2d8b          	p.lw	s11,4(s10!)
        acc1 += b * common;
1c001c26:	85aa                	mv	a1,a0
1c001c28:	855a                	mv	a0,s6
1c001c2a:	870ff0ef          	jal	ra,1c000c9a <__addsf3>
        acc2 += c * common;
1c001c2e:	85ee                	mv	a1,s11
        acc1 += b * common;
1c001c30:	8b2a                	mv	s6,a0
        acc2 += c * common;
1c001c32:	8522                	mv	a0,s0
1c001c34:	e56ff0ef          	jal	ra,1c00128a <__mulsf3>
        d = W_wg[3*in + i];
1c001c38:	00492c0b          	p.lw	s8,4(s2!)
        acc2 += c * common;
1c001c3c:	85aa                	mv	a1,a0
1c001c3e:	8556                	mv	a0,s5
1c001c40:	85aff0ef          	jal	ra,1c000c9a <__addsf3>
        acc3 += d * common;
1c001c44:	85e2                	mv	a1,s8
        acc2 += c * common;
1c001c46:	8aaa                	mv	s5,a0
        acc3 += d * common;
1c001c48:	8522                	mv	a0,s0
1c001c4a:	e40ff0ef          	jal	ra,1c00128a <__mulsf3>
1c001c4e:	85aa                	mv	a1,a0
1c001c50:	8552                	mv	a0,s4
1c001c52:	848ff0ef          	jal	ra,1c000c9a <__addsf3>
    for(i=0; i< in; i++){       // 1920 times
1c001c56:	47d2                	lw	a5,20(sp)
        acc3 += d * common;
1c001c58:	8a2a                	mv	s4,a0
    for(i=0; i< in; i++){       // 1920 times
1c001c5a:	fa9791e3          	bne	a5,s1,1c001bfc <forewardProp+0x44>
1c001c5e:	47f2                	lw	a5,28(sp)
    }

    Y_out[0] = acc0 + B_bs[0];
1c001c60:	438c                	lw	a1,0(a5)
1c001c62:	8566                	mv	a0,s9
1c001c64:	836ff0ef          	jal	ra,1c000c9a <__addsf3>
1c001c68:	47e2                	lw	a5,24(sp)
1c001c6a:	84aa                	mv	s1,a0
1c001c6c:	c388                	sw	a0,0(a5)
    Y_out[1] = acc1 + B_bs[1];
1c001c6e:	47f2                	lw	a5,28(sp)
1c001c70:	855a                	mv	a0,s6
1c001c72:	43cc                	lw	a1,4(a5)
1c001c74:	826ff0ef          	jal	ra,1c000c9a <__addsf3>
1c001c78:	47e2                	lw	a5,24(sp)
1c001c7a:	892a                	mv	s2,a0
1c001c7c:	c3c8                	sw	a0,4(a5)
    Y_out[2] = acc2 + B_bs[2];
1c001c7e:	47f2                	lw	a5,28(sp)
1c001c80:	8556                	mv	a0,s5
1c001c82:	478c                	lw	a1,8(a5)
1c001c84:	816ff0ef          	jal	ra,1c000c9a <__addsf3>
1c001c88:	47e2                	lw	a5,24(sp)
1c001c8a:	89aa                	mv	s3,a0
1c001c8c:	c788                	sw	a0,8(a5)
    Y_out[3] = acc3 + B_bs[3];
1c001c8e:	47f2                	lw	a5,28(sp)
1c001c90:	8552                	mv	a0,s4
1c001c92:	47cc                	lw	a1,12(a5)
1c001c94:	806ff0ef          	jal	ra,1c000c9a <__addsf3>
1c001c98:	47e2                	lw	a5,24(sp)
1c001c9a:	842a                	mv	s0,a0
1c001c9c:	c7c8                	sw	a0,12(a5)
    
    printf("%f\n%f\n%f\n%f\n", Y_out[0], Y_out[1], Y_out[2], Y_out[3]);
1c001c9e:	854e                	mv	a0,s3
1c001ca0:	36ad                	jal	1c00180a <__extendsfdf2>
1c001ca2:	8b2a                	mv	s6,a0
1c001ca4:	854a                	mv	a0,s2
1c001ca6:	8bae                	mv	s7,a1
1c001ca8:	368d                	jal	1c00180a <__extendsfdf2>
1c001caa:	8a2a                	mv	s4,a0
1c001cac:	8526                	mv	a0,s1
1c001cae:	8aae                	mv	s5,a1
1c001cb0:	3ea9                	jal	1c00180a <__extendsfdf2>
1c001cb2:	892a                	mv	s2,a0
1c001cb4:	8522                	mv	a0,s0
1c001cb6:	89ae                	mv	s3,a1
1c001cb8:	3e89                	jal	1c00180a <__extendsfdf2>
1c001cba:	c02a                	sw	a0,0(sp)
1c001cbc:	1c006537          	lui	a0,0x1c006
1c001cc0:	c22e                	sw	a1,4(sp)
1c001cc2:	885a                	mv	a6,s6
1c001cc4:	88de                	mv	a7,s7
1c001cc6:	8752                	mv	a4,s4
1c001cc8:	87d6                	mv	a5,s5
1c001cca:	864a                	mv	a2,s2
1c001ccc:	86ce                	mv	a3,s3
1c001cce:	88850513          	addi	a0,a0,-1912 # 1c005888 <__clz_tab+0x20c>
1c001cd2:	01f020ef          	jal	ra,1c0044f0 <printf>
}
1c001cd6:	40f6                	lw	ra,92(sp)
1c001cd8:	4466                	lw	s0,88(sp)
1c001cda:	44d6                	lw	s1,84(sp)
1c001cdc:	4946                	lw	s2,80(sp)
1c001cde:	49b6                	lw	s3,76(sp)
1c001ce0:	4a26                	lw	s4,72(sp)
1c001ce2:	4a96                	lw	s5,68(sp)
1c001ce4:	4b06                	lw	s6,64(sp)
1c001ce6:	5bf2                	lw	s7,60(sp)
1c001ce8:	5c62                	lw	s8,56(sp)
1c001cea:	5cd2                	lw	s9,52(sp)
1c001cec:	5d42                	lw	s10,48(sp)
1c001cee:	5db2                	lw	s11,44(sp)
1c001cf0:	6125                	addi	sp,sp,96
1c001cf2:	8082                	ret
    float acc0 = 0.0, acc1 = 0.0, acc2 = 0.0, acc3 = 0.0;
1c001cf4:	00000a13          	li	s4,0
1c001cf8:	8ad2                	mv	s5,s4
1c001cfa:	8b52                	mv	s6,s4
1c001cfc:	8cd2                	mv	s9,s4
1c001cfe:	87b6                	mv	a5,a3
1c001d00:	b785                	j	1c001c60 <forewardProp+0xa8>

1c001d02 <validateLayer>:
{
    uint8_t j;
    float comparison_precision = 0.005;
    uint8_t ERRORflag = 0;

    for(j=0; j<out; j++){
1c001d02:	ca55                	beqz	a2,1c001db6 <validateLayer+0xb4>
{
1c001d04:	7179                	addi	sp,sp,-48
        if( (Y_out[j]-reference[j] > comparison_precision) || (Y_out[j]-reference[j] < -comparison_precision) ){
1c001d06:	1c0067b7          	lui	a5,0x1c006
{
1c001d0a:	cc52                	sw	s4,24(sp)
        if( (Y_out[j]-reference[j] > comparison_precision) || (Y_out[j]-reference[j] < -comparison_precision) ){
1c001d0c:	8987aa03          	lw	s4,-1896(a5) # 1c005898 <__clz_tab+0x21c>
1c001d10:	1c0067b7          	lui	a5,0x1c006
{
1c001d14:	ce4e                	sw	s3,28(sp)
        if( (Y_out[j]-reference[j] > comparison_precision) || (Y_out[j]-reference[j] < -comparison_precision) ){
1c001d16:	89c7a983          	lw	s3,-1892(a5) # 1c00589c <__clz_tab+0x220>
{
1c001d1a:	d422                	sw	s0,40(sp)
1c001d1c:	d226                	sw	s1,36(sp)
1c001d1e:	ca56                	sw	s5,20(sp)
1c001d20:	c85a                	sw	s6,16(sp)
1c001d22:	c65e                	sw	s7,12(sp)
1c001d24:	8b2a                	mv	s6,a0
1c001d26:	d606                	sw	ra,44(sp)
1c001d28:	d04a                	sw	s2,32(sp)
1c001d2a:	8bae                	mv	s7,a1
1c001d2c:	84b2                	mv	s1,a2
    uint8_t ERRORflag = 0;
1c001d2e:	4a81                	li	s5,0
    for(j=0; j<out; j++){
1c001d30:	4401                	li	s0,0
1c001d32:	4501                	li	a0,0
        if( (Y_out[j]-reference[j] > comparison_precision) || (Y_out[j]-reference[j] < -comparison_precision) ){
1c001d34:	050a                	slli	a0,a0,0x2
1c001d36:	20abf583          	p.lw	a1,a0(s7)
1c001d3a:	20ab7503          	p.lw	a0,a0(s6)
1c001d3e:	f38ff0ef          	jal	ra,1c001476 <__subsf3>
1c001d42:	85d2                	mv	a1,s4
1c001d44:	892a                	mv	s2,a0
1c001d46:	c3cff0ef          	jal	ra,1c001182 <__gesf2>
1c001d4a:	85ce                	mv	a1,s3
1c001d4c:	00a04763          	bgtz	a0,1c001d5a <validateLayer+0x58>
1c001d50:	854a                	mv	a0,s2
1c001d52:	cb4ff0ef          	jal	ra,1c001206 <__lesf2>
1c001d56:	00055363          	bgez	a0,1c001d5c <validateLayer+0x5a>
            ERRORflag = 1;
1c001d5a:	4a85                	li	s5,1
    for(j=0; j<out; j++){
1c001d5c:	0405                	addi	s0,s0,1
1c001d5e:	0ff47413          	andi	s0,s0,255
1c001d62:	8522                	mv	a0,s0
1c001d64:	fc9468e3          	bltu	s0,s1,1c001d34 <validateLayer+0x32>
        }
    }

    if(ERRORflag == 1){
1c001d68:	001aad63          	p.beqimm	s5,1,1c001d82 <validateLayer+0x80>
        printf("!!!!!!!!!!!!!!!!!!!!!!!!!!!!!!!!!!!!!!!!!!!!!!!!!!!!!!!!!!!!!!!!!!!!!!!!!!!!!!!!!!!!!!!!!!!\n");
        printf("!!!!!!!!!!!!! VALIDATION TEST FAILED, THE MODEL IS NOT INITIALIZED CORRECTLY !!!!!!!!!!!!!!\n");
        printf("!!!!!!!!!!!!!!!!!!!!!!!!!!!!!!!!!!!!!!!!!!!!!!!!!!!!!!!!!!!!!!!!!!!!!!!!!!!!!!!!!!!!!!!!!!!\n");
    }
}
1c001d6c:	50b2                	lw	ra,44(sp)
1c001d6e:	5422                	lw	s0,40(sp)
1c001d70:	5492                	lw	s1,36(sp)
1c001d72:	5902                	lw	s2,32(sp)
1c001d74:	49f2                	lw	s3,28(sp)
1c001d76:	4a62                	lw	s4,24(sp)
1c001d78:	4ad2                	lw	s5,20(sp)
1c001d7a:	4b42                	lw	s6,16(sp)
1c001d7c:	4bb2                	lw	s7,12(sp)
1c001d7e:	6145                	addi	sp,sp,48
1c001d80:	8082                	ret
        printf("!!!!!!!!!!!!!!!!!!!!!!!!!!!!!!!!!!!!!!!!!!!!!!!!!!!!!!!!!!!!!!!!!!!!!!!!!!!!!!!!!!!!!!!!!!!\n");
1c001d82:	1c006437          	lui	s0,0x1c006
1c001d86:	8a040513          	addi	a0,s0,-1888 # 1c0058a0 <__clz_tab+0x224>
1c001d8a:	5f6020ef          	jal	ra,1c004380 <puts>
        printf("!!!!!!!!!!!!! VALIDATION TEST FAILED, THE MODEL IS NOT INITIALIZED CORRECTLY !!!!!!!!!!!!!!\n");
1c001d8e:	1c006537          	lui	a0,0x1c006
1c001d92:	8fc50513          	addi	a0,a0,-1796 # 1c0058fc <__clz_tab+0x280>
1c001d96:	5ea020ef          	jal	ra,1c004380 <puts>
        printf("!!!!!!!!!!!!!!!!!!!!!!!!!!!!!!!!!!!!!!!!!!!!!!!!!!!!!!!!!!!!!!!!!!!!!!!!!!!!!!!!!!!!!!!!!!!\n");
1c001d9a:	8a040513          	addi	a0,s0,-1888
}
1c001d9e:	5422                	lw	s0,40(sp)
1c001da0:	50b2                	lw	ra,44(sp)
1c001da2:	5492                	lw	s1,36(sp)
1c001da4:	5902                	lw	s2,32(sp)
1c001da6:	49f2                	lw	s3,28(sp)
1c001da8:	4a62                	lw	s4,24(sp)
1c001daa:	4ad2                	lw	s5,20(sp)
1c001dac:	4b42                	lw	s6,16(sp)
1c001dae:	4bb2                	lw	s7,12(sp)
1c001db0:	6145                	addi	sp,sp,48
        printf("!!!!!!!!!!!!!!!!!!!!!!!!!!!!!!!!!!!!!!!!!!!!!!!!!!!!!!!!!!!!!!!!!!!!!!!!!!!!!!!!!!!!!!!!!!!\n");
1c001db2:	5ce0206f          	j	1c004380 <puts>
1c001db6:	8082                	ret

1c001db8 <cost_func>:
 
float cost_func(float * Y_out, float * Y_ex, uint32_t out){
1c001db8:	1101                	addi	sp,sp,-32
1c001dba:	c452                	sw	s4,8(sp)
1c001dbc:	ce06                	sw	ra,28(sp)
1c001dbe:	cc22                	sw	s0,24(sp)
1c001dc0:	ca26                	sw	s1,20(sp)
1c001dc2:	c84a                	sw	s2,16(sp)
1c001dc4:	c64e                	sw	s3,12(sp)
1c001dc6:	8a32                	mv	s4,a2
    uint32_t j;
    float cost = 0.0, distance = 0.0;
    for(j=0; j<out; j++){
1c001dc8:	c631                	beqz	a2,1c001e14 <cost_func+0x5c>
1c001dca:	00261993          	slli	s3,a2,0x2
1c001dce:	842a                	mv	s0,a0
1c001dd0:	84ae                	mv	s1,a1
1c001dd2:	99aa                	add	s3,s3,a0
    float cost = 0.0, distance = 0.0;
1c001dd4:	00000913          	li	s2,0
        distance = Y_out[j]-Y_ex[j];
1c001dd8:	0044a58b          	p.lw	a1,4(s1!)
1c001ddc:	0044250b          	p.lw	a0,4(s0!)
1c001de0:	e96ff0ef          	jal	ra,1c001476 <__subsf3>
        cost += distance * distance;
1c001de4:	85aa                	mv	a1,a0
1c001de6:	ca4ff0ef          	jal	ra,1c00128a <__mulsf3>
1c001dea:	85aa                	mv	a1,a0
1c001dec:	854a                	mv	a0,s2
1c001dee:	eadfe0ef          	jal	ra,1c000c9a <__addsf3>
1c001df2:	892a                	mv	s2,a0
    for(j=0; j<out; j++){
1c001df4:	fe8992e3          	bne	s3,s0,1c001dd8 <cost_func+0x20>
    }
    return cost/(float)out;
1c001df8:	8552                	mv	a0,s4
1c001dfa:	3241                	jal	1c00177a <__floatunsisf>
1c001dfc:	85aa                	mv	a1,a0
1c001dfe:	854a                	mv	a0,s2
1c001e00:	984ff0ef          	jal	ra,1c000f84 <__divsf3>
}
1c001e04:	40f2                	lw	ra,28(sp)
1c001e06:	4462                	lw	s0,24(sp)
1c001e08:	44d2                	lw	s1,20(sp)
1c001e0a:	4942                	lw	s2,16(sp)
1c001e0c:	49b2                	lw	s3,12(sp)
1c001e0e:	4a22                	lw	s4,8(sp)
1c001e10:	6105                	addi	sp,sp,32
1c001e12:	8082                	ret
    float cost = 0.0, distance = 0.0;
1c001e14:	00000913          	li	s2,0
1c001e18:	b7c5                	j	1c001df8 <cost_func+0x40>

1c001e1a <backpropagation>:
                        float * Y_ex,
                        float * W_wg,
                        float * B_bs,
                        uint32_t in,
                        uint32_t out,
                        float lr){
1c001e1a:	715d                	addi	sp,sp,-80
1c001e1c:	d06a                	sw	s10,32(sp)
    uint32_t i, j, index;
    float gradient[out];
1c001e1e:	00281d13          	slli	s10,a6,0x2
1c001e22:	012d0313          	addi	t1,s10,18
                        float lr){
1c001e26:	c4a2                	sw	s0,72(sp)
1c001e28:	c0ca                	sw	s2,64(sp)
1c001e2a:	de4e                	sw	s3,60(sp)
1c001e2c:	dc52                	sw	s4,56(sp)
1c001e2e:	da56                	sw	s5,52(sp)
1c001e30:	ce6e                	sw	s11,28(sp)
1c001e32:	c686                	sw	ra,76(sp)
1c001e34:	c2a6                	sw	s1,68(sp)
1c001e36:	d85a                	sw	s6,48(sp)
1c001e38:	d65e                	sw	s7,44(sp)
1c001e3a:	d462                	sw	s8,40(sp)
1c001e3c:	d266                	sw	s9,36(sp)
1c001e3e:	0880                	addi	s0,sp,80
    float gradient[out];
1c001e40:	c6033333          	p.bclr	t1,t1,3,0
1c001e44:	40610133          	sub	sp,sp,t1
                        float lr){
1c001e48:	8daa                	mv	s11,a0
1c001e4a:	89b6                	mv	s3,a3
1c001e4c:	893e                	mv	s2,a5
1c001e4e:	8a46                	mv	s4,a7
    float gradient[out];
1c001e50:	8a8a                	mv	s5,sp

    // BIASES FIRST
    for(j=0; j< out; j++){
1c001e52:	02080c63          	beqz	a6,1c001e8a <backpropagation+0x70>
1c001e56:	84ae                	mv	s1,a1
1c001e58:	8bb2                	mv	s7,a2
1c001e5a:	8c56                	mv	s8,s5
1c001e5c:	8b3a                	mv	s6,a4
1c001e5e:	9d2e                	add	s10,s10,a1
        gradient[j] = Y_out[j]-Y_ex[j];
1c001e60:	004ba58b          	p.lw	a1,4(s7!)
1c001e64:	0044a50b          	p.lw	a0,4(s1!)
1c001e68:	e0eff0ef          	jal	ra,1c001476 <__subsf3>
        B_bs[j] = B_bs[j] - lr * gradient[j];       // new bias = old - learning rate * (output - ideal output)
1c001e6c:	000b2c83          	lw	s9,0(s6)
1c001e70:	85d2                	mv	a1,s4
        gradient[j] = Y_out[j]-Y_ex[j];
1c001e72:	00ac222b          	p.sw	a0,4(s8!)
        B_bs[j] = B_bs[j] - lr * gradient[j];       // new bias = old - learning rate * (output - ideal output)
1c001e76:	c14ff0ef          	jal	ra,1c00128a <__mulsf3>
1c001e7a:	85aa                	mv	a1,a0
1c001e7c:	8566                	mv	a0,s9
1c001e7e:	df8ff0ef          	jal	ra,1c001476 <__subsf3>
1c001e82:	00ab222b          	p.sw	a0,4(s6!)
    for(j=0; j< out; j++){
1c001e86:	fc9d1de3          	bne	s10,s1,1c001e60 <backpropagation+0x46>
    }

    // NOW WEIGHTS
    for(i=0; i< in; i++){       //loop rolled on j
1c001e8a:	0a090b63          	beqz	s2,1c001f40 <backpropagation+0x126>

        float common_therm = X_in[i];
        //index is j*in + i
        W_wg[i]         = W_wg[i]        - lr * gradient[0] * common_therm;      // new weight = old - learning rate * (output - ideal output) * input
1c001e8e:	000aa583          	lw	a1,0(s5)
1c001e92:	8552                	mv	a0,s4
1c001e94:	012d8bb3          	add	s7,s11,s2
1c001e98:	bf2ff0ef          	jal	ra,1c00128a <__mulsf3>
        W_wg[in + i]    = W_wg[in + i]   - lr * gradient[1] * common_therm;
1c001e9c:	004aa583          	lw	a1,4(s5)
        W_wg[i]         = W_wg[i]        - lr * gradient[0] * common_therm;      // new weight = old - learning rate * (output - ideal output) * input
1c001ea0:	8caa                	mv	s9,a0
        W_wg[in + i]    = W_wg[in + i]   - lr * gradient[1] * common_therm;
1c001ea2:	8552                	mv	a0,s4
1c001ea4:	be6ff0ef          	jal	ra,1c00128a <__mulsf3>
        W_wg[2*in + i]  = W_wg[2*in + i] - lr * gradient[2] * common_therm;
1c001ea8:	008aa583          	lw	a1,8(s5)
        W_wg[in + i]    = W_wg[in + i]   - lr * gradient[1] * common_therm;
1c001eac:	8c2a                	mv	s8,a0
        W_wg[2*in + i]  = W_wg[2*in + i] - lr * gradient[2] * common_therm;
1c001eae:	8552                	mv	a0,s4
1c001eb0:	bdaff0ef          	jal	ra,1c00128a <__mulsf3>
        W_wg[3*in + i]  = W_wg[3*in + i] - lr * gradient[3] * common_therm;
1c001eb4:	00caa583          	lw	a1,12(s5)
1c001eb8:	090a                	slli	s2,s2,0x2
1c001eba:	01298d33          	add	s10,s3,s2
        W_wg[2*in + i]  = W_wg[2*in + i] - lr * gradient[2] * common_therm;
1c001ebe:	8b2a                	mv	s6,a0
        W_wg[3*in + i]  = W_wg[3*in + i] - lr * gradient[3] * common_therm;
1c001ec0:	8552                	mv	a0,s4
1c001ec2:	bc8ff0ef          	jal	ra,1c00128a <__mulsf3>
1c001ec6:	012d0a33          	add	s4,s10,s2
1c001eca:	faa42e23          	sw	a0,-68(s0)
1c001ece:	9952                	add	s2,s2,s4
        float common_therm = X_in[i];
1c001ed0:	001dc50b          	p.lbu	a0,1(s11!)
1c001ed4:	8a7ff0ef          	jal	ra,1c00177a <__floatunsisf>
        W_wg[i]         = W_wg[i]        - lr * gradient[0] * common_therm;      // new weight = old - learning rate * (output - ideal output) * input
1c001ed8:	0009aa83          	lw	s5,0(s3)
        float common_therm = X_in[i];
1c001edc:	84aa                	mv	s1,a0
        W_wg[i]         = W_wg[i]        - lr * gradient[0] * common_therm;      // new weight = old - learning rate * (output - ideal output) * input
1c001ede:	85aa                	mv	a1,a0
1c001ee0:	8566                	mv	a0,s9
1c001ee2:	ba8ff0ef          	jal	ra,1c00128a <__mulsf3>
1c001ee6:	85aa                	mv	a1,a0
1c001ee8:	8556                	mv	a0,s5
1c001eea:	d8cff0ef          	jal	ra,1c001476 <__subsf3>
1c001eee:	00a9a22b          	p.sw	a0,4(s3!)
        W_wg[in + i]    = W_wg[in + i]   - lr * gradient[1] * common_therm;
1c001ef2:	000d2a83          	lw	s5,0(s10)
1c001ef6:	85a6                	mv	a1,s1
1c001ef8:	8562                	mv	a0,s8
1c001efa:	b90ff0ef          	jal	ra,1c00128a <__mulsf3>
1c001efe:	85aa                	mv	a1,a0
1c001f00:	8556                	mv	a0,s5
1c001f02:	d74ff0ef          	jal	ra,1c001476 <__subsf3>
1c001f06:	00ad222b          	p.sw	a0,4(s10!)
        W_wg[2*in + i]  = W_wg[2*in + i] - lr * gradient[2] * common_therm;
1c001f0a:	000a2a83          	lw	s5,0(s4)
1c001f0e:	85a6                	mv	a1,s1
1c001f10:	855a                	mv	a0,s6
1c001f12:	b78ff0ef          	jal	ra,1c00128a <__mulsf3>
1c001f16:	85aa                	mv	a1,a0
1c001f18:	8556                	mv	a0,s5
1c001f1a:	d5cff0ef          	jal	ra,1c001476 <__subsf3>
1c001f1e:	00aa222b          	p.sw	a0,4(s4!)
        W_wg[3*in + i]  = W_wg[3*in + i] - lr * gradient[3] * common_therm;
1c001f22:	fbc42503          	lw	a0,-68(s0)
1c001f26:	00092a83          	lw	s5,0(s2)
1c001f2a:	85a6                	mv	a1,s1
1c001f2c:	b5eff0ef          	jal	ra,1c00128a <__mulsf3>
1c001f30:	85aa                	mv	a1,a0
1c001f32:	8556                	mv	a0,s5
1c001f34:	d42ff0ef          	jal	ra,1c001476 <__subsf3>
1c001f38:	00a9222b          	p.sw	a0,4(s2!)
    for(i=0; i< in; i++){       //loop rolled on j
1c001f3c:	f97d9ae3          	bne	s11,s7,1c001ed0 <backpropagation+0xb6>
    }

}
1c001f40:	fb040113          	addi	sp,s0,-80
1c001f44:	40b6                	lw	ra,76(sp)
1c001f46:	4426                	lw	s0,72(sp)
1c001f48:	4496                	lw	s1,68(sp)
1c001f4a:	4906                	lw	s2,64(sp)
1c001f4c:	59f2                	lw	s3,60(sp)
1c001f4e:	5a62                	lw	s4,56(sp)
1c001f50:	5ad2                	lw	s5,52(sp)
1c001f52:	5b42                	lw	s6,48(sp)
1c001f54:	5bb2                	lw	s7,44(sp)
1c001f56:	5c22                	lw	s8,40(sp)
1c001f58:	5c92                	lw	s9,36(sp)
1c001f5a:	5d02                	lw	s10,32(sp)
1c001f5c:	4df2                	lw	s11,28(sp)
1c001f5e:	6161                	addi	sp,sp,80
1c001f60:	8082                	ret

1c001f62 <cluster_start>:
  ARCHI_WRITE(ARCHI_EU_DEMUX_ADDR, EU_CORE_MASK_OR, evtMask);
1c001f62:	002047b7          	lui	a5,0x204
1c001f66:	00070737          	lui	a4,0x70
1c001f6a:	00e7a423          	sw	a4,8(a5) # 204008 <__L2+0x184008>
  IP_WRITE(ARCHI_EU_DEMUX_ADDR, EU_DISPATCH_DEMUX_OFFSET + EU_DISPATCH_TEAM_CONFIG, value);
1c001f6e:	0ff00713          	li	a4,255
1c001f72:	002046b7          	lui	a3,0x204
1c001f76:	08e6a223          	sw	a4,132(a3) # 204084 <__L2+0x184084>
  IP_WRITE(barAddr, EU_HW_BARR_TRIGGER_MASK, coreMask);
1c001f7a:	20078793          	addi	a5,a5,512
1c001f7e:	00e7a023          	sw	a4,0(a5)
  IP_WRITE(barAddr, EU_HW_BARR_TARGET_MASK, targetMask);
1c001f82:	00e7a623          	sw	a4,12(a5)
    __rt_team_config(rt_nb_active_pe());
  }

#endif

}
1c001f86:	8082                	ret

1c001f88 <__rt_init>:
{
1c001f88:	1101                	addi	sp,sp,-32
static inline void hal_pmu_bypass_set(unsigned int Value) {
  IP_WRITE(ARCHI_APB_SOC_CTRL_ADDR, APB_SOC_CL_BYPASS_OFFSET, Value);
}

static inline unsigned int hal_pmu_bypass_get() {
  return IP_READ(ARCHI_APB_SOC_CTRL_ADDR, APB_SOC_CL_BYPASS_OFFSET);
1c001f8a:	1a104737          	lui	a4,0x1a104
1c001f8e:	ce06                	sw	ra,28(sp)
1c001f90:	cc22                	sw	s0,24(sp)
1c001f92:	ca26                	sw	s1,20(sp)
1c001f94:	07072783          	lw	a5,112(a4) # 1a104070 <__l1_end+0xa104050>
  hal_pmu_bypass_set (ARCHI_REG_FIELD_SET (hal_pmu_bypass_get (), 1, 11, 1) );
1c001f98:	c0b7c7b3          	p.bset	a5,a5,0,11
  IP_WRITE(ARCHI_APB_SOC_CTRL_ADDR, APB_SOC_CL_BYPASS_OFFSET, Value);
1c001f9c:	06f72823          	sw	a5,112(a4)
  __rt_bridge_set_available();
1c001fa0:	2361                	jal	1c002528 <__rt_bridge_set_available>
  cpu_stack_check_enable((int)__rt_fc_stack, (int)__rt_fc_stack + __rt_fc_stack_size);
1c001fa2:	1b0007b7          	lui	a5,0x1b000
1c001fa6:	39878793          	addi	a5,a5,920 # 1b000398 <__rt_fc_stack>
 * Stack checking
 */

static inline void cpu_stack_check_enable(unsigned int base, unsigned int end)
{
  asm volatile ("csrwi 0x7D0, 0" :: );
1c001faa:	7d005073          	csrwi	0x7d0,0
  asm volatile ("csrw  0x7D1, %0" :: "r" (base));
1c001fae:	7d179073          	csrw	0x7d1,a5
1c001fb2:	1c006737          	lui	a4,0x1c006
1c001fb6:	ccc72703          	lw	a4,-820(a4) # 1c005ccc <__rt_fc_stack_size>
1c001fba:	97ba                	add	a5,a5,a4
  asm volatile ("csrw  0x7D2, %0" :: "r" (end));
1c001fbc:	7d279073          	csrw	0x7d2,a5
  asm volatile ("csrwi 0x7D0, 1" :: );
1c001fc0:	7d00d073          	csrwi	0x7d0,1
  __rt_irq_init();
1c001fc4:	2ad5                	jal	1c0021b8 <__rt_irq_init>

#include "archi/pulp.h"
#include "archi/soc_eu/soc_eu_v1.h"

static inline void soc_eu_eventMask_set(unsigned int reg, unsigned int value) {
  ARCHI_WRITE(ARCHI_SOC_EU_ADDR, reg, value);
1c001fc6:	54fd                	li	s1,-1
1c001fc8:	1a1067b7          	lui	a5,0x1a106
1c001fcc:	0097a223          	sw	s1,4(a5) # 1a106004 <__l1_end+0xa105fe4>
1c001fd0:	0097a423          	sw	s1,8(a5)
  rt_irq_set_handler(ARCHI_FC_EVT_SOC_EVT, __rt_fc_socevents_handler);
1c001fd4:	1c0005b7          	lui	a1,0x1c000
1c001fd8:	3f458593          	addi	a1,a1,1012 # 1c0003f4 <__rt_fc_socevents_handler>
1c001fdc:	456d                	li	a0,27
1c001fde:	2a35                	jal	1c00211a <rt_irq_set_handler>
  ARCHI_WRITE(base, EU_CORE_MASK_IRQ_OR, irqMask);
1c001fe0:	080007b7          	lui	a5,0x8000
1c001fe4:	00204737          	lui	a4,0x204
1c001fe8:	00f72a23          	sw	a5,20(a4) # 204014 <__L2+0x184014>
  ARCHI_WRITE(ARCHI_EU_DEMUX_ADDR, EU_CORE_MASK_OR, evtMask);
1c001fec:	00f72423          	sw	a5,8(a4)
  __rt_pmu_init();
1c001ff0:	1e6010ef          	jal	ra,1c0031d6 <__rt_pmu_init>
  __rt_freq_init();
1c001ff4:	645000ef          	jal	ra,1c002e38 <__rt_freq_init>
1c001ff8:	002017b7          	lui	a5,0x201
1c001ffc:	40078793          	addi	a5,a5,1024 # 201400 <__L2+0x181400>
  pulp_write32(ARCHI_CLUSTER_PERIPHERALS_GLOBAL_ADDR(cid) + ARCHI_ICACHE_CTRL_OFFSET, 0xFFFFFFFF);
}

static inline void icache_enable(unsigned int base)
{
  pulp_write32(base, 0xFFFFFFFF);
1c002000:	c384                	sw	s1,0(a5)
  asm("csrr %0, 0x014" : "=r" (hart_id) : );
1c002002:	01402473          	csrr	s0,uhartid
1c002006:	1c0054b7          	lui	s1,0x1c005
  return (hart_id >> 5) & 0x3f;
1c00200a:	8415                	srai	s0,s0,0x5
  __rt_utils_init();
1c00200c:	24e5                	jal	1c0022f4 <__rt_utils_init>
1c00200e:	f2643433          	p.bclr	s0,s0,25,6
  __rt_allocs_init();
1c002012:	147000ef          	jal	ra,1c002958 <__rt_allocs_init>
1c002016:	5c048493          	addi	s1,s1,1472 # 1c0055c0 <ctor_list+0x4>
  __rt_event_sched_init();
1c00201a:	001000ef          	jal	ra,1c00281a <__rt_event_sched_init>
  __rt_padframe_init();
1c00201e:	0ab010ef          	jal	ra,1c0038c8 <__rt_padframe_init>
  for(fpp = ctor_list+1;  *fpp != 0;  ++fpp) {
1c002022:	0044a78b          	p.lw	a5,4(s1!)
1c002026:	ebad                	bnez	a5,1c002098 <__rt_init+0x110>
  return __builtin_pulp_read_then_spr_bit_set(reg, val);
1c002028:	300467f3          	csrrsi	a5,mstatus,8
  if (__rt_cbsys_exec(RT_CBSYS_START)) goto error;
1c00202c:	4501                	li	a0,0
1c00202e:	2c59                	jal	1c0022c4 <__rt_cbsys_exec>
1c002030:	e539                	bnez	a0,1c00207e <__rt_init+0xf6>
  asm("csrr %0, 0x014" : "=r" (hart_id) : );
1c002032:	014027f3          	csrr	a5,uhartid
  return (hart_id >> 5) & 0x3f;
1c002036:	8795                	srai	a5,a5,0x5
1c002038:	f267b7b3          	p.bclr	a5,a5,25,6
        exit(retval);
      }
    }
    else
      return cluster_master_start(NULL);
  } else if (!rt_is_fc()) {
1c00203c:	02000713          	li	a4,32
1c002040:	0ae78263          	beq	a5,a4,1c0020e4 <__rt_init+0x15c>
    rt_cluster_mount(1, cid, 0, NULL);
1c002044:	4681                	li	a3,0
1c002046:	4601                	li	a2,0
1c002048:	4581                	li	a1,0
1c00204a:	4505                	li	a0,1
  if (rt_cluster_id() != cid)
1c00204c:	cba1                	beqz	a5,1c00209c <__rt_init+0x114>
    rt_cluster_mount(1, cid, 0, NULL);
1c00204e:	6ba010ef          	jal	ra,1c003708 <rt_cluster_mount>
    void *stacks = rt_alloc(RT_ALLOC_CL_DATA+cid, 0x800*rt_nb_active_pe());
1c002052:	6591                	lui	a1,0x4
1c002054:	4509                	li	a0,2
1c002056:	08b000ef          	jal	ra,1c0028e0 <rt_alloc>
1c00205a:	872a                	mv	a4,a0
    if (stacks == NULL) return -1;
1c00205c:	c10d                	beqz	a0,1c00207e <__rt_init+0xf6>
    if (rt_cluster_call(NULL, cid, cluster_start, NULL, stacks, 0x800, 0x800, rt_nb_active_pe(), event)) return -1;
1c00205e:	6805                	lui	a6,0x1
1c002060:	80080813          	addi	a6,a6,-2048 # 800 <__rt_stack_size>
1c002064:	1c002637          	lui	a2,0x1c002
1c002068:	c002                	sw	zero,0(sp)
1c00206a:	48a1                	li	a7,8
1c00206c:	87c2                	mv	a5,a6
1c00206e:	4681                	li	a3,0
1c002070:	f6260613          	addi	a2,a2,-158 # 1c001f62 <cluster_start>
1c002074:	4581                	li	a1,0
1c002076:	4501                	li	a0,0
1c002078:	600010ef          	jal	ra,1c003678 <rt_cluster_call>
1c00207c:	c525                	beqz	a0,1c0020e4 <__rt_init+0x15c>
  rt_fatal("There was an error during runtime initialization\n");
1c00207e:	1c006537          	lui	a0,0x1c006
  asm("csrr %0, 0x014" : "=r" (hart_id) : );
1c002082:	01402673          	csrr	a2,uhartid
1c002086:	85a2                	mv	a1,s0
1c002088:	f4563633          	p.bclr	a2,a2,26,5
1c00208c:	95850513          	addi	a0,a0,-1704 # 1c005958 <__clz_tab+0x2dc>
1c002090:	460020ef          	jal	ra,1c0044f0 <printf>
1c002094:	3c8020ef          	jal	ra,1c00445c <abort>
    (**fpp)();
1c002098:	9782                	jalr	a5
1c00209a:	b761                	j	1c002022 <__rt_init+0x9a>
    rt_cluster_mount(1, cid, 0, NULL);
1c00209c:	66c010ef          	jal	ra,1c003708 <rt_cluster_mount>
    void *stacks = rt_alloc(RT_ALLOC_CL_DATA+cid, 0x800*(rt_nb_active_pe()-1));
1c0020a0:	6591                	lui	a1,0x4
1c0020a2:	80058593          	addi	a1,a1,-2048 # 3800 <__rt_stack_size+0x3000>
1c0020a6:	4509                	li	a0,2
1c0020a8:	039000ef          	jal	ra,1c0028e0 <rt_alloc>
    if (stacks == NULL) return -1;
1c0020ac:	d969                	beqz	a0,1c00207e <__rt_init+0xf6>
  IP_WRITE(ARCHI_EU_DEMUX_ADDR, EU_DISPATCH_DEMUX_OFFSET + EU_DISPATCH_TEAM_CONFIG, value);
1c0020ae:	00204737          	lui	a4,0x204
1c0020b2:	0ff00793          	li	a5,255
1c0020b6:	08f72223          	sw	a5,132(a4) # 204084 <__L2+0x184084>
    eu_dispatch_push((unsigned int)__rt_set_slave_stack | 1);
1c0020ba:	1c0057b7          	lui	a5,0x1c005
1c0020be:	50478793          	addi	a5,a5,1284 # 1c005504 <__rt_set_slave_stack>
1c0020c2:	c007c7b3          	p.bset	a5,a5,0,0
  IP_WRITE_PTR(ARCHI_EU_DEMUX_ADDR, EU_DISPATCH_DEMUX_OFFSET + EU_DISPATCH_FIFO_ACCESS, value);
1c0020c6:	08f72023          	sw	a5,128(a4)
1c0020ca:	6785                	lui	a5,0x1
1c0020cc:	80078793          	addi	a5,a5,-2048 # 800 <__rt_stack_size>
1c0020d0:	08f72023          	sw	a5,128(a4)
1c0020d4:	08a72023          	sw	a0,128(a4)
}
1c0020d8:	4462                	lw	s0,24(sp)
1c0020da:	40f2                	lw	ra,28(sp)
1c0020dc:	44d2                	lw	s1,20(sp)
    cluster_start(NULL);
1c0020de:	4501                	li	a0,0
}
1c0020e0:	6105                	addi	sp,sp,32
    cluster_start(NULL);
1c0020e2:	b541                	j	1c001f62 <cluster_start>
}
1c0020e4:	40f2                	lw	ra,28(sp)
1c0020e6:	4462                	lw	s0,24(sp)
1c0020e8:	44d2                	lw	s1,20(sp)
1c0020ea:	6105                	addi	sp,sp,32
1c0020ec:	8082                	ret

1c0020ee <__rt_deinit>:
{
1c0020ee:	1141                	addi	sp,sp,-16
1c0020f0:	c606                	sw	ra,12(sp)
1c0020f2:	c422                	sw	s0,8(sp)
}

static inline void cpu_stack_check_disable()
{
  asm volatile ("csrwi 0x7D0, 0" :: );
1c0020f4:	7d005073          	csrwi	0x7d0,0
  __rt_cbsys_exec(RT_CBSYS_STOP);
1c0020f8:	4505                	li	a0,1
1c0020fa:	1c005437          	lui	s0,0x1c005
1c0020fe:	22d9                	jal	1c0022c4 <__rt_cbsys_exec>
1c002100:	60040413          	addi	s0,s0,1536 # 1c005600 <dtor_list+0x4>
  for(fpp = dtor_list + 1;  *fpp != 0;  ++fpp) (**fpp)();
1c002104:	0044278b          	p.lw	a5,4(s0!)
1c002108:	e789                	bnez	a5,1c002112 <__rt_deinit+0x24>
}
1c00210a:	40b2                	lw	ra,12(sp)
1c00210c:	4422                	lw	s0,8(sp)
1c00210e:	0141                	addi	sp,sp,16
1c002110:	8082                	ret
  for(fpp = dtor_list + 1;  *fpp != 0;  ++fpp) (**fpp)();
1c002112:	9782                	jalr	a5
1c002114:	bfc5                	j	1c002104 <__rt_deinit+0x16>

1c002116 <pi_open_from_conf>:
#endif


void pi_open_from_conf(struct pi_device *device, void *conf)
{
  device->config = conf;
1c002116:	c14c                	sw	a1,4(a0)
}
1c002118:	8082                	ret

1c00211a <rt_irq_set_handler>:
  asm("csrr %0, 0x014" : "=r" (hart_id) : );
1c00211a:	014027f3          	csrr	a5,uhartid
  return hal_spr_read(0x305) & ~1;
#else
#if defined(APB_SOC_VERSION) && APB_SOC_VERSION == 1
  return ARCHI_L2_ADDR;
#else
  if (rt_is_fc()) {
1c00211e:	02000713          	li	a4,32
  return (hart_id >> 5) & 0x3f;
1c002122:	ca5797b3          	p.extractu	a5,a5,5,5
1c002126:	02e79c63          	bne	a5,a4,1c00215e <rt_irq_set_handler+0x44>
#if defined(ARCHI_CORE_HAS_SECURITY) && !defined(ARCHI_CORE_HAS_1_10)
    return __builtin_pulp_spr_read(SR_MTVEC);
1c00212a:	30502773          	csrr	a4,mtvec
  irq -= 16;
#endif

  unsigned int base = __rt_get_fc_vector_base();

  unsigned int jmpAddr = base + 0x4 * irq;
1c00212e:	050a                	slli	a0,a0,0x2
  unsigned int S = ((unsigned int) ItHandler - (ItBaseAddr+ItIndex*4));
1c002130:	8d89                	sub	a1,a1,a0
1c002132:	8d99                	sub	a1,a1,a4
  R = __BITINSERT(R, __BITEXTRACT(S,  1, 20),  1, 31);
1c002134:	c14586b3          	p.extract	a3,a1,0,20
1c002138:	06f00793          	li	a5,111
1c00213c:	c1f6a7b3          	p.insert	a5,a3,0,31
  R = __BITINSERT(R, __BITEXTRACT(S, 10,  1), 10, 21);
1c002140:	d21586b3          	p.extract	a3,a1,9,1
1c002144:	d356a7b3          	p.insert	a5,a3,9,21
  R = __BITINSERT(R, __BITEXTRACT(S,  1, 11),  1, 20);
1c002148:	c0b586b3          	p.extract	a3,a1,0,11
1c00214c:	c146a7b3          	p.insert	a5,a3,0,20
  R = __BITINSERT(R, __BITEXTRACT(S,  8, 12),  8, 12);
1c002150:	cec585b3          	p.extract	a1,a1,7,12
1c002154:	cec5a7b3          	p.insert	a5,a1,7,12

  *(volatile unsigned int *)jmpAddr = __rt_get_itvec(base, irq, (unsigned int)handler);
1c002158:	00f56723          	p.sw	a5,a4(a0)

#if defined(PLP_FC_HAS_ICACHE)
  flush_all_icache_banks_common(plp_icache_fc_base());
#endif

}
1c00215c:	8082                	ret
static inline void plp_ctrl_core_bootaddr_set_remote(int cid, int core, unsigned int bootAddr) {
  pulp_write32(ARCHI_CLUSTER_PERIPHERALS_GLOBAL_ADDR(cid) + ARCHI_CLUSTER_CTRL_OFFSET + 0x40 + core*4, bootAddr);
}

static inline unsigned int plp_ctrl_bootaddr_get() {
  return pulp_read32(ARCHI_CLUSTER_CTRL_ADDR + 0x40);
1c00215e:	002007b7          	lui	a5,0x200
1c002162:	43b8                	lw	a4,64(a5)
1c002164:	b7e9                	j	1c00212e <rt_irq_set_handler+0x14>

1c002166 <illegal_insn_handler_c>:
#include <stdlib.h>

void __attribute__((weak)) illegal_insn_handler_c()
{

}
1c002166:	8082                	ret

1c002168 <__rt_handle_illegal_instr>:


extern RT_FC_GLOBAL_DATA unsigned int __rt_debug_config;
extern RT_FC_GLOBAL_DATA unsigned int __rt_debug_config_trace;

static inline unsigned int rt_debug_config() { return __rt_debug_config; }
1c002168:	1b0017b7          	lui	a5,0x1b001

static inline unsigned int rt_debug_config_trace() { return __rt_debug_config_trace; }

static inline int rt_debug_config_warnings() {
  return ARCHI_REG_FIELD_GET(rt_debug_config(), RT_DEBUG_WARNING_BIT, 1);
1c00216c:	b9c7a703          	lw	a4,-1124(a5) # 1b000b9c <__rt_debug_config>

void __rt_handle_illegal_instr()
{
1c002170:	1141                	addi	sp,sp,-16
1c002172:	c422                	sw	s0,8(sp)
1c002174:	c606                	sw	ra,12(sp)
1c002176:	fc173733          	p.bclr	a4,a4,30,1
1c00217a:	843e                	mv	s0,a5
#ifdef __riscv__
  unsigned int mepc = hal_mepc_read();
  rt_warning("Reached illegal instruction (PC: 0x%x, opcode: 0x%x\n", mepc, *(int *)mepc);
1c00217c:	c315                	beqz	a4,1c0021a0 <__rt_handle_illegal_instr+0x38>
1c00217e:	341026f3          	csrr	a3,mepc
  asm("csrr %0, 0x014" : "=r" (hart_id) : );
1c002182:	01402673          	csrr	a2,uhartid
1c002186:	1c006537          	lui	a0,0x1c006
1c00218a:	4298                	lw	a4,0(a3)
  return (hart_id >> 5) & 0x3f;
1c00218c:	40565593          	srai	a1,a2,0x5
1c002190:	f265b5b3          	p.bclr	a1,a1,25,6
1c002194:	f4563633          	p.bclr	a2,a2,26,5
1c002198:	9b050513          	addi	a0,a0,-1616 # 1c0059b0 <__clz_tab+0x334>
1c00219c:	354020ef          	jal	ra,1c0044f0 <printf>
}

static inline int rt_debug_config_werror() {
  return ARCHI_REG_FIELD_GET(rt_debug_config(), RT_DEBUG_WERROR_BIT, 1);
1c0021a0:	b9c42783          	lw	a5,-1124(s0)
1c0021a4:	c01797b3          	p.extractu	a5,a5,0,1
1c0021a8:	c399                	beqz	a5,1c0021ae <__rt_handle_illegal_instr+0x46>
1c0021aa:	2b2020ef          	jal	ra,1c00445c <abort>
  illegal_insn_handler_c();
#endif
}
1c0021ae:	4422                	lw	s0,8(sp)
1c0021b0:	40b2                	lw	ra,12(sp)
1c0021b2:	0141                	addi	sp,sp,16
  illegal_insn_handler_c();
1c0021b4:	fb3ff06f          	j	1c002166 <illegal_insn_handler_c>

1c0021b8 <__rt_irq_init>:
  ARCHI_WRITE(ARCHI_EU_DEMUX_ADDR, EU_CORE_MASK_IRQ_AND, irqMask);
1c0021b8:	57fd                	li	a5,-1
1c0021ba:	00204737          	lui	a4,0x204
1c0021be:	00f72823          	sw	a5,16(a4) # 204010 <__L2+0x184010>
  else eu_irq_maskClr(mask);
#elif defined(ITC_VERSION)
  hal_itc_enable_clr(mask);
#elif defined(EU_VERSION)
  eu_irq_maskClr(mask);
  if (hal_is_fc()) eu_evt_maskClr(mask);
1c0021c2:	02000713          	li	a4,32
  asm("csrr %0, 0x014" : "=r" (hart_id) : );
1c0021c6:	014027f3          	csrr	a5,uhartid
  return (hart_id >> 5) & 0x3f;
1c0021ca:	ca5797b3          	p.extractu	a5,a5,5,5
1c0021ce:	00e79763          	bne	a5,a4,1c0021dc <__rt_irq_init+0x24>
  ARCHI_WRITE(ARCHI_EU_DEMUX_ADDR, EU_CORE_MASK_AND, evtMask);
1c0021d2:	57fd                	li	a5,-1
1c0021d4:	00204737          	lui	a4,0x204
1c0021d8:	00f72223          	sw	a5,4(a4) # 204004 <__L2+0x184004>
  asm("csrr %0, 0x014" : "=r" (hart_id) : );
1c0021dc:	014027f3          	csrr	a5,uhartid
#if defined(ARCHI_CORE_RISCV_ITC)
  hal_spr_write(0x305, base);
#else
#if defined(APB_SOC_VERSION) && APB_SOC_VERSION == 1
#else
  if (rt_is_fc()) {
1c0021e0:	02000713          	li	a4,32
  return (hart_id >> 5) & 0x3f;
1c0021e4:	ca5797b3          	p.extractu	a5,a5,5,5
1c0021e8:	00e79963          	bne	a5,a4,1c0021fa <__rt_irq_init+0x42>
#if defined(ARCHI_CORE_HAS_SECURITY)
    __builtin_pulp_spr_write(SR_MTVEC, base);
1c0021ec:	1c0007b7          	lui	a5,0x1c000
1c0021f0:	00078793          	mv	a5,a5
1c0021f4:	30579073          	csrw	mtvec,a5
1c0021f8:	8082                	ret
  pulp_write32(ARCHI_CLUSTER_CTRL_ADDR + 0x40, bootAddr);
1c0021fa:	1c0007b7          	lui	a5,0x1c000
1c0021fe:	00200737          	lui	a4,0x200
1c002202:	00078793          	mv	a5,a5
1c002206:	c33c                	sw	a5,64(a4)
  rt_irq_mask_clr(-1);

  // As the FC code may not be at the beginning of the L2, set the
  // vector base to get proper interrupt handlers
  __rt_set_fc_vector_base((int)rt_irq_vector_base());
}
1c002208:	8082                	ret

1c00220a <__rt_fc_cluster_lock_req>:
      rt_free(RT_ALLOC_FC_RET_DATA, (void *)cbsys, sizeof(rt_cbsys_t));     
      return;
    }

    prev = cbsys;
    cbsys = cbsys->next;
1c00220a:	300476f3          	csrrci	a3,mstatus,8
1c00220e:	08a54703          	lbu	a4,138(a0)
1c002212:	411c                	lw	a5,0(a0)
1c002214:	c321                	beqz	a4,1c002254 <__rt_fc_cluster_lock_req+0x4a>
1c002216:	4398                	lw	a4,0(a5)
1c002218:	cf09                	beqz	a4,1c002232 <__rt_fc_cluster_lock_req+0x28>
1c00221a:	43d8                	lw	a4,4(a5)
1c00221c:	cb09                	beqz	a4,1c00222e <__rt_fc_cluster_lock_req+0x24>
1c00221e:	4798                	lw	a4,8(a5)
1c002220:	c348                	sw	a0,4(a4)
1c002222:	c788                	sw	a0,8(a5)
1c002224:	00052223          	sw	zero,4(a0)
1c002228:	30069073          	csrw	mstatus,a3
1c00222c:	8082                	ret
1c00222e:	c3c8                	sw	a0,4(a5)
1c002230:	bfcd                	j	1c002222 <__rt_fc_cluster_lock_req+0x18>
1c002232:	4705                	li	a4,1
1c002234:	08e50423          	sb	a4,136(a0)
1c002238:	4705                	li	a4,1
1c00223a:	c398                	sw	a4,0(a5)
1c00223c:	08954783          	lbu	a5,137(a0)
1c002240:	00201737          	lui	a4,0x201
1c002244:	e0470713          	addi	a4,a4,-508 # 200e04 <__L2+0x180e04>
1c002248:	04078793          	addi	a5,a5,64 # 1c000040 <__irq_vector_base+0x40>
1c00224c:	07da                	slli	a5,a5,0x16
1c00224e:	0007e723          	p.sw	zero,a4(a5)
1c002252:	bfd9                	j	1c002228 <__rt_fc_cluster_lock_req+0x1e>
1c002254:	43d8                	lw	a4,4(a5)
1c002256:	e719                	bnez	a4,1c002264 <__rt_fc_cluster_lock_req+0x5a>
1c002258:	0007a023          	sw	zero,0(a5)
1c00225c:	4785                	li	a5,1
1c00225e:	08f50423          	sb	a5,136(a0)
1c002262:	bfe9                	j	1c00223c <__rt_fc_cluster_lock_req+0x32>
1c002264:	4350                	lw	a2,4(a4)
1c002266:	c3d0                	sw	a2,4(a5)
1c002268:	4785                	li	a5,1
1c00226a:	08f70423          	sb	a5,136(a4)
1c00226e:	08974783          	lbu	a5,137(a4)
1c002272:	00201737          	lui	a4,0x201
1c002276:	e0470713          	addi	a4,a4,-508 # 200e04 <__L2+0x180e04>
1c00227a:	04078793          	addi	a5,a5,64
1c00227e:	07da                	slli	a5,a5,0x16
1c002280:	0007e723          	p.sw	zero,a4(a5)
1c002284:	bfe1                	j	1c00225c <__rt_fc_cluster_lock_req+0x52>

1c002286 <__rt_cbsys_add>:
  }
}

int __rt_cbsys_add(__rt_cbsys_e cbsys_id, int (*cb)(void *), void *cb_arg)
{
1c002286:	1101                	addi	sp,sp,-32
1c002288:	cc22                	sw	s0,24(sp)
1c00228a:	ca26                	sw	s1,20(sp)
1c00228c:	842a                	mv	s0,a0
1c00228e:	84ae                	mv	s1,a1
  rt_cbsys_t *cbsys = (rt_cbsys_t *)rt_alloc(RT_ALLOC_FC_RET_DATA, sizeof(rt_cbsys_t));
1c002290:	4501                	li	a0,0
1c002292:	45b1                	li	a1,12
1c002294:	c632                	sw	a2,12(sp)
{
1c002296:	ce06                	sw	ra,28(sp)
  rt_cbsys_t *cbsys = (rt_cbsys_t *)rt_alloc(RT_ALLOC_FC_RET_DATA, sizeof(rt_cbsys_t));
1c002298:	25a1                	jal	1c0028e0 <rt_alloc>
  if (cbsys == NULL) return -1;
1c00229a:	4632                	lw	a2,12(sp)
1c00229c:	c115                	beqz	a0,1c0022c0 <__rt_cbsys_add+0x3a>

  cbsys->callback = cb;
  cbsys->arg = cb_arg;
  cbsys->next = cbsys_first[cbsys_id];
1c00229e:	1b0017b7          	lui	a5,0x1b001
1c0022a2:	040a                	slli	s0,s0,0x2
1c0022a4:	ba078793          	addi	a5,a5,-1120 # 1b000ba0 <cbsys_first>
1c0022a8:	97a2                	add	a5,a5,s0
1c0022aa:	4398                	lw	a4,0(a5)
  cbsys->callback = cb;
1c0022ac:	c104                	sw	s1,0(a0)
  cbsys->arg = cb_arg;
1c0022ae:	c150                	sw	a2,4(a0)
  cbsys->next = cbsys_first[cbsys_id];
1c0022b0:	c518                	sw	a4,8(a0)
  cbsys_first[cbsys_id] = cbsys;
1c0022b2:	c388                	sw	a0,0(a5)

  return 0;
1c0022b4:	4501                	li	a0,0
}
1c0022b6:	40f2                	lw	ra,28(sp)
1c0022b8:	4462                	lw	s0,24(sp)
1c0022ba:	44d2                	lw	s1,20(sp)
1c0022bc:	6105                	addi	sp,sp,32
1c0022be:	8082                	ret
  if (cbsys == NULL) return -1;
1c0022c0:	557d                	li	a0,-1
1c0022c2:	bfd5                	j	1c0022b6 <__rt_cbsys_add+0x30>

1c0022c4 <__rt_cbsys_exec>:


int __rt_cbsys_exec(__rt_cbsys_e cbsys_id)
{
1c0022c4:	1141                	addi	sp,sp,-16
1c0022c6:	c422                	sw	s0,8(sp)
  rt_cbsys_t *cbsys = cbsys_first[cbsys_id];
1c0022c8:	1b001437          	lui	s0,0x1b001
1c0022cc:	050a                	slli	a0,a0,0x2
1c0022ce:	ba040413          	addi	s0,s0,-1120 # 1b000ba0 <cbsys_first>
1c0022d2:	20a47403          	p.lw	s0,a0(s0)
{
1c0022d6:	c606                	sw	ra,12(sp)
  while (cbsys)
1c0022d8:	e411                	bnez	s0,1c0022e4 <__rt_cbsys_exec+0x20>
  {
    if (cbsys->callback(cbsys->arg)) return -1;
    cbsys = cbsys->next;
  }

  return 0;
1c0022da:	4501                	li	a0,0
}
1c0022dc:	40b2                	lw	ra,12(sp)
1c0022de:	4422                	lw	s0,8(sp)
1c0022e0:	0141                	addi	sp,sp,16
1c0022e2:	8082                	ret
    if (cbsys->callback(cbsys->arg)) return -1;
1c0022e4:	401c                	lw	a5,0(s0)
1c0022e6:	4048                	lw	a0,4(s0)
1c0022e8:	9782                	jalr	a5
1c0022ea:	e119                	bnez	a0,1c0022f0 <__rt_cbsys_exec+0x2c>
    cbsys = cbsys->next;
1c0022ec:	4400                	lw	s0,8(s0)
1c0022ee:	b7ed                	j	1c0022d8 <__rt_cbsys_exec+0x14>
    if (cbsys->callback(cbsys->arg)) return -1;
1c0022f0:	557d                	li	a0,-1
1c0022f2:	b7ed                	j	1c0022dc <__rt_cbsys_exec+0x18>

1c0022f4 <__rt_utils_init>:

RT_FC_BOOT_CODE void __rt_utils_init()
{
  for (int i=0; i<RT_CBSYS_NB; i++)
  {
    cbsys_first[i] = NULL;
1c0022f4:	1b0017b7          	lui	a5,0x1b001
1c0022f8:	ba078793          	addi	a5,a5,-1120 # 1b000ba0 <cbsys_first>
1c0022fc:	0007a023          	sw	zero,0(a5)
1c002300:	0007a223          	sw	zero,4(a5)
1c002304:	0007a423          	sw	zero,8(a5)
1c002308:	0007a623          	sw	zero,12(a5)
1c00230c:	0007a823          	sw	zero,16(a5)
1c002310:	0007aa23          	sw	zero,20(a5)
  }
}
1c002314:	8082                	ret

1c002316 <__rt_fc_lock>:

void __rt_fc_lock(rt_fc_lock_t *lock)
{
1c002316:	1141                	addi	sp,sp,-16
1c002318:	c422                	sw	s0,8(sp)
1c00231a:	842a                	mv	s0,a0
1c00231c:	c606                	sw	ra,12(sp)
1c00231e:	c226                	sw	s1,4(sp)
1c002320:	c04a                	sw	s2,0(sp)
  return __builtin_pulp_read_then_spr_bit_clr(reg, val);
1c002322:	300474f3          	csrrci	s1,mstatus,8
#if defined(ARCHI_HAS_FC)
  int irq = rt_irq_disable();
  while(lock->locked)
1c002326:	401c                	lw	a5,0(s0)
1c002328:	eb99                	bnez	a5,1c00233e <__rt_fc_lock+0x28>
  {
    //lock->fc_wait = __rt_thread_current;
    __rt_event_execute(rt_event_internal_sched(), 1);
  }
  lock->locked = 1;
1c00232a:	4785                	li	a5,1
1c00232c:	c01c                	sw	a5,0(s0)
  __builtin_pulp_spr_write(reg, val);
1c00232e:	30049073          	csrw	mstatus,s1
  while (rt_tas_lock_32((uint32_t)&lock->lock) == -1)
  {

  }
#endif
}
1c002332:	40b2                	lw	ra,12(sp)
1c002334:	4422                	lw	s0,8(sp)
1c002336:	4492                	lw	s1,4(sp)
1c002338:	4902                	lw	s2,0(sp)
1c00233a:	0141                	addi	sp,sp,16
1c00233c:	8082                	ret
    __rt_event_execute(rt_event_internal_sched(), 1);
1c00233e:	4585                	li	a1,1
1c002340:	01c00513          	li	a0,28
1c002344:	2905                	jal	1c002774 <__rt_event_execute>
1c002346:	b7c5                	j	1c002326 <__rt_fc_lock+0x10>

1c002348 <__rt_fc_unlock>:
  return __builtin_pulp_read_then_spr_bit_clr(reg, val);
1c002348:	300476f3          	csrrci	a3,mstatus,8

static int __rt_fc_unlock_to_cluster(rt_fc_lock_t *lock)
{
#if defined(ARCHI_HAS_CLUSTER)
  if (lock->waiting) {
1c00234c:	415c                	lw	a5,4(a0)
1c00234e:	e791                	bnez	a5,1c00235a <__rt_fc_unlock+0x12>
{
#if defined(ARCHI_HAS_FC)
  int irq = rt_irq_disable();
  if (!__rt_fc_unlock_to_cluster(lock))
  {
    lock->locked = 0;    
1c002350:	00052023          	sw	zero,0(a0)
  __builtin_pulp_spr_write(reg, val);
1c002354:	30069073          	csrw	mstatus,a3
  }
  rt_irq_restore(irq);
#else
  rt_tas_unlock_32((uint32_t)&lock->lock, 0);
#endif
}
1c002358:	8082                	ret
    lock->waiting = req->next;
1c00235a:	43d8                	lw	a4,4(a5)
1c00235c:	c158                	sw	a4,4(a0)
    req->done = 1;
1c00235e:	4705                	li	a4,1
1c002360:	08e78423          	sb	a4,136(a5)
    __rt_cluster_notif_req_done(req->cid);
1c002364:	0897c783          	lbu	a5,137(a5)
  pulp_write32(evtAddr, coreSet);
1c002368:	00201737          	lui	a4,0x201
1c00236c:	e0470713          	addi	a4,a4,-508 # 200e04 <__L2+0x180e04>
  return ARCHI_CLUSTER_PERIPHERALS_GLOBAL_ADDR(cluster) + ARCHI_EU_OFFSET + EU_SW_EVENTS_AREA_BASE + EU_CORE_TRIGG_SW_EVENT + (event << 2);
1c002370:	04078793          	addi	a5,a5,64
1c002374:	07da                	slli	a5,a5,0x16
  pulp_write32(evtAddr, coreSet);
1c002376:	0007e723          	p.sw	zero,a4(a5)
1c00237a:	bfe9                	j	1c002354 <__rt_fc_unlock+0xc>

1c00237c <__rt_fc_cluster_lock>:
  asm("csrr %0, 0x014" : "=r" (hart_id) : );
1c00237c:	014027f3          	csrr	a5,uhartid
  return (hart_id >> 5) & 0x3f;
1c002380:	8795                	srai	a5,a5,0x5
1c002382:	f267b7b3          	p.bclr	a5,a5,25,6
#if defined(ARCHI_HAS_FC)

void __rt_fc_cluster_lock(rt_fc_lock_t *lock, rt_fc_lock_req_t *req)
{
  req->lock = lock;
  req->cid = rt_cluster_id();
1c002386:	08f584a3          	sb	a5,137(a1)
  req->done = 0;
  req->req_lock = 1;
1c00238a:	4785                	li	a5,1
1c00238c:	08f58523          	sb	a5,138(a1)
}

static inline rt_event_t *__rt_init_event(rt_event_t *event, rt_event_sched_t *sched, void (*callback)(void *), void *arg)
{
  __rt_event_min_init(event);
  event->arg[0] = (uintptr_t)callback;
1c002390:	1c0027b7          	lui	a5,0x1c002
1c002394:	20a78793          	addi	a5,a5,522 # 1c00220a <__rt_fc_cluster_lock_req>
  req->lock = lock;
1c002398:	c188                	sw	a0,0(a1)
  req->done = 0;
1c00239a:	08058423          	sb	zero,136(a1)
  event->implem.pending = 0;
1c00239e:	0205a623          	sw	zero,44(a1)
  event->implem.keep = 0;
1c0023a2:	0205a823          	sw	zero,48(a1)
  event->arg[0] = (uintptr_t)callback;
1c0023a6:	c5dc                	sw	a5,12(a1)
  event->arg[1] = (uintptr_t)arg;
1c0023a8:	c98c                	sw	a1,16(a1)
  __rt_init_event(&req->event, __rt_cluster_sched_get(), __rt_fc_cluster_lock_req, (void *)req);
1c0023aa:	05a1                	addi	a1,a1,8

// This function will push an event from cluster to FC and the event callback
// will be executed directly from within the interrupt handler
static inline void __rt_cluster_push_fc_irq_event(rt_event_t *event)
{
  __rt_cluster_push_fc_event((rt_event_t *)(((unsigned int)event) | 0x1));
1c0023ac:	c005c533          	p.bset	a0,a1,0,0
1c0023b0:	1e00106f          	j	1c003590 <__rt_cluster_push_fc_event>

1c0023b4 <__rt_fc_cluster_unlock>:
  asm("csrr %0, 0x014" : "=r" (hart_id) : );
1c0023b4:	014027f3          	csrr	a5,uhartid
  return (hart_id >> 5) & 0x3f;
1c0023b8:	8795                	srai	a5,a5,0x5
1c0023ba:	f267b7b3          	p.bclr	a5,a5,25,6
}

void __rt_fc_cluster_unlock(rt_fc_lock_t *lock, rt_fc_lock_req_t *req)
{
  req->lock = lock;
  req->cid = rt_cluster_id();
1c0023be:	08f584a3          	sb	a5,137(a1)
  event->arg[0] = (uintptr_t)callback;
1c0023c2:	1c0027b7          	lui	a5,0x1c002
1c0023c6:	20a78793          	addi	a5,a5,522 # 1c00220a <__rt_fc_cluster_lock_req>
  req->lock = lock;
1c0023ca:	c188                	sw	a0,0(a1)
  req->done = 0;
1c0023cc:	08058423          	sb	zero,136(a1)
  req->req_lock = 0;
1c0023d0:	08058523          	sb	zero,138(a1)
  event->implem.pending = 0;
1c0023d4:	0205a623          	sw	zero,44(a1)
  event->implem.keep = 0;
1c0023d8:	0205a823          	sw	zero,48(a1)
  event->arg[0] = (uintptr_t)callback;
1c0023dc:	c5dc                	sw	a5,12(a1)
  event->arg[1] = (uintptr_t)arg;
1c0023de:	c98c                	sw	a1,16(a1)
  __rt_init_event(&req->event, __rt_cluster_sched_get(), __rt_fc_cluster_lock_req, (void *)req);
1c0023e0:	05a1                	addi	a1,a1,8
1c0023e2:	c005c533          	p.bset	a0,a1,0,0
1c0023e6:	1aa0106f          	j	1c003590 <__rt_cluster_push_fc_event>

1c0023ea <__rt_event_enqueue>:

    __rt_wait_event_check(event, call_event);
  }

  rt_irq_restore(irq);
}
1c0023ea:	01c02683          	lw	a3,28(zero) # 1c <_l1_preload_size>
1c0023ee:	00052023          	sw	zero,0(a0)
1c0023f2:	01c00713          	li	a4,28
1c0023f6:	c689                	beqz	a3,1c002400 <__rt_event_enqueue+0x16>
1c0023f8:	435c                	lw	a5,4(a4)
1c0023fa:	c388                	sw	a0,0(a5)
1c0023fc:	c348                	sw	a0,4(a4)
1c0023fe:	8082                	ret
1c002400:	00a02e23          	sw	a0,28(zero) # 1c <_l1_preload_size>
1c002404:	bfe5                	j	1c0023fc <__rt_event_enqueue+0x12>

1c002406 <__rt_bridge_check_bridge_req.part.5>:
1c002406:	1c006737          	lui	a4,0x1c006
1c00240a:	c0870793          	addi	a5,a4,-1016 # 1c005c08 <__hal_debug_struct>
1c00240e:	0a47a783          	lw	a5,164(a5)
1c002412:	c0870713          	addi	a4,a4,-1016
1c002416:	c789                	beqz	a5,1c002420 <__rt_bridge_check_bridge_req.part.5+0x1a>
1c002418:	4f94                	lw	a3,24(a5)
1c00241a:	e681                	bnez	a3,1c002422 <__rt_bridge_check_bridge_req.part.5+0x1c>
1c00241c:	0af72623          	sw	a5,172(a4)
1c002420:	8082                	ret
1c002422:	479c                	lw	a5,8(a5)
1c002424:	bfcd                	j	1c002416 <__rt_bridge_check_bridge_req.part.5+0x10>

1c002426 <__rt_bridge_wait>:
1c002426:	014027f3          	csrr	a5,uhartid
1c00242a:	02000713          	li	a4,32
1c00242e:	ca5797b3          	p.extractu	a5,a5,5,5
1c002432:	02e79c63          	bne	a5,a4,1c00246a <__rt_bridge_wait+0x44>
1c002436:	1141                	addi	sp,sp,-16
1c002438:	c422                	sw	s0,8(sp)
1c00243a:	1a106437          	lui	s0,0x1a106
1c00243e:	c606                	sw	ra,12(sp)
1c002440:	00442783          	lw	a5,4(s0) # 1a106004 <__l1_end+0xa105fe4>
1c002444:	c187b7b3          	p.bclr	a5,a5,0,24
1c002448:	00f42223          	sw	a5,4(s0)
1c00244c:	4585                	li	a1,1
1c00244e:	03800513          	li	a0,56
1c002452:	0e9000ef          	jal	ra,1c002d3a <__rt_periph_wait_event>
1c002456:	00442783          	lw	a5,4(s0)
1c00245a:	c187c7b3          	p.bset	a5,a5,0,24
1c00245e:	00f42223          	sw	a5,4(s0)
1c002462:	40b2                	lw	ra,12(sp)
1c002464:	4422                	lw	s0,8(sp)
1c002466:	0141                	addi	sp,sp,16
1c002468:	8082                	ret
1c00246a:	8082                	ret

1c00246c <__rt_bridge_handle_notif>:
1c00246c:	1141                	addi	sp,sp,-16
1c00246e:	c422                	sw	s0,8(sp)
1c002470:	1c006437          	lui	s0,0x1c006
1c002474:	c0840793          	addi	a5,s0,-1016 # 1c005c08 <__hal_debug_struct>
1c002478:	0a47a783          	lw	a5,164(a5)
1c00247c:	c606                	sw	ra,12(sp)
1c00247e:	c226                	sw	s1,4(sp)
1c002480:	c04a                	sw	s2,0(sp)
1c002482:	c0840413          	addi	s0,s0,-1016
1c002486:	c399                	beqz	a5,1c00248c <__rt_bridge_handle_notif+0x20>
1c002488:	4bd8                	lw	a4,20(a5)
1c00248a:	e30d                	bnez	a4,1c0024ac <__rt_bridge_handle_notif+0x40>
1c00248c:	0b442783          	lw	a5,180(s0)
1c002490:	c789                	beqz	a5,1c00249a <__rt_bridge_handle_notif+0x2e>
1c002492:	43a8                	lw	a0,64(a5)
1c002494:	0a042a23          	sw	zero,180(s0)
1c002498:	3f89                	jal	1c0023ea <__rt_event_enqueue>
1c00249a:	0ac42783          	lw	a5,172(s0)
1c00249e:	eb95                	bnez	a5,1c0024d2 <__rt_bridge_handle_notif+0x66>
1c0024a0:	4422                	lw	s0,8(sp)
1c0024a2:	40b2                	lw	ra,12(sp)
1c0024a4:	4492                	lw	s1,4(sp)
1c0024a6:	4902                	lw	s2,0(sp)
1c0024a8:	0141                	addi	sp,sp,16
1c0024aa:	bfb1                	j	1c002406 <__rt_bridge_check_bridge_req.part.5>
1c0024ac:	4784                	lw	s1,8(a5)
1c0024ae:	4fd8                	lw	a4,28(a5)
1c0024b0:	0a942223          	sw	s1,164(s0)
1c0024b4:	cb01                	beqz	a4,1c0024c4 <__rt_bridge_handle_notif+0x58>
1c0024b6:	0b042703          	lw	a4,176(s0)
1c0024ba:	c798                	sw	a4,8(a5)
1c0024bc:	0af42823          	sw	a5,176(s0)
1c0024c0:	87a6                	mv	a5,s1
1c0024c2:	b7d1                	j	1c002486 <__rt_bridge_handle_notif+0x1a>
1c0024c4:	43a8                	lw	a0,64(a5)
1c0024c6:	30047973          	csrrci	s2,mstatus,8
1c0024ca:	3705                	jal	1c0023ea <__rt_event_enqueue>
1c0024cc:	30091073          	csrw	mstatus,s2
1c0024d0:	bfc5                	j	1c0024c0 <__rt_bridge_handle_notif+0x54>
1c0024d2:	40b2                	lw	ra,12(sp)
1c0024d4:	4422                	lw	s0,8(sp)
1c0024d6:	4492                	lw	s1,4(sp)
1c0024d8:	4902                	lw	s2,0(sp)
1c0024da:	0141                	addi	sp,sp,16
1c0024dc:	8082                	ret

1c0024de <__rt_bridge_check_connection>:
1c0024de:	1c0066b7          	lui	a3,0x1c006
1c0024e2:	c0868693          	addi	a3,a3,-1016 # 1c005c08 <__hal_debug_struct>
1c0024e6:	469c                	lw	a5,8(a3)
1c0024e8:	ef9d                	bnez	a5,1c002526 <__rt_bridge_check_connection+0x48>
1c0024ea:	1a1047b7          	lui	a5,0x1a104
1c0024ee:	07478793          	addi	a5,a5,116 # 1a104074 <__l1_end+0xa104054>
1c0024f2:	4398                	lw	a4,0(a5)
1c0024f4:	8325                	srli	a4,a4,0x9
1c0024f6:	f8373733          	p.bclr	a4,a4,28,3
1c0024fa:	02773663          	p.bneimm	a4,7,1c002526 <__rt_bridge_check_connection+0x48>
1c0024fe:	1141                	addi	sp,sp,-16
1c002500:	c422                	sw	s0,8(sp)
1c002502:	c606                	sw	ra,12(sp)
1c002504:	4705                	li	a4,1
1c002506:	c698                	sw	a4,8(a3)
1c002508:	4709                	li	a4,2
1c00250a:	c398                	sw	a4,0(a5)
1c00250c:	843e                	mv	s0,a5
1c00250e:	401c                	lw	a5,0(s0)
1c002510:	83a5                	srli	a5,a5,0x9
1c002512:	f837b7b3          	p.bclr	a5,a5,28,3
1c002516:	0077a663          	p.beqimm	a5,7,1c002522 <__rt_bridge_check_connection+0x44>
1c00251a:	40b2                	lw	ra,12(sp)
1c00251c:	4422                	lw	s0,8(sp)
1c00251e:	0141                	addi	sp,sp,16
1c002520:	8082                	ret
1c002522:	3711                	jal	1c002426 <__rt_bridge_wait>
1c002524:	b7ed                	j	1c00250e <__rt_bridge_check_connection+0x30>
1c002526:	8082                	ret

1c002528 <__rt_bridge_set_available>:
1c002528:	1c0067b7          	lui	a5,0x1c006
1c00252c:	c0878793          	addi	a5,a5,-1016 # 1c005c08 <__hal_debug_struct>
1c002530:	4798                	lw	a4,8(a5)
1c002532:	1a1047b7          	lui	a5,0x1a104
1c002536:	07478793          	addi	a5,a5,116 # 1a104074 <__l1_end+0xa104054>
1c00253a:	e701                	bnez	a4,1c002542 <__rt_bridge_set_available+0x1a>
1c00253c:	4721                	li	a4,8
1c00253e:	c398                	sw	a4,0(a5)
1c002540:	8082                	ret
1c002542:	4709                	li	a4,2
1c002544:	bfed                	j	1c00253e <__rt_bridge_set_available+0x16>

1c002546 <__rt_bridge_send_notif>:
1c002546:	1141                	addi	sp,sp,-16
1c002548:	c606                	sw	ra,12(sp)
1c00254a:	3f51                	jal	1c0024de <__rt_bridge_check_connection>
1c00254c:	1c0067b7          	lui	a5,0x1c006
1c002550:	c0878793          	addi	a5,a5,-1016 # 1c005c08 <__hal_debug_struct>
1c002554:	479c                	lw	a5,8(a5)
1c002556:	c789                	beqz	a5,1c002560 <__rt_bridge_send_notif+0x1a>
1c002558:	1a1047b7          	lui	a5,0x1a104
1c00255c:	4719                	li	a4,6
1c00255e:	dbf8                	sw	a4,116(a5)
1c002560:	40b2                	lw	ra,12(sp)
1c002562:	0141                	addi	sp,sp,16
1c002564:	8082                	ret

1c002566 <__rt_bridge_clear_notif>:
  #endif
  }
}

void __rt_bridge_clear_notif()
{
1c002566:	1141                	addi	sp,sp,-16
1c002568:	c606                	sw	ra,12(sp)
  hal_debug_struct_t *debug_struct = hal_debug_struct_get();

  __rt_bridge_check_connection();
1c00256a:	3f95                	jal	1c0024de <__rt_bridge_check_connection>

  if (debug_struct->bridge.connected)
1c00256c:	1c0067b7          	lui	a5,0x1c006
1c002570:	c0878793          	addi	a5,a5,-1016 # 1c005c08 <__hal_debug_struct>
1c002574:	479c                	lw	a5,8(a5)
1c002576:	c781                	beqz	a5,1c00257e <__rt_bridge_clear_notif+0x18>
  {
    __rt_bridge_set_available();
  }
}
1c002578:	40b2                	lw	ra,12(sp)
1c00257a:	0141                	addi	sp,sp,16
    __rt_bridge_set_available();
1c00257c:	b775                	j	1c002528 <__rt_bridge_set_available>
}
1c00257e:	40b2                	lw	ra,12(sp)
1c002580:	0141                	addi	sp,sp,16
1c002582:	8082                	ret

1c002584 <__rt_bridge_printf_flush>:
{
1c002584:	1141                	addi	sp,sp,-16
1c002586:	c422                	sw	s0,8(sp)
1c002588:	c606                	sw	ra,12(sp)
  if (debug_struct->bridge.connected)
1c00258a:	1c006437          	lui	s0,0x1c006
  __rt_bridge_check_connection();
1c00258e:	3f81                	jal	1c0024de <__rt_bridge_check_connection>
  if (debug_struct->bridge.connected)
1c002590:	c0840793          	addi	a5,s0,-1016 # 1c005c08 <__hal_debug_struct>
1c002594:	479c                	lw	a5,8(a5)
1c002596:	c385                	beqz	a5,1c0025b6 <__rt_bridge_printf_flush+0x32>
1c002598:	c0840413          	addi	s0,s0,-1016
  return *(volatile uint32_t *)&debug_struct->putc_current == 0;
}

static inline int hal_debug_is_busy(hal_debug_struct_t *debug_struct)
{
  return *(volatile uint32_t *)&debug_struct->pending_putchar;
1c00259c:	485c                	lw	a5,20(s0)
    if (hal_debug_is_busy(hal_debug_struct_get()) || !hal_debug_is_empty(hal_debug_struct_get()))
1c00259e:	e399                	bnez	a5,1c0025a4 <__rt_bridge_printf_flush+0x20>
  return *(volatile uint32_t *)&debug_struct->putc_current == 0;
1c0025a0:	4c1c                	lw	a5,24(s0)
1c0025a2:	cb91                	beqz	a5,1c0025b6 <__rt_bridge_printf_flush+0x32>
      __rt_bridge_send_notif();
1c0025a4:	374d                	jal	1c002546 <__rt_bridge_send_notif>
  return *(volatile uint32_t *)&debug_struct->pending_putchar;
1c0025a6:	485c                	lw	a5,20(s0)
      while(hal_debug_is_busy(hal_debug_struct_get()))
1c0025a8:	e789                	bnez	a5,1c0025b2 <__rt_bridge_printf_flush+0x2e>
}
1c0025aa:	4422                	lw	s0,8(sp)
1c0025ac:	40b2                	lw	ra,12(sp)
1c0025ae:	0141                	addi	sp,sp,16
      __rt_bridge_clear_notif();
1c0025b0:	bf5d                	j	1c002566 <__rt_bridge_clear_notif>
        __rt_bridge_wait();
1c0025b2:	3d95                	jal	1c002426 <__rt_bridge_wait>
1c0025b4:	bfcd                	j	1c0025a6 <__rt_bridge_printf_flush+0x22>
}
1c0025b6:	40b2                	lw	ra,12(sp)
1c0025b8:	4422                	lw	s0,8(sp)
1c0025ba:	0141                	addi	sp,sp,16
1c0025bc:	8082                	ret

1c0025be <__rt_bridge_req_shutdown>:
{
1c0025be:	1141                	addi	sp,sp,-16
1c0025c0:	c606                	sw	ra,12(sp)
1c0025c2:	c422                	sw	s0,8(sp)
  __rt_bridge_check_connection();
1c0025c4:	3f29                	jal	1c0024de <__rt_bridge_check_connection>
  if (debug_struct->bridge.connected)
1c0025c6:	1c0067b7          	lui	a5,0x1c006
1c0025ca:	c0878793          	addi	a5,a5,-1016 # 1c005c08 <__hal_debug_struct>
1c0025ce:	479c                	lw	a5,8(a5)
1c0025d0:	c7a1                	beqz	a5,1c002618 <__rt_bridge_req_shutdown+0x5a>




static inline unsigned int apb_soc_jtag_reg_read() {
  return pulp_read32(ARCHI_APB_SOC_CTRL_ADDR + APB_SOC_JTAGREG_OFFSET);
1c0025d2:	1a104437          	lui	s0,0x1a104
    __rt_bridge_printf_flush();
1c0025d6:	377d                	jal	1c002584 <__rt_bridge_printf_flush>
1c0025d8:	07440413          	addi	s0,s0,116 # 1a104074 <__l1_end+0xa104054>
1c0025dc:	401c                	lw	a5,0(s0)
    while((apb_soc_jtag_reg_ext(apb_soc_jtag_reg_read()) >> 1) == 7)
1c0025de:	83a5                	srli	a5,a5,0x9
1c0025e0:	f837b7b3          	p.bclr	a5,a5,28,3
1c0025e4:	0277ae63          	p.beqimm	a5,7,1c002620 <__rt_bridge_req_shutdown+0x62>
}

static inline void apb_soc_jtag_reg_write(unsigned int value) {
  pulp_write32(ARCHI_APB_SOC_CTRL_ADDR + APB_SOC_JTAGREG_OFFSET, value);
1c0025e8:	4791                	li	a5,4
1c0025ea:	c01c                	sw	a5,0(s0)
  return pulp_read32(ARCHI_APB_SOC_CTRL_ADDR + APB_SOC_JTAGREG_OFFSET);
1c0025ec:	1a104437          	lui	s0,0x1a104
1c0025f0:	07440413          	addi	s0,s0,116 # 1a104074 <__l1_end+0xa104054>
1c0025f4:	401c                	lw	a5,0(s0)
    while((apb_soc_jtag_reg_ext(apb_soc_jtag_reg_read()) >> 1) != 7)
1c0025f6:	83a5                	srli	a5,a5,0x9
1c0025f8:	f837b7b3          	p.bclr	a5,a5,28,3
1c0025fc:	0277b463          	p.bneimm	a5,7,1c002624 <__rt_bridge_req_shutdown+0x66>
  pulp_write32(ARCHI_APB_SOC_CTRL_ADDR + APB_SOC_JTAGREG_OFFSET, value);
1c002600:	00042023          	sw	zero,0(s0)
  return pulp_read32(ARCHI_APB_SOC_CTRL_ADDR + APB_SOC_JTAGREG_OFFSET);
1c002604:	1a104437          	lui	s0,0x1a104
1c002608:	07440413          	addi	s0,s0,116 # 1a104074 <__l1_end+0xa104054>
1c00260c:	401c                	lw	a5,0(s0)
    while((apb_soc_jtag_reg_ext(apb_soc_jtag_reg_read()) >> 1) == 7)
1c00260e:	83a5                	srli	a5,a5,0x9
1c002610:	f837b7b3          	p.bclr	a5,a5,28,3
1c002614:	0077aa63          	p.beqimm	a5,7,1c002628 <__rt_bridge_req_shutdown+0x6a>
}
1c002618:	40b2                	lw	ra,12(sp)
1c00261a:	4422                	lw	s0,8(sp)
1c00261c:	0141                	addi	sp,sp,16
1c00261e:	8082                	ret
      __rt_bridge_wait();
1c002620:	3519                	jal	1c002426 <__rt_bridge_wait>
1c002622:	bf6d                	j	1c0025dc <__rt_bridge_req_shutdown+0x1e>
      __rt_bridge_wait();
1c002624:	3509                	jal	1c002426 <__rt_bridge_wait>
1c002626:	b7f9                	j	1c0025f4 <__rt_bridge_req_shutdown+0x36>
      __rt_bridge_wait();
1c002628:	3bfd                	jal	1c002426 <__rt_bridge_wait>
1c00262a:	b7cd                	j	1c00260c <__rt_bridge_req_shutdown+0x4e>

1c00262c <__rt_bridge_init>:

RT_FC_BOOT_CODE void __attribute__((constructor)) __rt_bridge_init()
{
  hal_bridge_t *bridge = hal_bridge_get();
  
  bridge->first_req = 0;
1c00262c:	1c0067b7          	lui	a5,0x1c006
  bridge->notif_req_addr = ARCHI_FC_ITC_ADDR + ITC_STATUS_SET_OFFSET;
  bridge->notif_req_value = 1<<RT_BRIDGE_ENQUEUE_EVENT;
#else
#if defined(EU_VERSION) && EU_VERSION >= 3
#if defined(ARCHI_HAS_FC)
  bridge->notif_req_addr = ARCHI_FC_GLOBAL_ADDR + ARCHI_FC_PERIPHERALS_OFFSET + ARCHI_FC_EU_OFFSET + EU_SW_EVENTS_AREA_BASE + EU_CORE_TRIGG_SW_EVENT + (RT_BRIDGE_ENQUEUE_EVENT << 2);
1c002630:	1b201737          	lui	a4,0x1b201
  bridge->first_req = 0;
1c002634:	c0878793          	addi	a5,a5,-1016 # 1c005c08 <__hal_debug_struct>
  bridge->notif_req_addr = ARCHI_FC_GLOBAL_ADDR + ARCHI_FC_PERIPHERALS_OFFSET + ARCHI_FC_EU_OFFSET + EU_SW_EVENTS_AREA_BASE + EU_CORE_TRIGG_SW_EVENT + (RT_BRIDGE_ENQUEUE_EVENT << 2);
1c002638:	e1070713          	addi	a4,a4,-496 # 1b200e10 <__fc_tcdm_end+0x1ffa40>
1c00263c:	0ae7ac23          	sw	a4,184(a5)
  bridge->notif_req_value = 1;
1c002640:	4705                	li	a4,1
  bridge->first_req = 0;
1c002642:	0a07a223          	sw	zero,164(a5)
  bridge->first_bridge_req = 0;
1c002646:	0a07a623          	sw	zero,172(a5)
  bridge->target_req = 0;
1c00264a:	0a07aa23          	sw	zero,180(a5)
  bridge->notif_req_value = 1;
1c00264e:	0ae7ae23          	sw	a4,188(a5)
#endif
#endif
#endif

  __rt_bridge_eeprom_handle = NULL;
1c002652:	00400793          	li	a5,4
1c002656:	0007a823          	sw	zero,16(a5)
  __rt_bridge_flash_handle = NULL;
1c00265a:	0007a023          	sw	zero,0(a5)
}
1c00265e:	8082                	ret

1c002660 <__rt_event_init>:
{
  __rt_event_execute(sched, 0);
  rt_wait_for_interrupt();
  rt_irq_enable();
  rt_irq_disable();
}
1c002660:	1141                	addi	sp,sp,-16
1c002662:	c422                	sw	s0,8(sp)
1c002664:	c606                	sw	ra,12(sp)
1c002666:	842a                	mv	s0,a0
1c002668:	02052223          	sw	zero,36(a0)
1c00266c:	02052423          	sw	zero,40(a0)
1c002670:	45c1                	li	a1,16
1c002672:	4501                	li	a0,0
1c002674:	24b5                	jal	1c0028e0 <rt_alloc>
1c002676:	dc68                	sw	a0,124(s0)
1c002678:	02042a23          	sw	zero,52(s0)
1c00267c:	00042223          	sw	zero,4(s0)
1c002680:	40b2                	lw	ra,12(sp)
1c002682:	4422                	lw	s0,8(sp)
1c002684:	0141                	addi	sp,sp,16
1c002686:	8082                	ret

1c002688 <__rt_wait_event_prepare_blocking>:
1c002688:	01800793          	li	a5,24
1c00268c:	4388                	lw	a0,0(a5)
1c00268e:	4118                	lw	a4,0(a0)
1c002690:	02052423          	sw	zero,40(a0)
1c002694:	00052223          	sw	zero,4(a0)
1c002698:	c398                	sw	a4,0(a5)
1c00269a:	4785                	li	a5,1
1c00269c:	d15c                	sw	a5,36(a0)
1c00269e:	8082                	ret

1c0026a0 <rt_event_alloc>:
1c0026a0:	1101                	addi	sp,sp,-32
1c0026a2:	c64e                	sw	s3,12(sp)
1c0026a4:	89ae                	mv	s3,a1
1c0026a6:	ce06                	sw	ra,28(sp)
1c0026a8:	cc22                	sw	s0,24(sp)
1c0026aa:	ca26                	sw	s1,20(sp)
1c0026ac:	c84a                	sw	s2,16(sp)
1c0026ae:	c452                	sw	s4,8(sp)
1c0026b0:	c256                	sw	s5,4(sp)
1c0026b2:	30047a73          	csrrci	s4,mstatus,8
1c0026b6:	014027f3          	csrr	a5,uhartid
1c0026ba:	8795                	srai	a5,a5,0x5
1c0026bc:	f267b7b3          	p.bclr	a5,a5,25,6
1c0026c0:	02000713          	li	a4,32
1c0026c4:	00278513          	addi	a0,a5,2
1c0026c8:	00e79363          	bne	a5,a4,1c0026ce <rt_event_alloc+0x2e>
1c0026cc:	4505                	li	a0,1
1c0026ce:	00799593          	slli	a1,s3,0x7
1c0026d2:	2439                	jal	1c0028e0 <rt_alloc>
1c0026d4:	842a                	mv	s0,a0
1c0026d6:	557d                	li	a0,-1
1c0026d8:	c819                	beqz	s0,1c0026ee <rt_event_alloc+0x4e>
1c0026da:	01800493          	li	s1,24
1c0026de:	4901                	li	s2,0
1c0026e0:	00448a93          	addi	s5,s1,4
1c0026e4:	01394e63          	blt	s2,s3,1c002700 <rt_event_alloc+0x60>
1c0026e8:	300a1073          	csrw	mstatus,s4
1c0026ec:	4501                	li	a0,0
1c0026ee:	40f2                	lw	ra,28(sp)
1c0026f0:	4462                	lw	s0,24(sp)
1c0026f2:	44d2                	lw	s1,20(sp)
1c0026f4:	4942                	lw	s2,16(sp)
1c0026f6:	49b2                	lw	s3,12(sp)
1c0026f8:	4a22                	lw	s4,8(sp)
1c0026fa:	4a92                	lw	s5,4(sp)
1c0026fc:	6105                	addi	sp,sp,32
1c0026fe:	8082                	ret
1c002700:	8522                	mv	a0,s0
1c002702:	85d6                	mv	a1,s5
1c002704:	3fb1                	jal	1c002660 <__rt_event_init>
1c002706:	409c                	lw	a5,0(s1)
1c002708:	0905                	addi	s2,s2,1
1c00270a:	c01c                	sw	a5,0(s0)
1c00270c:	c080                	sw	s0,0(s1)
1c00270e:	08040413          	addi	s0,s0,128
1c002712:	bfc9                	j	1c0026e4 <rt_event_alloc+0x44>

1c002714 <rt_event_get>:
1c002714:	30047773          	csrrci	a4,mstatus,8
1c002718:	01800793          	li	a5,24
1c00271c:	4388                	lw	a0,0(a5)
1c00271e:	c509                	beqz	a0,1c002728 <rt_event_get+0x14>
1c002720:	4114                	lw	a3,0(a0)
1c002722:	c14c                	sw	a1,4(a0)
1c002724:	c510                	sw	a2,8(a0)
1c002726:	c394                	sw	a3,0(a5)
1c002728:	30071073          	csrw	mstatus,a4
1c00272c:	8082                	ret

1c00272e <rt_event_get_blocking>:
1c00272e:	30047773          	csrrci	a4,mstatus,8
1c002732:	01800793          	li	a5,24
1c002736:	4388                	lw	a0,0(a5)
1c002738:	c909                	beqz	a0,1c00274a <rt_event_get_blocking+0x1c>
1c00273a:	4114                	lw	a3,0(a0)
1c00273c:	00052223          	sw	zero,4(a0)
1c002740:	00052423          	sw	zero,8(a0)
1c002744:	c394                	sw	a3,0(a5)
1c002746:	4785                	li	a5,1
1c002748:	d15c                	sw	a5,36(a0)
1c00274a:	30071073          	csrw	mstatus,a4
1c00274e:	8082                	ret

1c002750 <rt_event_push>:
1c002750:	30047773          	csrrci	a4,mstatus,8
1c002754:	01800693          	li	a3,24
1c002758:	42d4                	lw	a3,4(a3)
1c00275a:	00052023          	sw	zero,0(a0)
1c00275e:	01800793          	li	a5,24
1c002762:	e691                	bnez	a3,1c00276e <rt_event_push+0x1e>
1c002764:	c3c8                	sw	a0,4(a5)
1c002766:	c788                	sw	a0,8(a5)
1c002768:	30071073          	csrw	mstatus,a4
1c00276c:	8082                	ret
1c00276e:	4794                	lw	a3,8(a5)
1c002770:	c288                	sw	a0,0(a3)
1c002772:	bfd5                	j	1c002766 <rt_event_push+0x16>

1c002774 <__rt_event_execute>:
1c002774:	1141                	addi	sp,sp,-16
1c002776:	c422                	sw	s0,8(sp)
1c002778:	01800793          	li	a5,24
1c00277c:	43dc                	lw	a5,4(a5)
1c00277e:	c606                	sw	ra,12(sp)
1c002780:	c226                	sw	s1,4(sp)
1c002782:	01800413          	li	s0,24
1c002786:	ef81                	bnez	a5,1c00279e <__rt_event_execute+0x2a>
1c002788:	c1b9                	beqz	a1,1c0027ce <__rt_event_execute+0x5a>
1c00278a:	002047b7          	lui	a5,0x204
1c00278e:	0387e703          	p.elw	a4,56(a5) # 204038 <__L2+0x184038>
1c002792:	300467f3          	csrrsi	a5,mstatus,8
1c002796:	300477f3          	csrrci	a5,mstatus,8
1c00279a:	405c                	lw	a5,4(s0)
1c00279c:	cb8d                	beqz	a5,1c0027ce <__rt_event_execute+0x5a>
1c00279e:	4485                	li	s1,1
1c0027a0:	4398                	lw	a4,0(a5)
1c0027a2:	5794                	lw	a3,40(a5)
1c0027a4:	00978a23          	sb	s1,20(a5)
1c0027a8:	c058                	sw	a4,4(s0)
1c0027aa:	4788                	lw	a0,8(a5)
1c0027ac:	43d8                	lw	a4,4(a5)
1c0027ae:	e691                	bnez	a3,1c0027ba <__rt_event_execute+0x46>
1c0027b0:	53d4                	lw	a3,36(a5)
1c0027b2:	e681                	bnez	a3,1c0027ba <__rt_event_execute+0x46>
1c0027b4:	4014                	lw	a3,0(s0)
1c0027b6:	c394                	sw	a3,0(a5)
1c0027b8:	c01c                	sw	a5,0(s0)
1c0027ba:	0207a223          	sw	zero,36(a5)
1c0027be:	c711                	beqz	a4,1c0027ca <__rt_event_execute+0x56>
1c0027c0:	300467f3          	csrrsi	a5,mstatus,8
1c0027c4:	9702                	jalr	a4
1c0027c6:	300477f3          	csrrci	a5,mstatus,8
1c0027ca:	405c                	lw	a5,4(s0)
1c0027cc:	fbf1                	bnez	a5,1c0027a0 <__rt_event_execute+0x2c>
1c0027ce:	40b2                	lw	ra,12(sp)
1c0027d0:	4422                	lw	s0,8(sp)
1c0027d2:	4492                	lw	s1,4(sp)
1c0027d4:	0141                	addi	sp,sp,16
1c0027d6:	8082                	ret

1c0027d8 <__rt_wait_event>:
  } while(event);

}

void __rt_wait_event(rt_event_t *event)
{
1c0027d8:	1141                	addi	sp,sp,-16
1c0027da:	c422                	sw	s0,8(sp)
1c0027dc:	c606                	sw	ra,12(sp)
1c0027de:	842a                	mv	s0,a0
  while (event->implem.pending || event->implem.saved_pending) {
1c0027e0:	505c                	lw	a5,36(s0)
1c0027e2:	ef81                	bnez	a5,1c0027fa <__rt_wait_event+0x22>
1c0027e4:	585c                	lw	a5,52(s0)
1c0027e6:	eb91                	bnez	a5,1c0027fa <__rt_wait_event+0x22>
    __rt_event_execute(NULL, 1);
  }

  event->next = __rt_first_free;
1c0027e8:	01800793          	li	a5,24
1c0027ec:	4398                	lw	a4,0(a5)
  __rt_first_free = event;
}
1c0027ee:	40b2                	lw	ra,12(sp)
  event->next = __rt_first_free;
1c0027f0:	c018                	sw	a4,0(s0)
  __rt_first_free = event;
1c0027f2:	c380                	sw	s0,0(a5)
}
1c0027f4:	4422                	lw	s0,8(sp)
1c0027f6:	0141                	addi	sp,sp,16
1c0027f8:	8082                	ret
    __rt_event_execute(NULL, 1);
1c0027fa:	4585                	li	a1,1
1c0027fc:	4501                	li	a0,0
1c0027fe:	3f9d                	jal	1c002774 <__rt_event_execute>
1c002800:	b7c5                	j	1c0027e0 <__rt_wait_event+0x8>

1c002802 <rt_event_wait>:

void rt_event_wait(rt_event_t *event)
{
1c002802:	1141                	addi	sp,sp,-16
1c002804:	c606                	sw	ra,12(sp)
1c002806:	c422                	sw	s0,8(sp)
  return __builtin_pulp_read_then_spr_bit_clr(reg, val);
1c002808:	30047473          	csrrci	s0,mstatus,8
  int irq = rt_irq_disable();
__rt_wait_event(event);
1c00280c:	37f1                	jal	1c0027d8 <__rt_wait_event>
  __builtin_pulp_spr_write(reg, val);
1c00280e:	30041073          	csrw	mstatus,s0
  rt_irq_restore(irq);
}
1c002812:	40b2                	lw	ra,12(sp)
1c002814:	4422                	lw	s0,8(sp)
1c002816:	0141                	addi	sp,sp,16
1c002818:	8082                	ret

1c00281a <__rt_event_sched_init>:

void __rt_event_sched_init()
{
  __rt_first_free = NULL;
1c00281a:	01800513          	li	a0,24
1c00281e:	00052023          	sw	zero,0(a0)
  sched->first = NULL;
1c002822:	00052223          	sw	zero,4(a0)
  rt_event_sched_init(&__rt_sched);
  // Push one event ot the runtime scheduler as some runtime services need
  // one event.
  rt_event_alloc(&__rt_sched, 1);
1c002826:	4585                	li	a1,1
1c002828:	0511                	addi	a0,a0,4
1c00282a:	bd9d                	j	1c0026a0 <rt_event_alloc>

1c00282c <rt_user_alloc_init>:
      flags++;
      if (flags == 3) flags = 0;
    }
    return NULL;
#else
    return rt_user_alloc_align(rt_alloc_l2(), size, align);
1c00282c:	00758793          	addi	a5,a1,7
1c002830:	c407b7b3          	p.bclr	a5,a5,2,0
1c002834:	40b785b3          	sub	a1,a5,a1
1c002838:	c11c                	sw	a5,0(a0)
1c00283a:	8e0d                	sub	a2,a2,a1
1c00283c:	00c05763          	blez	a2,1c00284a <rt_user_alloc_init+0x1e>
1c002840:	c4063633          	p.bclr	a2,a2,2,0
1c002844:	c390                	sw	a2,0(a5)
1c002846:	0007a223          	sw	zero,4(a5)
1c00284a:	8082                	ret

1c00284c <rt_user_alloc>:
1c00284c:	411c                	lw	a5,0(a0)
1c00284e:	059d                	addi	a1,a1,7
1c002850:	c405b5b3          	p.bclr	a1,a1,2,0
1c002854:	4701                	li	a4,0
1c002856:	cb89                	beqz	a5,1c002868 <rt_user_alloc+0x1c>
1c002858:	4394                	lw	a3,0(a5)
1c00285a:	43d0                	lw	a2,4(a5)
1c00285c:	00b6c863          	blt	a3,a1,1c00286c <rt_user_alloc+0x20>
1c002860:	00b69b63          	bne	a3,a1,1c002876 <rt_user_alloc+0x2a>
1c002864:	c719                	beqz	a4,1c002872 <rt_user_alloc+0x26>
1c002866:	c350                	sw	a2,4(a4)
1c002868:	853e                	mv	a0,a5
1c00286a:	8082                	ret
1c00286c:	873e                	mv	a4,a5
1c00286e:	87b2                	mv	a5,a2
1c002870:	b7dd                	j	1c002856 <rt_user_alloc+0xa>
1c002872:	c110                	sw	a2,0(a0)
1c002874:	bfd5                	j	1c002868 <rt_user_alloc+0x1c>
1c002876:	00b78833          	add	a6,a5,a1
1c00287a:	40b685b3          	sub	a1,a3,a1
1c00287e:	00b82023          	sw	a1,0(a6)
1c002882:	00c82223          	sw	a2,4(a6)
1c002886:	c701                	beqz	a4,1c00288e <rt_user_alloc+0x42>
1c002888:	01072223          	sw	a6,4(a4)
1c00288c:	bff1                	j	1c002868 <rt_user_alloc+0x1c>
1c00288e:	01052023          	sw	a6,0(a0)
1c002892:	bfd9                	j	1c002868 <rt_user_alloc+0x1c>

1c002894 <rt_user_free>:
1c002894:	411c                	lw	a5,0(a0)
1c002896:	061d                	addi	a2,a2,7
1c002898:	c4063633          	p.bclr	a2,a2,2,0
1c00289c:	4701                	li	a4,0
1c00289e:	c399                	beqz	a5,1c0028a4 <rt_user_free+0x10>
1c0028a0:	02b7e763          	bltu	a5,a1,1c0028ce <rt_user_free+0x3a>
1c0028a4:	00c586b3          	add	a3,a1,a2
1c0028a8:	02d79663          	bne	a5,a3,1c0028d4 <rt_user_free+0x40>
1c0028ac:	4394                	lw	a3,0(a5)
1c0028ae:	43dc                	lw	a5,4(a5)
1c0028b0:	9636                	add	a2,a2,a3
1c0028b2:	c190                	sw	a2,0(a1)
1c0028b4:	c1dc                	sw	a5,4(a1)
1c0028b6:	c31d                	beqz	a4,1c0028dc <rt_user_free+0x48>
1c0028b8:	4314                	lw	a3,0(a4)
1c0028ba:	00d707b3          	add	a5,a4,a3
1c0028be:	00f59d63          	bne	a1,a5,1c0028d8 <rt_user_free+0x44>
1c0028c2:	419c                	lw	a5,0(a1)
1c0028c4:	97b6                	add	a5,a5,a3
1c0028c6:	c31c                	sw	a5,0(a4)
1c0028c8:	41dc                	lw	a5,4(a1)
1c0028ca:	c35c                	sw	a5,4(a4)
1c0028cc:	8082                	ret
1c0028ce:	873e                	mv	a4,a5
1c0028d0:	43dc                	lw	a5,4(a5)
1c0028d2:	b7f1                	j	1c00289e <rt_user_free+0xa>
1c0028d4:	c190                	sw	a2,0(a1)
1c0028d6:	bff9                	j	1c0028b4 <rt_user_free+0x20>
1c0028d8:	c34c                	sw	a1,4(a4)
1c0028da:	8082                	ret
1c0028dc:	c10c                	sw	a1,0(a0)
1c0028de:	8082                	ret

1c0028e0 <rt_alloc>:
1c0028e0:	4785                	li	a5,1
1c0028e2:	00a7fa63          	bleu	a0,a5,1c0028f6 <rt_alloc+0x16>
1c0028e6:	1c00e7b7          	lui	a5,0x1c00e
1c0028ea:	f607a783          	lw	a5,-160(a5) # 1c00df60 <__rt_alloc_l1>
1c0028ee:	1579                	addi	a0,a0,-2
1c0028f0:	050a                	slli	a0,a0,0x2
1c0028f2:	953e                	add	a0,a0,a5
1c0028f4:	bfa1                	j	1c00284c <rt_user_alloc>
1c0028f6:	00153763          	p.bneimm	a0,1,1c002904 <rt_alloc+0x24>
1c0028fa:	1c00e537          	lui	a0,0x1c00e
1c0028fe:	f6850513          	addi	a0,a0,-152 # 1c00df68 <__rt_alloc_fc_tcdm>
1c002902:	bfcd                	j	1c0028f4 <rt_alloc+0x14>
1c002904:	1c00e537          	lui	a0,0x1c00e
1c002908:	f6450513          	addi	a0,a0,-156 # 1c00df64 <__rt_alloc_l2>
1c00290c:	b7e5                	j	1c0028f4 <rt_alloc+0x14>

1c00290e <__rt_alloc_init_l1>:
#if defined(ARCHI_HAS_L1)
void __rt_alloc_init_l1(int cid)
{
  // TODO support multu cluster
  rt_trace(RT_TRACE_INIT, "Initializing L1 allocator (cluster: %d, base: 0x%8x, size: 0x%8x)\n", cid, (int)rt_l1_base(cid), rt_l1_size(cid));
  rt_user_alloc_init(&__rt_alloc_l1[cid], rt_l1_base(cid), rt_l1_size(cid));
1c00290e:	1c00e7b7          	lui	a5,0x1c00e
1c002912:	f607a703          	lw	a4,-160(a5) # 1c00df60 <__rt_alloc_l1>
1c002916:	100007b7          	lui	a5,0x10000
  return ((char *)&__l1_heap_start) + cid * ARCHI_CLUSTER_SIZE;
1c00291a:	01651593          	slli	a1,a0,0x16
1c00291e:	6641                	lui	a2,0x10
1c002920:	050a                	slli	a0,a0,0x2
1c002922:	02078793          	addi	a5,a5,32 # 10000020 <__l1_end>
1c002926:	fe060613          	addi	a2,a2,-32 # ffe0 <__l1_heap_size>
1c00292a:	95be                	add	a1,a1,a5
1c00292c:	953a                	add	a0,a0,a4
1c00292e:	bdfd                	j	1c00282c <rt_user_alloc_init>

1c002930 <__rt_alloc_init_l1_for_fc>:
1c002930:	100005b7          	lui	a1,0x10000
1c002934:	01651793          	slli	a5,a0,0x16
1c002938:	02058593          	addi	a1,a1,32 # 10000020 <__l1_end>
1c00293c:	00b78733          	add	a4,a5,a1

  int size = sizeof(rt_alloc_t)*rt_nb_cluster();
  __rt_alloc_l1 = (rt_alloc_t *)rt_l1_base(cid);

  rt_trace(RT_TRACE_INIT, "Initializing L1 allocator (cluster: %d, base: 0x%8x, size: 0x%8x)\n", cid, (int)rt_l1_base(cid)+size, rt_l1_size(cid)-size);
  rt_user_alloc_init(&__rt_alloc_l1[cid], rt_l1_base(cid)+size, rt_l1_size(cid)-size);
1c002940:	050a                	slli	a0,a0,0x2
1c002942:	0791                	addi	a5,a5,4
1c002944:	6641                	lui	a2,0x10
  __rt_alloc_l1 = (rt_alloc_t *)rt_l1_base(cid);
1c002946:	1c00e6b7          	lui	a3,0x1c00e
  rt_user_alloc_init(&__rt_alloc_l1[cid], rt_l1_base(cid)+size, rt_l1_size(cid)-size);
1c00294a:	fdc60613          	addi	a2,a2,-36 # ffdc <__rt_stack_size+0xf7dc>
1c00294e:	95be                	add	a1,a1,a5
1c002950:	953a                	add	a0,a0,a4
  __rt_alloc_l1 = (rt_alloc_t *)rt_l1_base(cid);
1c002952:	f6e6a023          	sw	a4,-160(a3) # 1c00df60 <__rt_alloc_l1>
  rt_user_alloc_init(&__rt_alloc_l1[cid], rt_l1_base(cid)+size, rt_l1_size(cid)-size);
1c002956:	bdd9                	j	1c00282c <rt_user_alloc_init>

1c002958 <__rt_allocs_init>:
static inline int rt_l2_size() { return ARCHI_L2_ADDR + ARCHI_L2_SIZE - (int)&__l2_end; }
1c002958:	1c00e5b7          	lui	a1,0x1c00e
1c00295c:	fc458793          	addi	a5,a1,-60 # 1c00dfc4 <__l2_end>
  __rt_alloc_l2[2].first_bank_addr = ARCHI_L2_SHARED_ADDR;
  __rt_alloc_account_free(&__rt_alloc_l2[2], rt_l2_shared_base() - sizeof(rt_alloc_chunk_t), rt_l2_shared_size() + sizeof(rt_alloc_chunk_t));
#endif
#else
  rt_trace(RT_TRACE_INIT, "Initializing L2 allocator (base: 0x%8x, size: 0x%8x)\n", (int)rt_l2_base(), rt_l2_size());
  rt_user_alloc_init(&__rt_alloc_l2[0], rt_l2_base(), rt_l2_size());
1c002960:	1c080637          	lui	a2,0x1c080
1c002964:	1c00e537          	lui	a0,0x1c00e
{
1c002968:	1141                	addi	sp,sp,-16
  rt_user_alloc_init(&__rt_alloc_l2[0], rt_l2_base(), rt_l2_size());
1c00296a:	8e1d                	sub	a2,a2,a5
1c00296c:	fc458593          	addi	a1,a1,-60
1c002970:	f6450513          	addi	a0,a0,-156 # 1c00df64 <__rt_alloc_l2>
{
1c002974:	c606                	sw	ra,12(sp)
1c002976:	c422                	sw	s0,8(sp)
  rt_user_alloc_init(&__rt_alloc_l2[0], rt_l2_base(), rt_l2_size());
1c002978:	3d55                	jal	1c00282c <rt_user_alloc_init>
  return ARCHI_FC_TCDM_ADDR + ARCHI_FC_TCDM_SIZE - (int)&__fc_tcdm_end;
1c00297a:	1b0015b7          	lui	a1,0x1b001
1c00297e:	3d058793          	addi	a5,a1,976 # 1b0013d0 <__fc_tcdm_end>
#endif
#endif

#if defined(ARCHI_HAS_FC_TCDM)
  rt_trace(RT_TRACE_INIT, "Initializing FC TCDM allocator (base: 0x%8x, size: 0x%8x)\n", (int)rt_fc_tcdm_base(), rt_fc_tcdm_size());
  rt_user_alloc_init(&__rt_alloc_fc_tcdm, rt_fc_tcdm_base(), rt_fc_tcdm_size());
1c002982:	1b004637          	lui	a2,0x1b004
1c002986:	1c00e437          	lui	s0,0x1c00e
1c00298a:	8e1d                	sub	a2,a2,a5
1c00298c:	3d058593          	addi	a1,a1,976
1c002990:	f6840513          	addi	a0,s0,-152 # 1c00df68 <__rt_alloc_fc_tcdm>
1c002994:	3d61                	jal	1c00282c <rt_user_alloc_init>
  asm("csrr %0, 0x014" : "=r" (hart_id) : );
1c002996:	014027f3          	csrr	a5,uhartid
  return (hart_id >> 5) & 0x3f;
1c00299a:	ca5797b3          	p.extractu	a5,a5,5,5
#endif

#if defined(ARCHI_HAS_L1)
  // If the FC is running on cluster 0, initialize now the L1 allocator
  // as it is used for FC data
  if (rt_cluster_id() == 0)
1c00299e:	e791                	bnez	a5,1c0029aa <__rt_allocs_init+0x52>
  else
  {
    __rt_alloc_l1 = rt_alloc(__RT_ALLOC_FC_DATA, sizeof(rt_alloc_t)*rt_nb_cluster());
  }
#endif
}
1c0029a0:	4422                	lw	s0,8(sp)
1c0029a2:	40b2                	lw	ra,12(sp)
    __rt_alloc_init_l1_for_fc(0);
1c0029a4:	4501                	li	a0,0
}
1c0029a6:	0141                	addi	sp,sp,16
    __rt_alloc_init_l1_for_fc(0);
1c0029a8:	b761                	j	1c002930 <__rt_alloc_init_l1_for_fc>
  if (flags == RT_ALLOC_FC_DATA) return rt_user_alloc(rt_alloc_fc_tcdm(), size);
1c0029aa:	f6840513          	addi	a0,s0,-152
1c0029ae:	4591                	li	a1,4
1c0029b0:	3d71                	jal	1c00284c <rt_user_alloc>
}
1c0029b2:	40b2                	lw	ra,12(sp)
1c0029b4:	4422                	lw	s0,8(sp)
    __rt_alloc_l1 = rt_alloc(__RT_ALLOC_FC_DATA, sizeof(rt_alloc_t)*rt_nb_cluster());
1c0029b6:	1c00e7b7          	lui	a5,0x1c00e
1c0029ba:	f6a7a023          	sw	a0,-160(a5) # 1c00df60 <__rt_alloc_l1>
}
1c0029be:	0141                	addi	sp,sp,16
1c0029c0:	8082                	ret

1c0029c2 <__rt_time_poweroff>:
  rt_event_wait(event);
}

void pi_time_wait_us(int time_us)
{
  rt_time_wait_us(time_us);
1c0029c2:	002007b7          	lui	a5,0x200
1c0029c6:	40478793          	addi	a5,a5,1028 # 200404 <__L2+0x180404>
1c0029ca:	0087a783          	lw	a5,8(a5)
1c0029ce:	1c00e737          	lui	a4,0x1c00e
1c0029d2:	f2f72a23          	sw	a5,-204(a4) # 1c00df34 <timer_count>
1c0029d6:	4501                	li	a0,0
1c0029d8:	8082                	ret

1c0029da <__rt_time_poweron>:
1c0029da:	1c00e7b7          	lui	a5,0x1c00e
1c0029de:	f347a703          	lw	a4,-204(a5) # 1c00df34 <timer_count>
1c0029e2:	002007b7          	lui	a5,0x200
1c0029e6:	40478793          	addi	a5,a5,1028 # 200404 <__L2+0x180404>
1c0029ea:	00e7a423          	sw	a4,8(a5)
1c0029ee:	4501                	li	a0,0
1c0029f0:	8082                	ret

1c0029f2 <rt_event_push_delayed>:
1c0029f2:	30047373          	csrrci	t1,mstatus,8
1c0029f6:	1c00e637          	lui	a2,0x1c00e
1c0029fa:	f6c62703          	lw	a4,-148(a2) # 1c00df6c <first_delayed>
1c0029fe:	002007b7          	lui	a5,0x200
1c002a02:	40478793          	addi	a5,a5,1028 # 200404 <__L2+0x180404>
1c002a06:	0087a783          	lw	a5,8(a5)
1c002a0a:	46f9                	li	a3,30
1c002a0c:	0405e5b3          	p.max	a1,a1,zero
1c002a10:	02d5c5b3          	div	a1,a1,a3
1c002a14:	800006b7          	lui	a3,0x80000
1c002a18:	fff6c693          	not	a3,a3
1c002a1c:	00d7f833          	and	a6,a5,a3
1c002a20:	0585                	addi	a1,a1,1
1c002a22:	97ae                	add	a5,a5,a1
1c002a24:	dd1c                	sw	a5,56(a0)
1c002a26:	982e                	add	a6,a6,a1
1c002a28:	4781                	li	a5,0
1c002a2a:	c719                	beqz	a4,1c002a38 <rt_event_push_delayed+0x46>
1c002a2c:	03872883          	lw	a7,56(a4)
1c002a30:	00d8f8b3          	and	a7,a7,a3
1c002a34:	0108e863          	bltu	a7,a6,1c002a44 <rt_event_push_delayed+0x52>
1c002a38:	cb89                	beqz	a5,1c002a4a <rt_event_push_delayed+0x58>
1c002a3a:	cfc8                	sw	a0,28(a5)
1c002a3c:	cd58                	sw	a4,28(a0)
1c002a3e:	30031073          	csrw	mstatus,t1
1c002a42:	8082                	ret
1c002a44:	87ba                	mv	a5,a4
1c002a46:	4f58                	lw	a4,28(a4)
1c002a48:	b7cd                	j	1c002a2a <rt_event_push_delayed+0x38>
1c002a4a:	002007b7          	lui	a5,0x200
1c002a4e:	40478793          	addi	a5,a5,1028 # 200404 <__L2+0x180404>
1c002a52:	f6a62623          	sw	a0,-148(a2)
1c002a56:	cd58                	sw	a4,28(a0)
1c002a58:	0087a703          	lw	a4,8(a5)
1c002a5c:	95ba                	add	a1,a1,a4
1c002a5e:	00b7a823          	sw	a1,16(a5)
1c002a62:	08500713          	li	a4,133
1c002a66:	00e7a023          	sw	a4,0(a5)
1c002a6a:	bfd1                	j	1c002a3e <rt_event_push_delayed+0x4c>

1c002a6c <rt_time_wait_us>:
1c002a6c:	1101                	addi	sp,sp,-32
1c002a6e:	85aa                	mv	a1,a0
1c002a70:	4501                	li	a0,0
1c002a72:	ce06                	sw	ra,28(sp)
1c002a74:	cc22                	sw	s0,24(sp)
1c002a76:	c62e                	sw	a1,12(sp)
1c002a78:	395d                	jal	1c00272e <rt_event_get_blocking>
1c002a7a:	45b2                	lw	a1,12(sp)
1c002a7c:	842a                	mv	s0,a0
1c002a7e:	3f95                	jal	1c0029f2 <rt_event_push_delayed>
1c002a80:	8522                	mv	a0,s0
1c002a82:	4462                	lw	s0,24(sp)
1c002a84:	40f2                	lw	ra,28(sp)
1c002a86:	6105                	addi	sp,sp,32
1c002a88:	bbad                	j	1c002802 <rt_event_wait>

1c002a8a <__rt_time_init>:

RT_FC_BOOT_CODE void __attribute__((constructor)) __rt_time_init()
{
  int err = 0;

  first_delayed = NULL;
1c002a8a:	1c00e7b7          	lui	a5,0x1c00e
1c002a8e:	f607a623          	sw	zero,-148(a5) # 1c00df6c <first_delayed>
1c002a92:	002007b7          	lui	a5,0x200
{
1c002a96:	1141                	addi	sp,sp,-16
1c002a98:	08300713          	li	a4,131
1c002a9c:	40478793          	addi	a5,a5,1028 # 200404 <__L2+0x180404>
1c002aa0:	c606                	sw	ra,12(sp)
1c002aa2:	c422                	sw	s0,8(sp)
1c002aa4:	00e7a023          	sw	a4,0(a5)
    TIMER_CFG_LO_RESET(1)  |
    TIMER_CFG_LO_CCFG(1)
  );

#if defined(ARCHI_HAS_FC)
  rt_irq_set_handler(ARCHI_FC_EVT_TIMER0_HI, __rt_timer_handler);
1c002aa8:	1c0035b7          	lui	a1,0x1c003
1c002aac:	b1658593          	addi	a1,a1,-1258 # 1c002b16 <__rt_timer_handler>
1c002ab0:	452d                	li	a0,11
1c002ab2:	e68ff0ef          	jal	ra,1c00211a <rt_irq_set_handler>
  ARCHI_WRITE(base, EU_CORE_MASK_IRQ_OR, irqMask);
1c002ab6:	6785                	lui	a5,0x1
1c002ab8:	80078793          	addi	a5,a5,-2048 # 800 <__rt_stack_size>
1c002abc:	00204737          	lui	a4,0x204
1c002ac0:	00f72a23          	sw	a5,20(a4) # 204014 <__L2+0x184014>
  ARCHI_WRITE(ARCHI_EU_DEMUX_ADDR, EU_CORE_MASK_OR, evtMask);
1c002ac4:	00f72423          	sw	a5,8(a4)
#else
  rt_irq_set_handler(ARCHI_EVT_TIMER0_HI, __rt_timer_handler);
  rt_irq_mask_set(1<<ARCHI_EVT_TIMER0_HI);
#endif

  err |= __rt_cbsys_add(RT_CBSYS_POWEROFF, __rt_time_poweroff, NULL);
1c002ac8:	1c0035b7          	lui	a1,0x1c003
1c002acc:	4601                	li	a2,0
1c002ace:	9c258593          	addi	a1,a1,-1598 # 1c0029c2 <__rt_time_poweroff>
1c002ad2:	4509                	li	a0,2
1c002ad4:	fb2ff0ef          	jal	ra,1c002286 <__rt_cbsys_add>
  err |= __rt_cbsys_add(RT_CBSYS_POWERON, __rt_time_poweron, NULL);
1c002ad8:	1c0035b7          	lui	a1,0x1c003
  err |= __rt_cbsys_add(RT_CBSYS_POWEROFF, __rt_time_poweroff, NULL);
1c002adc:	842a                	mv	s0,a0
  err |= __rt_cbsys_add(RT_CBSYS_POWERON, __rt_time_poweron, NULL);
1c002ade:	4601                	li	a2,0
1c002ae0:	9da58593          	addi	a1,a1,-1574 # 1c0029da <__rt_time_poweron>
1c002ae4:	450d                	li	a0,3
1c002ae6:	fa0ff0ef          	jal	ra,1c002286 <__rt_cbsys_add>
1c002aea:	8d41                	or	a0,a0,s0

  if (err) rt_fatal("Unable to initialize time driver\n");
1c002aec:	c10d                	beqz	a0,1c002b0e <__rt_time_init+0x84>
  asm("csrr %0, 0x014" : "=r" (hart_id) : );
1c002aee:	01402673          	csrr	a2,uhartid
1c002af2:	1c006537          	lui	a0,0x1c006
  return (hart_id >> 5) & 0x3f;
1c002af6:	40565593          	srai	a1,a2,0x5
1c002afa:	f265b5b3          	p.bclr	a1,a1,25,6
1c002afe:	f4563633          	p.bclr	a2,a2,26,5
1c002b02:	a0c50513          	addi	a0,a0,-1524 # 1c005a0c <__clz_tab+0x390>
1c002b06:	1eb010ef          	jal	ra,1c0044f0 <printf>
1c002b0a:	153010ef          	jal	ra,1c00445c <abort>
}
1c002b0e:	40b2                	lw	ra,12(sp)
1c002b10:	4422                	lw	s0,8(sp)
1c002b12:	0141                	addi	sp,sp,16
1c002b14:	8082                	ret

1c002b16 <__rt_timer_handler>:
#if defined(__LLVM__)
void __rt_timer_handler()
#else
void __attribute__((interrupt)) __rt_timer_handler()
#endif
{
1c002b16:	7179                	addi	sp,sp,-48
1c002b18:	d032                	sw	a2,32(sp)
  rt_event_t *event = first_delayed;
1c002b1a:	1c00e637          	lui	a2,0x1c00e
{
1c002b1e:	ca3e                	sw	a5,20(sp)
  rt_event_t *event = first_delayed;
1c002b20:	f6c62783          	lw	a5,-148(a2) # 1c00df6c <first_delayed>
{
1c002b24:	ce36                	sw	a3,28(sp)
static inline uint32_t timer_cnt_lo_get(uint32_t base) { return ARCHI_READ(base, TIMER_CNT_LO_OFFSET); }
1c002b26:	002006b7          	lui	a3,0x200
1c002b2a:	40468693          	addi	a3,a3,1028 # 200404 <__L2+0x180404>
1c002b2e:	d61a                	sw	t1,44(sp)
1c002b30:	d42a                	sw	a0,40(sp)
1c002b32:	d22e                	sw	a1,36(sp)
1c002b34:	cc3a                	sw	a4,24(sp)
1c002b36:	c842                	sw	a6,16(sp)
1c002b38:	c646                	sw	a7,12(sp)
1c002b3a:	c472                	sw	t3,8(sp)
1c002b3c:	c276                	sw	t4,4(sp)
1c002b3e:	0086a683          	lw	a3,8(a3)
1c002b42:	01c00593          	li	a1,28
1c002b46:	01c02503          	lw	a0,28(zero) # 1c <_l1_preload_size>
1c002b4a:	41cc                	lw	a1,4(a1)

  uint32_t current_time = timer_count_get(timer_base_fc(0, 1));

  // First dequeue and push to their scheduler all events with the same number of
  // ticks as they were waiting for the same time.
  while (event && (current_time - event->implem.time) < 0x7fffffff)
1c002b4c:	80000337          	lui	t1,0x80000
1c002b50:	4801                	li	a6,0
1c002b52:	4881                	li	a7,0
1c002b54:	01c00e93          	li	t4,28
1c002b58:	ffe34313          	xori	t1,t1,-2
1c002b5c:	e7ad                	bnez	a5,1c002bc6 <__rt_timer_handler+0xb0>
1c002b5e:	00088463          	beqz	a7,1c002b66 <__rt_timer_handler+0x50>
1c002b62:	00a02e23          	sw	a0,28(zero) # 1c <_l1_preload_size>
1c002b66:	00080463          	beqz	a6,1c002b6e <__rt_timer_handler+0x58>
1c002b6a:	00bea223          	sw	a1,4(t4)
static inline void timer_cfg_lo_set(uint32_t base, uint32_t value) { ARCHI_WRITE(base, TIMER_CFG_LO_OFFSET, value); }
1c002b6e:	002007b7          	lui	a5,0x200
1c002b72:	08100713          	li	a4,129
1c002b76:	40478793          	addi	a5,a5,1028 # 200404 <__L2+0x180404>
    event = next;
  }

  // Update the wait list with the next waiting event which has a different number
  // of ticks
  first_delayed = event;
1c002b7a:	f6062623          	sw	zero,-148(a2)
1c002b7e:	00e7a023          	sw	a4,0(a5)
  ARCHI_WRITE(ARCHI_EU_DEMUX_ADDR, EU_CORE_BUFFER_CLEAR, evtMask);
1c002b82:	6785                	lui	a5,0x1
1c002b84:	80078793          	addi	a5,a5,-2048 # 800 <__rt_stack_size>
1c002b88:	00204737          	lui	a4,0x204
1c002b8c:	02f72423          	sw	a5,40(a4) # 204028 <__L2+0x184028>
    rt_irq_clr(1 << ARCHI_FC_EVT_TIMER0_HI);
#else
    rt_irq_clr(1 << ARCHI_EVT_TIMER0_HI);
#endif
  }
}
1c002b90:	5332                	lw	t1,44(sp)
1c002b92:	5522                	lw	a0,40(sp)
1c002b94:	5592                	lw	a1,36(sp)
1c002b96:	5602                	lw	a2,32(sp)
1c002b98:	46f2                	lw	a3,28(sp)
1c002b9a:	4762                	lw	a4,24(sp)
1c002b9c:	47d2                	lw	a5,20(sp)
1c002b9e:	4842                	lw	a6,16(sp)
1c002ba0:	48b2                	lw	a7,12(sp)
1c002ba2:	4e22                	lw	t3,8(sp)
1c002ba4:	4e92                	lw	t4,4(sp)
1c002ba6:	6145                	addi	sp,sp,48
1c002ba8:	30200073          	mret
  rt_irq_restore(irq);
}

static inline __attribute__((always_inline)) void __rt_enqueue_event_to_sched(rt_event_sched_t *sched, rt_event_t *event)
{
  event->next = NULL;
1c002bac:	0007a023          	sw	zero,0(a5)
    rt_event_t *next = event->implem.next;
1c002bb0:	01c7ae03          	lw	t3,28(a5)
  if (sched->first == NULL) {
1c002bb4:	c511                	beqz	a0,1c002bc0 <__rt_timer_handler+0xaa>
    sched->first = event;
  } else {
    sched->last->next = event;
1c002bb6:	c19c                	sw	a5,0(a1)
    event = next;
1c002bb8:	85be                	mv	a1,a5
1c002bba:	4805                	li	a6,1
1c002bbc:	87f2                	mv	a5,t3
1c002bbe:	bf79                	j	1c002b5c <__rt_timer_handler+0x46>
  if (sched->first == NULL) {
1c002bc0:	853e                	mv	a0,a5
1c002bc2:	4885                	li	a7,1
1c002bc4:	bfd5                	j	1c002bb8 <__rt_timer_handler+0xa2>
  while (event && (current_time - event->implem.time) < 0x7fffffff)
1c002bc6:	0387ae03          	lw	t3,56(a5)
1c002bca:	41c68e33          	sub	t3,a3,t3
1c002bce:	fdc37fe3          	bleu	t3,t1,1c002bac <__rt_timer_handler+0x96>
1c002bd2:	00088463          	beqz	a7,1c002bda <__rt_timer_handler+0xc4>
1c002bd6:	00a02e23          	sw	a0,28(zero) # 1c <_l1_preload_size>
1c002bda:	00080463          	beqz	a6,1c002be2 <__rt_timer_handler+0xcc>
1c002bde:	00bea223          	sw	a1,4(t4)
static inline uint32_t timer_cnt_lo_get(uint32_t base) { return ARCHI_READ(base, TIMER_CNT_LO_OFFSET); }
1c002be2:	00200737          	lui	a4,0x200
1c002be6:	40470713          	addi	a4,a4,1028 # 200404 <__L2+0x180404>
  first_delayed = event;
1c002bea:	f6f62623          	sw	a5,-148(a2)
1c002bee:	00872603          	lw	a2,8(a4)
      first_delayed->implem.time - current_time
1c002bf2:	5f9c                	lw	a5,56(a5)
1c002bf4:	40d786b3          	sub	a3,a5,a3
1c002bf8:	96b2                	add	a3,a3,a2
static inline void timer_cmp_lo_set(uint32_t base, uint32_t value) { ARCHI_WRITE(base, TIMER_CMP_LO_OFFSET, value); }
1c002bfa:	00d72823          	sw	a3,16(a4)
static inline void timer_cfg_lo_set(uint32_t base, uint32_t value) { ARCHI_WRITE(base, TIMER_CFG_LO_OFFSET, value); }
1c002bfe:	08500793          	li	a5,133
1c002c02:	00f72023          	sw	a5,0(a4)
}
1c002c06:	b769                	j	1c002b90 <__rt_timer_handler+0x7a>

1c002c08 <rt_periph_copy>:
  }

  __rt_socevents_status[index] &= ~(1<<event);

  rt_irq_restore(irq);
}
1c002c08:	7179                	addi	sp,sp,-48
1c002c0a:	d422                	sw	s0,40(sp)
1c002c0c:	842a                	mv	s0,a0
1c002c0e:	d606                	sw	ra,44(sp)
1c002c10:	d226                	sw	s1,36(sp)
1c002c12:	d04a                	sw	s2,32(sp)
1c002c14:	30047973          	csrrci	s2,mstatus,8
1c002c18:	4015d493          	srai	s1,a1,0x1
1c002c1c:	1a102537          	lui	a0,0x1a102
1c002c20:	049e                	slli	s1,s1,0x7
1c002c22:	94aa                	add	s1,s1,a0
1c002c24:	00459513          	slli	a0,a1,0x4
1c002c28:	8941                	andi	a0,a0,16
1c002c2a:	94aa                	add	s1,s1,a0
1c002c2c:	853e                	mv	a0,a5
1c002c2e:	ef89                	bnez	a5,1c002c48 <rt_periph_copy+0x40>
1c002c30:	ce2e                	sw	a1,28(sp)
1c002c32:	cc32                	sw	a2,24(sp)
1c002c34:	ca36                	sw	a3,20(sp)
1c002c36:	c83a                	sw	a4,16(sp)
1c002c38:	c63e                	sw	a5,12(sp)
1c002c3a:	a4fff0ef          	jal	ra,1c002688 <__rt_wait_event_prepare_blocking>
1c002c3e:	47b2                	lw	a5,12(sp)
1c002c40:	4742                	lw	a4,16(sp)
1c002c42:	46d2                	lw	a3,20(sp)
1c002c44:	4662                	lw	a2,24(sp)
1c002c46:	45f2                	lw	a1,28(sp)
1c002c48:	e419                	bnez	s0,1c002c56 <rt_periph_copy+0x4e>
1c002c4a:	03850413          	addi	s0,a0,56 # 1a102038 <__l1_end+0xa102018>
1c002c4e:	04052223          	sw	zero,68(a0)
1c002c52:	04052a23          	sw	zero,84(a0)
1c002c56:	00c42803          	lw	a6,12(s0)
1c002c5a:	c054                	sw	a3,4(s0)
1c002c5c:	cc08                	sw	a0,24(s0)
1c002c5e:	f6483833          	p.bclr	a6,a6,27,4
1c002c62:	4891                	li	a7,4
1c002c64:	c0474733          	p.bset	a4,a4,0,4
1c002c68:	0908e063          	bltu	a7,a6,1c002ce8 <rt_periph_copy+0xe0>
1c002c6c:	03000893          	li	a7,48
1c002c70:	0596                	slli	a1,a1,0x5
1c002c72:	98ae                	add	a7,a7,a1
1c002c74:	0008a303          	lw	t1,0(a7)
1c002c78:	00042a23          	sw	zero,20(s0)
1c002c7c:	03000813          	li	a6,48
1c002c80:	02031b63          	bnez	t1,1c002cb6 <rt_periph_copy+0xae>
1c002c84:	0088a023          	sw	s0,0(a7)
1c002c88:	00b808b3          	add	a7,a6,a1
1c002c8c:	0088a303          	lw	t1,8(a7)
1c002c90:	0088a223          	sw	s0,4(a7)
1c002c94:	02031663          	bnez	t1,1c002cc0 <rt_periph_copy+0xb8>
1c002c98:	00848893          	addi	a7,s1,8
1c002c9c:	0008a883          	lw	a7,0(a7)
1c002ca0:	0208f893          	andi	a7,a7,32
1c002ca4:	00089e63          	bnez	a7,1c002cc0 <rt_periph_copy+0xb8>
1c002ca8:	00c4a023          	sw	a2,0(s1)
1c002cac:	00d4a223          	sw	a3,4(s1)
1c002cb0:	00e4a423          	sw	a4,8(s1)
1c002cb4:	a005                	j	1c002cd4 <rt_periph_copy+0xcc>
1c002cb6:	0048a883          	lw	a7,4(a7)
1c002cba:	0088aa23          	sw	s0,20(a7)
1c002cbe:	b7e9                	j	1c002c88 <rt_periph_copy+0x80>
1c002cc0:	00042823          	sw	zero,16(s0)
1c002cc4:	c010                	sw	a2,0(s0)
1c002cc6:	c054                	sw	a3,4(s0)
1c002cc8:	c418                	sw	a4,8(s0)
1c002cca:	00031563          	bnez	t1,1c002cd4 <rt_periph_copy+0xcc>
1c002cce:	982e                	add	a6,a6,a1
1c002cd0:	00882423          	sw	s0,8(a6)
1c002cd4:	e391                	bnez	a5,1c002cd8 <rt_periph_copy+0xd0>
1c002cd6:	3609                	jal	1c0027d8 <__rt_wait_event>
1c002cd8:	30091073          	csrw	mstatus,s2
1c002cdc:	50b2                	lw	ra,44(sp)
1c002cde:	5422                	lw	s0,40(sp)
1c002ce0:	5492                	lw	s1,36(sp)
1c002ce2:	5902                	lw	s2,32(sp)
1c002ce4:	6145                	addi	sp,sp,48
1c002ce6:	8082                	ret
1c002ce8:	fe6836e3          	p.bneimm	a6,6,1c002cd4 <rt_periph_copy+0xcc>
1c002cec:	03000893          	li	a7,48
1c002cf0:	0596                	slli	a1,a1,0x5
1c002cf2:	98ae                	add	a7,a7,a1
1c002cf4:	0008a303          	lw	t1,0(a7)
1c002cf8:	00042a23          	sw	zero,20(s0)
1c002cfc:	03000813          	li	a6,48
1c002d00:	00031f63          	bnez	t1,1c002d1e <rt_periph_copy+0x116>
1c002d04:	0088a023          	sw	s0,0(a7)
1c002d08:	95c2                	add	a1,a1,a6
1c002d0a:	c1c0                	sw	s0,4(a1)
1c002d0c:	00031e63          	bnez	t1,1c002d28 <rt_periph_copy+0x120>
1c002d10:	02442803          	lw	a6,36(s0)
1c002d14:	1a1025b7          	lui	a1,0x1a102
1c002d18:	1b05a023          	sw	a6,416(a1) # 1a1021a0 <__l1_end+0xa102180>
1c002d1c:	b771                	j	1c002ca8 <rt_periph_copy+0xa0>
1c002d1e:	0048a883          	lw	a7,4(a7)
1c002d22:	0088aa23          	sw	s0,20(a7)
1c002d26:	b7cd                	j	1c002d08 <rt_periph_copy+0x100>
1c002d28:	c418                	sw	a4,8(s0)
1c002d2a:	4598                	lw	a4,8(a1)
1c002d2c:	c010                	sw	a2,0(s0)
1c002d2e:	c054                	sw	a3,4(s0)
1c002d30:	00042823          	sw	zero,16(s0)
1c002d34:	f345                	bnez	a4,1c002cd4 <rt_periph_copy+0xcc>
1c002d36:	c580                	sw	s0,8(a1)
1c002d38:	bf71                	j	1c002cd4 <rt_periph_copy+0xcc>

1c002d3a <__rt_periph_wait_event>:
1c002d3a:	30047673          	csrrci	a2,mstatus,8
1c002d3e:	477d                	li	a4,31
1c002d40:	4781                	li	a5,0
1c002d42:	00a75463          	ble	a0,a4,1c002d4a <__rt_periph_wait_event+0x10>
1c002d46:	1501                	addi	a0,a0,-32
1c002d48:	4785                	li	a5,1
1c002d4a:	00279713          	slli	a4,a5,0x2
1c002d4e:	4685                	li	a3,1
1c002d50:	03000793          	li	a5,48
1c002d54:	00a696b3          	sll	a3,a3,a0
1c002d58:	97ba                	add	a5,a5,a4
1c002d5a:	00204837          	lui	a6,0x204
1c002d5e:	2807a703          	lw	a4,640(a5)
1c002d62:	8f75                	and	a4,a4,a3
1c002d64:	cf19                	beqz	a4,1c002d82 <__rt_periph_wait_event+0x48>
1c002d66:	c999                	beqz	a1,1c002d7c <__rt_periph_wait_event+0x42>
1c002d68:	2807a683          	lw	a3,640(a5)
1c002d6c:	4705                	li	a4,1
1c002d6e:	00a71533          	sll	a0,a4,a0
1c002d72:	fff54513          	not	a0,a0
1c002d76:	8d75                	and	a0,a0,a3
1c002d78:	28a7a023          	sw	a0,640(a5)
1c002d7c:	30061073          	csrw	mstatus,a2
1c002d80:	8082                	ret
1c002d82:	03886703          	p.elw	a4,56(a6) # 204038 <__L2+0x184038>
1c002d86:	30046773          	csrrsi	a4,mstatus,8
1c002d8a:	30047773          	csrrci	a4,mstatus,8
1c002d8e:	bfc1                	j	1c002d5e <__rt_periph_wait_event+0x24>

1c002d90 <__rt_periph_init>:
  for (unsigned int i=0; i<ARCHI_NB_PERIPH*2; i++) {
    rt_periph_channel_t *channel = &periph_channels[i];
    channel->first = NULL;
    channel->firstToEnqueue = NULL;
    channel->base = hal_udma_channel_base(i);
    channel->callback = udma_event_handler;
1c002d90:	1c000537          	lui	a0,0x1c000
1c002d94:	03000693          	li	a3,48
  for (unsigned int i=0; i<ARCHI_NB_PERIPH*2; i++) {
1c002d98:	4601                	li	a2,0
1c002d9a:	03000713          	li	a4,48
static inline unsigned int hal_udma_periph_base(int id) {
  return ARCHI_SOC_PERIPHERALS_ADDR + ARCHI_UDMA_OFFSET + UDMA_PERIPH_OFFSET(id);
}

static inline __attribute__((always_inline)) unsigned int hal_udma_channel_base(int id) {
  return ARCHI_SOC_PERIPHERALS_ADDR + ARCHI_UDMA_OFFSET + UDMA_PERIPH_OFFSET(id>>1) + UDMA_CHANNEL_OFFSET(id&1);
1c002d9e:	1a1028b7          	lui	a7,0x1a102
    channel->callback = udma_event_handler;
1c002da2:	2b450513          	addi	a0,a0,692 # 1c0002b4 <udma_event_handler>
1c002da6:	014950fb          	lp.setupi	x1,20,1c002dca <__rt_periph_init+0x3a>
1c002daa:	40165793          	srai	a5,a2,0x1
1c002dae:	00461813          	slli	a6,a2,0x4
1c002db2:	079e                	slli	a5,a5,0x7
1c002db4:	97c6                	add	a5,a5,a7
1c002db6:	01087813          	andi	a6,a6,16
1c002dba:	97c2                	add	a5,a5,a6
    channel->first = NULL;
1c002dbc:	0006a023          	sw	zero,0(a3)
    channel->firstToEnqueue = NULL;
1c002dc0:	0006a423          	sw	zero,8(a3)
    channel->base = hal_udma_channel_base(i);
1c002dc4:	c6dc                	sw	a5,12(a3)
    channel->callback = udma_event_handler;
1c002dc6:	cec8                	sw	a0,28(a3)
  for (unsigned int i=0; i<ARCHI_NB_PERIPH*2; i++) {
1c002dc8:	0605                	addi	a2,a2,1
1c002dca:	02068693          	addi	a3,a3,32
  }
  
  for (int i=0; i<ARCHI_SOC_EVENT_UDMA_NB_EXTRA_EVT; i++)
  {
    __rt_udma_extra_callback[i] = __rt_soc_evt_no_udma;
1c002dce:	1c0006b7          	lui	a3,0x1c000
1c002dd2:	28870613          	addi	a2,a4,648
1c002dd6:	45e68693          	addi	a3,a3,1118 # 1c00045e <__rt_soc_evt_no_udma>
1c002dda:	00a250fb          	lp.setupi	x1,10,1c002de2 <__rt_periph_init+0x52>
1c002dde:	00d6222b          	p.sw	a3,4(a2!)
1c002de2:	0001                	nop
  }

  __rt_socevents_status[0] = 0;
1c002de4:	28072023          	sw	zero,640(a4)
  __rt_socevents_status[1] = 0;
1c002de8:	28072223          	sw	zero,644(a4)
}
1c002dec:	8082                	ret

1c002dee <rt_freq_set_and_get>:
void rt_freq_wait_convergence(int fll)
{
}

int rt_freq_set_and_get(rt_freq_domain_e domain, unsigned int freq, unsigned int *out_freq)
{
1c002dee:	1141                	addi	sp,sp,-16
1c002df0:	c226                	sw	s1,4(sp)
1c002df2:	84ae                	mv	s1,a1
1c002df4:	c606                	sw	ra,12(sp)
1c002df6:	c422                	sw	s0,8(sp)
1c002df8:	c04a                	sw	s2,0(sp)
  return __builtin_pulp_read_then_spr_bit_clr(reg, val);
1c002dfa:	30047973          	csrrci	s2,mstatus,8
  __asm__ __volatile__ ("" : : : "memory");
1c002dfe:	1c00e437          	lui	s0,0x1c00e
  int irq = rt_irq_disable();
  int err = 0;

  rt_trace(RT_TRACE_FREQ, "Setting domain frequency (domain: %d, freq: %d)\n", domain, freq);

  if (domain == RT_FREQ_DOMAIN_CL)
1c002e02:	00153f63          	p.bneimm	a0,1,1c002e20 <rt_freq_set_and_get+0x32>
  {
    // On cluster side, this is straight forward as the fll is not shared
    __rt_fll_set_freq(__RT_FLL_CL, freq);
    __rt_freq_domains[RT_FREQ_DOMAIN_CL] = freq;
1c002e06:	f7040413          	addi	s0,s0,-144 # 1c00df70 <__rt_freq_domains>
    __rt_fll_set_freq(__RT_FLL_CL, freq);
1c002e0a:	2179                	jal	1c003298 <__rt_fll_set_freq>
    __rt_freq_domains[RT_FREQ_DOMAIN_CL] = freq;
1c002e0c:	c044                	sw	s1,4(s0)
  __builtin_pulp_spr_write(reg, val);
1c002e0e:	30091073          	csrw	mstatus,s2
  }

  rt_irq_restore(irq);

  return err;
}
1c002e12:	40b2                	lw	ra,12(sp)
1c002e14:	4422                	lw	s0,8(sp)
1c002e16:	4492                	lw	s1,4(sp)
1c002e18:	4902                	lw	s2,0(sp)
1c002e1a:	4501                	li	a0,0
1c002e1c:	0141                	addi	sp,sp,16
1c002e1e:	8082                	ret
    __rt_cbsys_exec(RT_CBSYS_PERIPH_SETFREQ_BEFORE);
1c002e20:	4511                	li	a0,4
1c002e22:	ca2ff0ef          	jal	ra,1c0022c4 <__rt_cbsys_exec>
    __rt_fll_set_freq(0, freq);
1c002e26:	85a6                	mv	a1,s1
1c002e28:	4501                	li	a0,0
1c002e2a:	21bd                	jal	1c003298 <__rt_fll_set_freq>
    __rt_cbsys_exec(RT_CBSYS_PERIPH_SETFREQ_AFTER);
1c002e2c:	4515                	li	a0,5
    __rt_freq_domains[RT_FREQ_DOMAIN_FC] = freq;
1c002e2e:	f6942823          	sw	s1,-144(s0)
    __rt_cbsys_exec(RT_CBSYS_PERIPH_SETFREQ_AFTER);
1c002e32:	c92ff0ef          	jal	ra,1c0022c4 <__rt_cbsys_exec>
1c002e36:	bfe1                	j	1c002e0e <rt_freq_set_and_get+0x20>

1c002e38 <__rt_freq_init>:

void __rt_freq_init()
{
1c002e38:	1141                	addi	sp,sp,-16
1c002e3a:	c422                	sw	s0,8(sp)
1c002e3c:	c606                	sw	ra,12(sp)

  __rt_flls_constructor();
1c002e3e:	29a1                	jal	1c003296 <__rt_flls_constructor>
  return __rt_platform;
1c002e40:	1c0067b7          	lui	a5,0x1c006

  // On all chips only FLL 0 is initialized here as it is shared between periph and soc
  // while FLL 1 is used for cluster only and thus is initialized when the cluster is set on.
  if (rt_platform() != ARCHI_PLATFORM_FPGA)
1c002e44:	cd47a783          	lw	a5,-812(a5) # 1c005cd4 <__rt_platform>
1c002e48:	1c00e437          	lui	s0,0x1c00e
1c002e4c:	0017ae63          	p.beqimm	a5,1,1c002e68 <__rt_freq_init+0x30>
  {
    __rt_freq_domains[RT_FREQ_DOMAIN_FC] = __rt_fll_init(__RT_FLL_FC);
1c002e50:	4501                	li	a0,0
1c002e52:	2905                	jal	1c003282 <__rt_fll_init>
1c002e54:	f6a42823          	sw	a0,-144(s0) # 1c00df70 <__rt_freq_domains>
  }
  else
  {
    __rt_freq_domains[RT_FREQ_DOMAIN_FC] = 40000000;
  }
  __rt_freq_domains[RT_FREQ_DOMAIN_CL] = 0;
1c002e58:	f7040413          	addi	s0,s0,-144
1c002e5c:	00042223          	sw	zero,4(s0)

}
1c002e60:	40b2                	lw	ra,12(sp)
1c002e62:	4422                	lw	s0,8(sp)
1c002e64:	0141                	addi	sp,sp,16
1c002e66:	8082                	ret
    __rt_freq_domains[RT_FREQ_DOMAIN_FC] = 40000000;
1c002e68:	026267b7          	lui	a5,0x2626
1c002e6c:	a0078793          	addi	a5,a5,-1536 # 2625a00 <__L2+0x25a5a00>
1c002e70:	f6f42823          	sw	a5,-144(s0)
1c002e74:	b7d5                	j	1c002e58 <__rt_freq_init+0x20>

1c002e76 <SetFllMultDivFactors>:
  if (PMURetentionState.Fields.BootType != COLD_BOOT && PMURetentionState.Fields.ClusterWakeUpState) {
          // ChangePowerSystemState(POWER_SYSTEM_STATE(PMURetentionState.Fields.WakeupState, PMURetentionState.Fields.ClusterWakeUpState), 0);
    __rt_pmu_cluster_power_up(NULL, NULL);
    if (PMU_ClusterIsRunning() && PMURetentionState.Fields.FllClusterRetention) InitOneFll(FLL_CLUSTER, 1);
  }
}
1c002e76:	100517b3          	p.fl1	a5,a0
1c002e7a:	4769                	li	a4,26
1c002e7c:	8f1d                	sub	a4,a4,a5
1c002e7e:	4785                	li	a5,1
1c002e80:	04f76733          	p.max	a4,a4,a5
1c002e84:	47a1                	li	a5,8
1c002e86:	04f74733          	p.min	a4,a4,a5
1c002e8a:	fff70693          	addi	a3,a4,-1
1c002e8e:	00f55793          	srli	a5,a0,0xf
1c002e92:	00d797b3          	sll	a5,a5,a3
1c002e96:	c19c                	sw	a5,0(a1)
1c002e98:	07be                	slli	a5,a5,0xf
1c002e9a:	c218                	sw	a4,0(a2)
1c002e9c:	00d7d533          	srl	a0,a5,a3
1c002ea0:	8082                	ret

1c002ea2 <soc_eu_fcEventMask_setEvent>:
1c002ea2:	47fd                	li	a5,31
1c002ea4:	4721                	li	a4,8
1c002ea6:	00f50463          	beq	a0,a5,1c002eae <soc_eu_fcEventMask_setEvent+0xc>
1c002eaa:	1501                	addi	a0,a0,-32
1c002eac:	4711                	li	a4,4
1c002eae:	1a1066b7          	lui	a3,0x1a106
1c002eb2:	20e6f603          	p.lw	a2,a4(a3)
1c002eb6:	4785                	li	a5,1
1c002eb8:	00a79533          	sll	a0,a5,a0
1c002ebc:	fff54513          	not	a0,a0
1c002ec0:	8d71                	and	a0,a0,a2
1c002ec2:	00a6e723          	p.sw	a0,a4(a3)
1c002ec6:	8082                	ret

1c002ec8 <__rt_pmu_cluster_power_down>:
1c002ec8:	1c0067b7          	lui	a5,0x1c006
1c002ecc:	cd47a783          	lw	a5,-812(a5) # 1c005cd4 <__rt_platform>
1c002ed0:	0817a163          	p.beqimm	a5,1,1c002f52 <__rt_pmu_cluster_power_down+0x8a>
1c002ed4:	1141                	addi	sp,sp,-16
1c002ed6:	1a1046b7          	lui	a3,0x1a104
1c002eda:	c606                	sw	ra,12(sp)
1c002edc:	c422                	sw	s0,8(sp)
1c002ede:	c226                	sw	s1,4(sp)
1c002ee0:	c04a                	sw	s2,0(sp)
1c002ee2:	0706a683          	lw	a3,112(a3) # 1a104070 <__l1_end+0xa104050>
1c002ee6:	1c00e737          	lui	a4,0x1c00e
1c002eea:	c8870713          	addi	a4,a4,-888 # 1c00dc88 <SystemStateToSCUFastSeq>
1c002eee:	00874783          	lbu	a5,8(a4)
1c002ef2:	8436                	mv	s0,a3
1c002ef4:	c0079933          	p.extractu	s2,a5,0,0
1c002ef8:	04193763          	p.bneimm	s2,1,1c002f46 <__rt_pmu_cluster_power_down+0x7e>
1c002efc:	01069613          	slli	a2,a3,0x10
1c002f00:	04064363          	bltz	a2,1c002f46 <__rt_pmu_cluster_power_down+0x7e>
1c002f04:	c007b7b3          	p.bclr	a5,a5,0,0
1c002f08:	c0a92433          	p.insert	s0,s2,0,10
1c002f0c:	1a1044b7          	lui	s1,0x1a104
1c002f10:	00f70423          	sb	a5,8(a4)
1c002f14:	0684a823          	sw	s0,112(s1) # 1a104070 <__l1_end+0xa104050>
1c002f18:	4585                	li	a1,1
1c002f1a:	02300513          	li	a0,35
1c002f1e:	3d31                	jal	1c002d3a <__rt_periph_wait_event>
1c002f20:	4785                	li	a5,1
1c002f22:	00f4a623          	sw	a5,12(s1)
1c002f26:	c0302433          	p.insert	s0,zero,0,3
1c002f2a:	0684a823          	sw	s0,112(s1)
1c002f2e:	c0d92433          	p.insert	s0,s2,0,13
1c002f32:	0684a823          	sw	s0,112(s1)
1c002f36:	4422                	lw	s0,8(sp)
1c002f38:	40b2                	lw	ra,12(sp)
1c002f3a:	4492                	lw	s1,4(sp)
1c002f3c:	4902                	lw	s2,0(sp)
1c002f3e:	4585                	li	a1,1
1c002f40:	457d                	li	a0,31
1c002f42:	0141                	addi	sp,sp,16
1c002f44:	bbdd                	j	1c002d3a <__rt_periph_wait_event>
1c002f46:	40b2                	lw	ra,12(sp)
1c002f48:	4422                	lw	s0,8(sp)
1c002f4a:	4492                	lw	s1,4(sp)
1c002f4c:	4902                	lw	s2,0(sp)
1c002f4e:	0141                	addi	sp,sp,16
1c002f50:	8082                	ret
1c002f52:	8082                	ret

1c002f54 <SetFllFrequency>:
1c002f54:	7179                	addi	sp,sp,-48
1c002f56:	d422                	sw	s0,40(sp)
1c002f58:	d226                	sw	s1,36(sp)
1c002f5a:	1c00e437          	lui	s0,0x1c00e
1c002f5e:	84aa                	mv	s1,a0
1c002f60:	d606                	sw	ra,44(sp)
1c002f62:	852e                	mv	a0,a1
1c002f64:	c8840413          	addi	s0,s0,-888 # 1c00dc88 <SystemStateToSCUFastSeq>
1c002f68:	0014be63          	p.bneimm	s1,1,1c002f84 <SetFllFrequency+0x30>
1c002f6c:	00844783          	lbu	a5,8(s0)
1c002f70:	c0079733          	p.extractu	a4,a5,0,0
1c002f74:	08172663          	p.beqimm	a4,1,1c003000 <SetFllFrequency+0xac>
1c002f78:	4501                	li	a0,0
1c002f7a:	50b2                	lw	ra,44(sp)
1c002f7c:	5422                	lw	s0,40(sp)
1c002f7e:	5492                	lw	s1,36(sp)
1c002f80:	6145                	addi	sp,sp,48
1c002f82:	8082                	ret
1c002f84:	ce25                	beqz	a2,1c002ffc <SetFllFrequency+0xa8>
1c002f86:	00844783          	lbu	a5,8(s0)
1c002f8a:	03200713          	li	a4,50
1c002f8e:	c21797b3          	p.extractu	a5,a5,1,1
1c002f92:	97a2                	add	a5,a5,s0
1c002f94:	00a7c783          	lbu	a5,10(a5)
1c002f98:	00e787db          	p.mac	a5,a5,a4,zero
1c002f9c:	22678793          	addi	a5,a5,550
1c002fa0:	eca5                	bnez	s1,1c003018 <SetFllFrequency+0xc4>
1c002fa2:	0007a6b7          	lui	a3,0x7a
1c002fa6:	eb237737          	lui	a4,0xeb237
1c002faa:	12068693          	addi	a3,a3,288 # 7a120 <__L1Cl+0x6a120>
1c002fae:	c8070713          	addi	a4,a4,-896 # eb236c80 <pulp__FC+0xeb236c81>
1c002fb2:	42d78733          	p.mac	a4,a5,a3
1c002fb6:	fcb761e3          	bltu	a4,a1,1c002f78 <SetFllFrequency+0x24>
1c002fba:	c62a                	sw	a0,12(sp)
1c002fbc:	e02ff0ef          	jal	ra,1c0025be <__rt_bridge_req_shutdown>
1c002fc0:	4532                	lw	a0,12(sp)
1c002fc2:	0870                	addi	a2,sp,28
1c002fc4:	082c                	addi	a1,sp,24
1c002fc6:	3d45                	jal	1c002e76 <SetFllMultDivFactors>
1c002fc8:	4762                	lw	a4,24(sp)
1c002fca:	800007b7          	lui	a5,0x80000
1c002fce:	1a1006b7          	lui	a3,0x1a100
1c002fd2:	de0727b3          	p.insert	a5,a4,15,0
1c002fd6:	4772                	lw	a4,28(sp)
1c002fd8:	c7a727b3          	p.insert	a5,a4,3,26
1c002fdc:	00449713          	slli	a4,s1,0x4
1c002fe0:	0711                	addi	a4,a4,4
1c002fe2:	00f6e723          	p.sw	a5,a4(a3)
1c002fe6:	00249793          	slli	a5,s1,0x2
1c002fea:	943e                	add	s0,s0,a5
1c002fec:	d008                	sw	a0,32(s0)
1c002fee:	c808                	sw	a0,16(s0)
1c002ff0:	f4c9                	bnez	s1,1c002f7a <SetFllFrequency+0x26>
1c002ff2:	c62a                	sw	a0,12(sp)
1c002ff4:	d34ff0ef          	jal	ra,1c002528 <__rt_bridge_set_available>
1c002ff8:	4532                	lw	a0,12(sp)
1c002ffa:	b741                	j	1c002f7a <SetFllFrequency+0x26>
1c002ffc:	f0f9                	bnez	s1,1c002fc2 <SetFllFrequency+0x6e>
1c002ffe:	bf75                	j	1c002fba <SetFllFrequency+0x66>
1c003000:	d269                	beqz	a2,1c002fc2 <SetFllFrequency+0x6e>
1c003002:	c21797b3          	p.extractu	a5,a5,1,1
1c003006:	97a2                	add	a5,a5,s0
1c003008:	00a7c783          	lbu	a5,10(a5) # 8000000a <pulp__FC+0x8000000b>
1c00300c:	03200713          	li	a4,50
1c003010:	00e787db          	p.mac	a5,a5,a4,zero
1c003014:	22678793          	addi	a5,a5,550
1c003018:	0006b6b7          	lui	a3,0x6b
1c00301c:	eaf5a737          	lui	a4,0xeaf5a
1c003020:	6c068693          	addi	a3,a3,1728 # 6b6c0 <__L1Cl+0x5b6c0>
1c003024:	5c070713          	addi	a4,a4,1472 # eaf5a5c0 <pulp__FC+0xeaf5a5c1>
1c003028:	42d78733          	p.mac	a4,a5,a3
1c00302c:	f8a77be3          	bleu	a0,a4,1c002fc2 <SetFllFrequency+0x6e>
1c003030:	b7a1                	j	1c002f78 <SetFllFrequency+0x24>

1c003032 <InitOneFll>:
1c003032:	7179                	addi	sp,sp,-48
1c003034:	00451713          	slli	a4,a0,0x4
1c003038:	ce4e                	sw	s3,28(sp)
1c00303a:	1a1007b7          	lui	a5,0x1a100
1c00303e:	00470993          	addi	s3,a4,4
1c003042:	d606                	sw	ra,44(sp)
1c003044:	d422                	sw	s0,40(sp)
1c003046:	d226                	sw	s1,36(sp)
1c003048:	d04a                	sw	s2,32(sp)
1c00304a:	2137f783          	p.lw	a5,s3(a5)
1c00304e:	1c00e437          	lui	s0,0x1c00e
1c003052:	c8840413          	addi	s0,s0,-888 # 1c00dc88 <SystemStateToSCUFastSeq>
1c003056:	00251913          	slli	s2,a0,0x2
1c00305a:	c585                	beqz	a1,1c003082 <InitOneFll+0x50>
1c00305c:	c7a79733          	p.extractu	a4,a5,3,26
1c003060:	1007d7b3          	p.exthz	a5,a5
1c003064:	07be                	slli	a5,a5,0xf
1c003066:	c701                	beqz	a4,1c00306e <InitOneFll+0x3c>
1c003068:	177d                	addi	a4,a4,-1
1c00306a:	00e7d7b3          	srl	a5,a5,a4
1c00306e:	944a                	add	s0,s0,s2
1c003070:	d01c                	sw	a5,32(s0)
1c003072:	c81c                	sw	a5,16(s0)
1c003074:	50b2                	lw	ra,44(sp)
1c003076:	5422                	lw	s0,40(sp)
1c003078:	5492                	lw	s1,36(sp)
1c00307a:	5902                	lw	s2,32(sp)
1c00307c:	49f2                	lw	s3,28(sp)
1c00307e:	6145                	addi	sp,sp,48
1c003080:	8082                	ret
1c003082:	0007d363          	bgez	a5,1c003088 <InitOneFll+0x56>
1c003086:	c105                	beqz	a0,1c0030a6 <InitOneFll+0x74>
1c003088:	810047b7          	lui	a5,0x81004
1c00308c:	1a1006b7          	lui	a3,0x1a100
1c003090:	00870613          	addi	a2,a4,8
1c003094:	10778793          	addi	a5,a5,263 # 81004107 <pulp__FC+0x81004108>
1c003098:	00f6e623          	p.sw	a5,a2(a3)
1c00309c:	014c04b7          	lui	s1,0x14c0
1c0030a0:	0731                	addi	a4,a4,12
1c0030a2:	0096e723          	p.sw	s1,a4(a3)
1c0030a6:	02faf537          	lui	a0,0x2faf
1c0030aa:	0070                	addi	a2,sp,12
1c0030ac:	002c                	addi	a1,sp,8
1c0030ae:	08050513          	addi	a0,a0,128 # 2faf080 <__L2+0x2f2f080>
1c0030b2:	33d1                	jal	1c002e76 <SetFllMultDivFactors>
1c0030b4:	47a2                	lw	a5,8(sp)
1c0030b6:	c00004b7          	lui	s1,0xc0000
1c0030ba:	de07a4b3          	p.insert	s1,a5,15,0
1c0030be:	47b2                	lw	a5,12(sp)
1c0030c0:	c7a7a4b3          	p.insert	s1,a5,3,26
1c0030c4:	1a1007b7          	lui	a5,0x1a100
1c0030c8:	0097e9a3          	p.sw	s1,s3(a5)
1c0030cc:	944a                	add	s0,s0,s2
1c0030ce:	d008                	sw	a0,32(s0)
1c0030d0:	c808                	sw	a0,16(s0)
1c0030d2:	b74d                	j	1c003074 <InitOneFll+0x42>

1c0030d4 <__rt_pmu_cluster_power_up>:
1c0030d4:	1141                	addi	sp,sp,-16
1c0030d6:	c226                	sw	s1,4(sp)
1c0030d8:	1c00e4b7          	lui	s1,0x1c00e
1c0030dc:	c606                	sw	ra,12(sp)
1c0030de:	c422                	sw	s0,8(sp)
1c0030e0:	c04a                	sw	s2,0(sp)
1c0030e2:	c8848793          	addi	a5,s1,-888 # 1c00dc88 <SystemStateToSCUFastSeq>
1c0030e6:	0087c783          	lbu	a5,8(a5) # 1a100008 <__l1_end+0xa0fffe8>
1c0030ea:	4501                	li	a0,0
1c0030ec:	c00797b3          	p.extractu	a5,a5,0,0
1c0030f0:	e785                	bnez	a5,1c003118 <__rt_pmu_cluster_power_up+0x44>
1c0030f2:	1c0067b7          	lui	a5,0x1c006
1c0030f6:	cd47a783          	lw	a5,-812(a5) # 1c005cd4 <__rt_platform>
1c0030fa:	c8848493          	addi	s1,s1,-888
1c0030fe:	0217b363          	p.bneimm	a5,1,1c003124 <__rt_pmu_cluster_power_up+0x50>
1c003102:	1a1047b7          	lui	a5,0x1a104
1c003106:	0007a623          	sw	zero,12(a5) # 1a10400c <__l1_end+0xa103fec>
1c00310a:	0084c783          	lbu	a5,8(s1)
1c00310e:	4505                	li	a0,1
1c003110:	c007c7b3          	p.bset	a5,a5,0,0
1c003114:	00f48423          	sb	a5,8(s1)
1c003118:	40b2                	lw	ra,12(sp)
1c00311a:	4422                	lw	s0,8(sp)
1c00311c:	4492                	lw	s1,4(sp)
1c00311e:	4902                	lw	s2,0(sp)
1c003120:	0141                	addi	sp,sp,16
1c003122:	8082                	ret
1c003124:	1a104437          	lui	s0,0x1a104
1c003128:	07042403          	lw	s0,112(s0) # 1a104070 <__l1_end+0xa104050>
1c00312c:	c0a417b3          	p.extractu	a5,s0,0,10
1c003130:	ef81                	bnez	a5,1c003148 <__rt_pmu_cluster_power_up+0x74>
1c003132:	4785                	li	a5,1
1c003134:	c0a7a433          	p.insert	s0,a5,0,10
1c003138:	1a1047b7          	lui	a5,0x1a104
1c00313c:	0687a823          	sw	s0,112(a5) # 1a104070 <__l1_end+0xa104050>
1c003140:	4585                	li	a1,1
1c003142:	02300513          	li	a0,35
1c003146:	3ed5                	jal	1c002d3a <__rt_periph_wait_event>
1c003148:	4785                	li	a5,1
1c00314a:	c037a433          	p.insert	s0,a5,0,3
1c00314e:	1a104937          	lui	s2,0x1a104
1c003152:	06892823          	sw	s0,112(s2) # 1a104070 <__l1_end+0xa104050>
1c003156:	4585                	li	a1,1
1c003158:	457d                	li	a0,31
1c00315a:	36c5                	jal	1c002d3a <__rt_periph_wait_event>
1c00315c:	00092623          	sw	zero,12(s2)
1c003160:	c0d02433          	p.insert	s0,zero,0,13
1c003164:	06892823          	sw	s0,112(s2)
1c003168:	c0a02433          	p.insert	s0,zero,0,10
1c00316c:	06892823          	sw	s0,112(s2)
1c003170:	4585                	li	a1,1
1c003172:	02300513          	li	a0,35
1c003176:	36d1                	jal	1c002d3a <__rt_periph_wait_event>
1c003178:	01c4c783          	lbu	a5,28(s1)
1c00317c:	0207f793          	andi	a5,a5,32
1c003180:	e781                	bnez	a5,1c003188 <__rt_pmu_cluster_power_up+0xb4>
1c003182:	4581                	li	a1,0
1c003184:	4505                	li	a0,1
1c003186:	3575                	jal	1c003032 <InitOneFll>
1c003188:	c0e44433          	p.bset	s0,s0,0,14
1c00318c:	1a1047b7          	lui	a5,0x1a104
1c003190:	0687a823          	sw	s0,112(a5) # 1a104070 <__l1_end+0xa104050>
1c003194:	bf9d                	j	1c00310a <__rt_pmu_cluster_power_up+0x36>

1c003196 <InitFlls>:

  }
}

void  __attribute__ ((noinline)) InitFlls()
{
1c003196:	1141                	addi	sp,sp,-16
1c003198:	c422                	sw	s0,8(sp)
  __rt_bridge_req_shutdown();

  InitOneFll(FLL_SOC, PMURetentionState.Fields.FllSoCRetention);
1c00319a:	1c00e437          	lui	s0,0x1c00e
{
1c00319e:	c606                	sw	ra,12(sp)
  InitOneFll(FLL_SOC, PMURetentionState.Fields.FllSoCRetention);
1c0031a0:	c8840413          	addi	s0,s0,-888 # 1c00dc88 <SystemStateToSCUFastSeq>
  __rt_bridge_req_shutdown();
1c0031a4:	c1aff0ef          	jal	ra,1c0025be <__rt_bridge_req_shutdown>
  InitOneFll(FLL_SOC, PMURetentionState.Fields.FllSoCRetention);
1c0031a8:	01c44583          	lbu	a1,28(s0)
1c0031ac:	4501                	li	a0,0
1c0031ae:	c04595b3          	p.extractu	a1,a1,0,4
1c0031b2:	3541                	jal	1c003032 <InitOneFll>
#define PMU_ERROR_CLUSTER_STATE_CHANGE_FAILED   (0x1<<4)

extern void 		   InitPMUDriver();

static inline int 	   PMU_ClusterIsDown()    { return (CLUSTER_STATE(PMUState.State)==CLUSTER_OFF);}
static inline int 	   PMU_ClusterIsRunning() { return (CLUSTER_STATE(PMUState.State)==CLUSTER_ON);}
1c0031b4:	00844783          	lbu	a5,8(s0)
1c0031b8:	c00797b3          	p.extractu	a5,a5,0,0
  if (PMU_ClusterIsRunning()) InitOneFll(FLL_CLUSTER, PMURetentionState.Fields.FllClusterRetention);
1c0031bc:	0017b863          	p.bneimm	a5,1,1c0031cc <InitFlls+0x36>
1c0031c0:	01c44583          	lbu	a1,28(s0)
1c0031c4:	4505                	li	a0,1
1c0031c6:	c05595b3          	p.extractu	a1,a1,0,5
1c0031ca:	35a5                	jal	1c003032 <InitOneFll>

#ifdef __RT_USE_BRIDGE
  __rt_bridge_set_available();
#endif
}
1c0031cc:	4422                	lw	s0,8(sp)
1c0031ce:	40b2                	lw	ra,12(sp)
1c0031d0:	0141                	addi	sp,sp,16
  __rt_bridge_set_available();
1c0031d2:	b56ff06f          	j	1c002528 <__rt_bridge_set_available>

1c0031d6 <__rt_pmu_init>:
1c0031d6:	1c0067b7          	lui	a5,0x1c006
  if (rt_platform() == ARCHI_PLATFORM_FPGA) {
1c0031da:	cd47a783          	lw	a5,-812(a5) # 1c005cd4 <__rt_platform>
1c0031de:	0a17a163          	p.beqimm	a5,1,1c003280 <__rt_pmu_init+0xaa>
{
1c0031e2:	1141                	addi	sp,sp,-16
  __rt_wakeup_use_fast = 0;
1c0031e4:	1c00e7b7          	lui	a5,0x1c00e
  return IP_READ(ARCHI_APB_SOC_CTRL_ADDR, PMU_DCDC_CONFIG_OFFSET);
1c0031e8:	1a104637          	lui	a2,0x1a104
{
1c0031ec:	c606                	sw	ra,12(sp)
  __rt_wakeup_use_fast = 0;
1c0031ee:	f607ac23          	sw	zero,-136(a5) # 1c00df78 <__rt_wakeup_use_fast>
1c0031f2:	10062703          	lw	a4,256(a2) # 1a104100 <__l1_end+0xa1040e0>
  return IP_READ(ARCHI_APB_SOC_CTRL_ADDR, PMU_RETENTION_CONFIG_OFFSET);
1c0031f6:	10462683          	lw	a3,260(a2)
  PMURetentionState.Raw = GetRetentiveState();
1c0031fa:	1c00e7b7          	lui	a5,0x1c00e
1c0031fe:	c8878793          	addi	a5,a5,-888 # 1c00dc88 <SystemStateToSCUFastSeq>
1c003202:	cfd4                	sw	a3,28(a5)
  PMUState.State = RetPMUStateToPMUState[PMURetentionState.Fields.WakeupState];
1c003204:	c2e696b3          	p.extractu	a3,a3,1,14
1c003208:	96be                	add	a3,a3,a5
1c00320a:	0286c683          	lbu	a3,40(a3) # 1a100028 <__l1_end+0xa100008>
  PMUState.DCDC_Settings[REGU_OFF] = 0;
1c00320e:	000786a3          	sb	zero,13(a5)
  PMUState.State = RetPMUStateToPMUState[PMURetentionState.Fields.WakeupState];
1c003212:	00d78423          	sb	a3,8(a5)
  PMUState.DCDC_Settings[REGU_NV]  = __builtin_bitextractu(DCDCValue, DCDC_RANGE, DCDC_Nominal*8);
1c003216:	c80716b3          	p.extractu	a3,a4,4,0
1c00321a:	00d78523          	sb	a3,10(a5)
  PMUState.DCDC_Settings[REGU_LV]  = __builtin_bitextractu(DCDCValue, DCDC_RANGE, DCDC_Low*8);
1c00321e:	c90716b3          	p.extractu	a3,a4,4,16
  PMUState.DCDC_Settings[REGU_RET] = __builtin_bitextractu(DCDCValue, DCDC_RANGE, DCDC_Retentive*8);
1c003222:	c9871733          	p.extractu	a4,a4,4,24
  PMUState.DCDC_Settings[REGU_LV]  = __builtin_bitextractu(DCDCValue, DCDC_RANGE, DCDC_Low*8);
1c003226:	00d785a3          	sb	a3,11(a5)
  PMUState.DCDC_Settings[REGU_RET] = __builtin_bitextractu(DCDCValue, DCDC_RANGE, DCDC_Retentive*8);
1c00322a:	00e78623          	sb	a4,12(a5)
  Bypass.Raw = GetPMUBypass();
1c00322e:	07062783          	lw	a5,112(a2)
  Bypass.Fields.Bypass = 1;
1c003232:	4705                	li	a4,1
1c003234:	c00727b3          	p.insert	a5,a4,0,0
  Bypass.Fields.BypassClock = 1;
1c003238:	c09727b3          	p.insert	a5,a4,0,9
  IP_WRITE(ARCHI_APB_SOC_CTRL_ADDR, APB_SOC_CL_BYPASS_OFFSET, Value);
1c00323c:	06f62823          	sw	a5,112(a2)
  InitFlls();
1c003240:	3f99                	jal	1c003196 <InitFlls>
  soc_eu_fcEventMask_setEvent(ARCHI_SOC_EVENT_CLUSTER_ON_OFF);
1c003242:	457d                	li	a0,31
1c003244:	39b9                	jal	1c002ea2 <soc_eu_fcEventMask_setEvent>
  soc_eu_fcEventMask_setEvent(ARCHI_SOC_EVENT_MSP);
1c003246:	02000513          	li	a0,32
1c00324a:	39a1                	jal	1c002ea2 <soc_eu_fcEventMask_setEvent>
  soc_eu_fcEventMask_setEvent(ARCHI_SOC_EVENT_ICU_MODE_CHANGED);
1c00324c:	02100513          	li	a0,33
1c003250:	3989                	jal	1c002ea2 <soc_eu_fcEventMask_setEvent>
  soc_eu_fcEventMask_setEvent(ARCHI_SOC_EVENT_ICU_OK);
1c003252:	02200513          	li	a0,34
1c003256:	31b1                	jal	1c002ea2 <soc_eu_fcEventMask_setEvent>
  soc_eu_fcEventMask_setEvent(ARCHI_SOC_EVENT_ICU_DELAYED);
1c003258:	02300513          	li	a0,35
1c00325c:	3199                	jal	1c002ea2 <soc_eu_fcEventMask_setEvent>
  soc_eu_fcEventMask_setEvent(ARCHI_SOC_EVENT_PICL_OK);
1c00325e:	02400513          	li	a0,36
1c003262:	3181                	jal	1c002ea2 <soc_eu_fcEventMask_setEvent>
  soc_eu_fcEventMask_setEvent(ARCHI_SOC_EVENT_SCU_OK);
1c003264:	02500513          	li	a0,37
1c003268:	392d                	jal	1c002ea2 <soc_eu_fcEventMask_setEvent>
  PMU_Write(DLC_IMR, 0x7);
1c00326a:	1a1077b7          	lui	a5,0x1a107
1c00326e:	471d                	li	a4,7
1c003270:	00e7a623          	sw	a4,12(a5) # 1a10700c <__l1_end+0xa106fec>
  PMU_Write(DLC_IFR, (MAESTRO_EVENT_PICL_OK|MAESTRO_EVENT_SCU_OK));
1c003274:	4761                	li	a4,24
1c003276:	00e7a823          	sw	a4,16(a5)
}
1c00327a:	40b2                	lw	ra,12(sp)
1c00327c:	0141                	addi	sp,sp,16
1c00327e:	8082                	ret
1c003280:	8082                	ret

1c003282 <__rt_fll_init>:


unsigned int __rt_fll_init(int fll)
{
  return FllsFrequency[fll];
1c003282:	00251793          	slli	a5,a0,0x2
1c003286:	1c00e537          	lui	a0,0x1c00e
1c00328a:	c8850513          	addi	a0,a0,-888 # 1c00dc88 <SystemStateToSCUFastSeq>
1c00328e:	953e                	add	a0,a0,a5
}
1c003290:	5108                	lw	a0,32(a0)
1c003292:	8082                	ret

1c003294 <__rt_fll_deinit>:

void __rt_fll_deinit(int fll)
{
}
1c003294:	8082                	ret

1c003296 <__rt_flls_constructor>:

void __rt_flls_constructor()
{
}
1c003296:	8082                	ret

1c003298 <__rt_fll_set_freq>:

unsigned int __rt_fll_set_freq(int fll, unsigned int frequency)
{
  return SetFllFrequency(fll, frequency, 0);
1c003298:	4601                	li	a2,0
1c00329a:	b96d                	j	1c002f54 <SetFllFrequency>

1c00329c <__rt_init_cluster_data>:
{
#if defined(EU_VERSION) && EU_VERSION >= 3
  eu_evt_maskSet((1<<PULP_DISPATCH_EVENT) | (1<<PULP_HW_BAR_EVENT) | (1<<PULP_MUTEX_EVENT));
  rt_team_fork(rt_nb_pe(), cluster_pe_start, NULL);
#endif
}
1c00329c:	04050713          	addi	a4,a0,64
1c0032a0:	00400793          	li	a5,4
1c0032a4:	01671613          	slli	a2,a4,0x16
1c0032a8:	e6c7b7b3          	p.bclr	a5,a5,19,12
1c0032ac:	1c00e6b7          	lui	a3,0x1c00e
1c0032b0:	97b2                	add	a5,a5,a2
1c0032b2:	fa868693          	addi	a3,a3,-88 # 1c00dfa8 <_bss_end>
1c0032b6:	01c00713          	li	a4,28
1c0032ba:	8f95                	sub	a5,a5,a3
1c0032bc:	00f685b3          	add	a1,a3,a5
1c0032c0:	02e04963          	bgtz	a4,1c0032f2 <__rt_init_cluster_data+0x56>
1c0032c4:	1c00e7b7          	lui	a5,0x1c00e
1c0032c8:	02800713          	li	a4,40
1c0032cc:	f8078793          	addi	a5,a5,-128 # 1c00df80 <__rt_fc_cluster_data>
1c0032d0:	42e507b3          	p.mac	a5,a0,a4
1c0032d4:	00201737          	lui	a4,0x201
1c0032d8:	e0470713          	addi	a4,a4,-508 # 200e04 <__L2+0x180e04>
1c0032dc:	9732                	add	a4,a4,a2
1c0032de:	cb98                	sw	a4,16(a5)
1c0032e0:	00400713          	li	a4,4
1c0032e4:	e6c73733          	p.bclr	a4,a4,19,12
1c0032e8:	9732                	add	a4,a4,a2
1c0032ea:	0007a423          	sw	zero,8(a5)
1c0032ee:	cbd8                	sw	a4,20(a5)
1c0032f0:	8082                	ret
1c0032f2:	0046a80b          	p.lw	a6,4(a3!)
1c0032f6:	1771                	addi	a4,a4,-4
1c0032f8:	0105a023          	sw	a6,0(a1)
1c0032fc:	b7c1                	j	1c0032bc <__rt_init_cluster_data+0x20>

1c0032fe <__rt_cluster_init>:
1c0032fe:	1c00e537          	lui	a0,0x1c00e
1c003302:	1141                	addi	sp,sp,-16
1c003304:	02800613          	li	a2,40
1c003308:	4581                	li	a1,0
1c00330a:	f8050513          	addi	a0,a0,-128 # 1c00df80 <__rt_fc_cluster_data>
1c00330e:	c606                	sw	ra,12(sp)
1c003310:	709000ef          	jal	ra,1c004218 <memset>
1c003314:	1c0055b7          	lui	a1,0x1c005
1c003318:	52858593          	addi	a1,a1,1320 # 1c005528 <__rt_dma_2d>
1c00331c:	4525                	li	a0,9
1c00331e:	dfdfe0ef          	jal	ra,1c00211a <rt_irq_set_handler>
1c003322:	1c0005b7          	lui	a1,0x1c000
1c003326:	17458593          	addi	a1,a1,372 # 1c000174 <__rt_remote_enqueue_event>
1c00332a:	4505                	li	a0,1
1c00332c:	deffe0ef          	jal	ra,1c00211a <rt_irq_set_handler>
1c003330:	4789                	li	a5,2
1c003332:	00204737          	lui	a4,0x204
1c003336:	00f72a23          	sw	a5,20(a4) # 204014 <__L2+0x184014>
1c00333a:	00f72423          	sw	a5,8(a4)
1c00333e:	1c0005b7          	lui	a1,0x1c000
1c003342:	13c58593          	addi	a1,a1,316 # 1c00013c <__rt_bridge_enqueue_event>
1c003346:	4511                	li	a0,4
1c003348:	dd3fe0ef          	jal	ra,1c00211a <rt_irq_set_handler>
1c00334c:	47c1                	li	a5,16
1c00334e:	00204737          	lui	a4,0x204
1c003352:	00f72a23          	sw	a5,20(a4) # 204014 <__L2+0x184014>
1c003356:	00f72423          	sw	a5,8(a4)
1c00335a:	40b2                	lw	ra,12(sp)
1c00335c:	4501                	li	a0,0
1c00335e:	0141                	addi	sp,sp,16
1c003360:	8082                	ret

1c003362 <__rt_cluster_mount_step>:
{
1c003362:	7179                	addi	sp,sp,-48
1c003364:	ce4e                	sw	s3,28(sp)
1c003366:	cc52                	sw	s4,24(sp)
      plp_ctrl_core_bootaddr_set_remote(cid, i, ((int)_start) & 0xffffff00);
1c003368:	1c000a37          	lui	s4,0x1c000
  return (void *)(ARCHI_CLUSTER_GLOBAL_ADDR(cid) + ((int)data & 0xFFF));
1c00336c:	00400993          	li	s3,4
1c003370:	080a0a13          	addi	s4,s4,128 # 1c000080 <_start>
{
1c003374:	d422                	sw	s0,40(sp)
1c003376:	d606                	sw	ra,44(sp)
1c003378:	d226                	sw	s1,36(sp)
1c00337a:	d04a                	sw	s2,32(sp)
1c00337c:	ca56                	sw	s5,20(sp)
1c00337e:	842a                	mv	s0,a0
1c003380:	e6c9b9b3          	p.bclr	s3,s3,19,12
      plp_ctrl_core_bootaddr_set_remote(cid, i, ((int)_start) & 0xffffff00);
1c003384:	ce0a3a33          	p.bclr	s4,s4,7,0
    switch (cluster->state)
1c003388:	4c5c                	lw	a5,28(s0)
1c00338a:	0217ac63          	p.beqimm	a5,1,1c0033c2 <__rt_cluster_mount_step+0x60>
1c00338e:	0c27a363          	p.beqimm	a5,2,1c003454 <__rt_cluster_mount_step+0xf2>
1c003392:	efcd                	bnez	a5,1c00344c <__rt_cluster_mount_step+0xea>
  int cid = cluster->cid;
1c003394:	5018                	lw	a4,32(s0)
  cluster->powered_up = 0;
1c003396:	00042c23          	sw	zero,24(s0)
  if (cid == 0)
1c00339a:	e719                	bnez	a4,1c0033a8 <__rt_cluster_mount_step+0x46>
    cluster->powered_up = __rt_pmu_cluster_power_up(cluster->mount_event, &pending);
1c00339c:	5048                	lw	a0,36(s0)
1c00339e:	006c                	addi	a1,sp,12
    int pending = 0;
1c0033a0:	c602                	sw	zero,12(sp)
    cluster->powered_up = __rt_pmu_cluster_power_up(cluster->mount_event, &pending);
1c0033a2:	3b0d                	jal	1c0030d4 <__rt_pmu_cluster_power_up>
    return pending;
1c0033a4:	47b2                	lw	a5,12(sp)
    cluster->powered_up = __rt_pmu_cluster_power_up(cluster->mount_event, &pending);
1c0033a6:	cc08                	sw	a0,24(s0)
    cluster->state++;
1c0033a8:	4c58                	lw	a4,28(s0)
1c0033aa:	0705                	addi	a4,a4,1
1c0033ac:	cc58                	sw	a4,28(s0)
  while(!end)
1c0033ae:	dfe9                	beqz	a5,1c003388 <__rt_cluster_mount_step+0x26>
}
1c0033b0:	50b2                	lw	ra,44(sp)
1c0033b2:	5422                	lw	s0,40(sp)
1c0033b4:	5492                	lw	s1,36(sp)
1c0033b6:	5902                	lw	s2,32(sp)
1c0033b8:	49f2                	lw	s3,28(sp)
1c0033ba:	4a62                	lw	s4,24(sp)
1c0033bc:	4ad2                	lw	s5,20(sp)
1c0033be:	6145                	addi	sp,sp,48
1c0033c0:	8082                	ret
1c0033c2:	02042a83          	lw	s5,32(s0)
1c0033c6:	040a8493          	addi	s1,s5,64
1c0033ca:	04da                	slli	s1,s1,0x16
1c0033cc:	009987b3          	add	a5,s3,s1
  pool->first_call_fc_for_cl = NULL;
1c0033d0:	0007a023          	sw	zero,0(a5)
  pool->first_call_fc = NULL;
1c0033d4:	0007a223          	sw	zero,4(a5)
  pool->last_call_fc = NULL;
1c0033d8:	0007a423          	sw	zero,8(a5)
  __rt_cluster_fc_task_lock = 0;
1c0033dc:	100007b7          	lui	a5,0x10000
1c0033e0:	0007ae23          	sw	zero,28(a5) # 1000001c <__rt_cluster_fc_task_lock>
  return __rt_platform;
1c0033e4:	1c0067b7          	lui	a5,0x1c006
    if (rt_platform() != ARCHI_PLATFORM_FPGA)
1c0033e8:	cd47a783          	lw	a5,-812(a5) # 1c005cd4 <__rt_platform>
1c0033ec:	0017ae63          	p.beqimm	a5,1,1c003408 <__rt_cluster_mount_step+0xa6>
      int init_freq = __rt_fll_init(__RT_FLL_CL);
1c0033f0:	4505                	li	a0,1
1c0033f2:	3d41                	jal	1c003282 <__rt_fll_init>

  #if defined(FLL_VERSION)

  static inline int rt_freq_get(rt_freq_domain_e domain)
  {
    return __rt_freq_domains[domain];
1c0033f4:	1c00e7b7          	lui	a5,0x1c00e
1c0033f8:	f7078793          	addi	a5,a5,-144 # 1c00df70 <__rt_freq_domains>
1c0033fc:	43cc                	lw	a1,4(a5)
      if (freq)
1c0033fe:	c9a9                	beqz	a1,1c003450 <__rt_cluster_mount_step+0xee>
    return rt_freq_set_and_get(domain, freq, NULL);
1c003400:	4601                	li	a2,0
1c003402:	4505                	li	a0,1
1c003404:	9ebff0ef          	jal	ra,1c002dee <rt_freq_set_and_get>
    IP_WRITE(ARCHI_CLUSTER_PERIPHERALS_GLOBAL_ADDR(cid), ARCHI_CLUSTER_CTRL_CLUSTER_CLK_GATE, 1);
1c003408:	00200937          	lui	s2,0x200
1c00340c:	01248733          	add	a4,s1,s2
1c003410:	4785                	li	a5,1
1c003412:	02f72023          	sw	a5,32(a4)
    __rt_init_cluster_data(cid);
1c003416:	8556                	mv	a0,s5
1c003418:	3551                	jal	1c00329c <__rt_init_cluster_data>
    __rt_alloc_init_l1(cid);
1c00341a:	8556                	mv	a0,s5
1c00341c:	cf2ff0ef          	jal	ra,1c00290e <__rt_alloc_init_l1>
  pulp_write32(ARCHI_CLUSTER_PERIPHERALS_GLOBAL_ADDR(cid) + ARCHI_ICACHE_CTRL_OFFSET, 0xFFFFFFFF);
1c003420:	002017b7          	lui	a5,0x201
1c003424:	40078793          	addi	a5,a5,1024 # 201400 <__L2+0x181400>
1c003428:	577d                	li	a4,-1
1c00342a:	04090913          	addi	s2,s2,64 # 200040 <__L2+0x180040>
1c00342e:	00e4e7a3          	p.sw	a4,a5(s1)
1c003432:	9926                	add	s2,s2,s1
1c003434:	008250fb          	lp.setupi	x1,8,1c00343c <__rt_cluster_mount_step+0xda>
  pulp_write32(ARCHI_CLUSTER_PERIPHERALS_GLOBAL_ADDR(cid) + ARCHI_CLUSTER_CTRL_OFFSET + 0x40 + core*4, bootAddr);
1c003438:	0149222b          	p.sw	s4,4(s2!)
1c00343c:	0001                	nop
  pulp_write32(ARCHI_CLUSTER_PERIPHERALS_GLOBAL_ADDR(cid) + ARCHI_CLUSTER_CTRL_OFFSET + EOC_FETCH_OFFSET, mask);
1c00343e:	002007b7          	lui	a5,0x200
1c003442:	07a1                	addi	a5,a5,8
1c003444:	0ff00713          	li	a4,255
1c003448:	00e4e7a3          	p.sw	a4,a5(s1)
    switch (cluster->state)
1c00344c:	4781                	li	a5,0
1c00344e:	bfa9                	j	1c0033a8 <__rt_cluster_mount_step+0x46>
    __rt_freq_domains[domain] = freq;
1c003450:	c3c8                	sw	a0,4(a5)
1c003452:	bf5d                	j	1c003408 <__rt_cluster_mount_step+0xa6>
        __rt_event_restore(cluster->mount_event);
1c003454:	505c                	lw	a5,36(s0)
  event->implem.pending = event->implem.saved_pending;
1c003456:	5bd8                	lw	a4,52(a5)
1c003458:	d3d8                	sw	a4,36(a5)
  event->arg[0] = (uintptr_t)event->implem.saved_callback;
1c00345a:	57d8                	lw	a4,44(a5)
1c00345c:	c3d8                	sw	a4,4(a5)
  event->arg[1] = (uintptr_t)event->implem.saved_arg;
1c00345e:	5b98                	lw	a4,48(a5)
1c003460:	c798                	sw	a4,8(a5)
  event->implem.saved_pending = 0;
1c003462:	0207aa23          	sw	zero,52(a5) # 200034 <__L2+0x180034>
        __rt_event_enqueue(cluster->mount_event);
1c003466:	505c                	lw	a5,36(s0)
  if (sched->first) {
1c003468:	01c02603          	lw	a2,28(zero) # 1c <_l1_preload_size>
1c00346c:	01c00693          	li	a3,28
  event->next = NULL;
1c003470:	0007a023          	sw	zero,0(a5)
  if (sched->first) {
1c003474:	c611                	beqz	a2,1c003480 <__rt_cluster_mount_step+0x11e>
    sched->last->next = event;
1c003476:	42d8                	lw	a4,4(a3)
1c003478:	c31c                	sw	a5,0(a4)
  sched->last = event;
1c00347a:	c2dc                	sw	a5,4(a3)
        end = 1;
1c00347c:	4785                	li	a5,1
1c00347e:	b72d                	j	1c0033a8 <__rt_cluster_mount_step+0x46>
    sched->first = event;
1c003480:	00f02e23          	sw	a5,28(zero) # 1c <_l1_preload_size>
1c003484:	bfdd                	j	1c00347a <__rt_cluster_mount_step+0x118>

1c003486 <pi_cluster_conf_init>:
  conf->id = 0;
1c003486:	00052223          	sw	zero,4(a0)
}
1c00348a:	8082                	ret

1c00348c <pi_cluster_open>:
{
1c00348c:	1101                	addi	sp,sp,-32
1c00348e:	ce06                	sw	ra,28(sp)
1c003490:	cc22                	sw	s0,24(sp)
1c003492:	ca26                	sw	s1,20(sp)
1c003494:	c84a                	sw	s2,16(sp)
1c003496:	c64e                	sw	s3,12(sp)
  return __builtin_pulp_read_then_spr_bit_clr(reg, val);
1c003498:	30047973          	csrrci	s2,mstatus,8
  struct pi_cluster_conf *conf = (struct pi_cluster_conf *)cluster_dev->config;
1c00349c:	00452983          	lw	s3,4(a0)
  cluster_dev->data = (void *)&__rt_fc_cluster_data[cid];
1c0034a0:	1c00e4b7          	lui	s1,0x1c00e
1c0034a4:	02800793          	li	a5,40
  int cid = conf->id;
1c0034a8:	0049a703          	lw	a4,4(s3)
  cluster_dev->data = (void *)&__rt_fc_cluster_data[cid];
1c0034ac:	f8048493          	addi	s1,s1,-128 # 1c00df80 <__rt_fc_cluster_data>
1c0034b0:	42f704b3          	p.mac	s1,a4,a5
1c0034b4:	c504                	sw	s1,8(a0)
  rt_event_t *event = __rt_wait_event_prepare_blocking();
1c0034b6:	9d2ff0ef          	jal	ra,1c002688 <__rt_wait_event_prepare_blocking>
  if (rt_is_fc() || (cid && !rt_has_fc()))
1c0034ba:	02000713          	li	a4,32
  asm("csrr %0, 0x014" : "=r" (hart_id) : );
1c0034be:	014027f3          	csrr	a5,uhartid
  return (hart_id >> 5) & 0x3f;
1c0034c2:	ca5797b3          	p.extractu	a5,a5,5,5
  rt_event_t *event = __rt_wait_event_prepare_blocking();
1c0034c6:	842a                	mv	s0,a0
  if (rt_is_fc() || (cid && !rt_has_fc()))
1c0034c8:	04e79463          	bne	a5,a4,1c003510 <pi_cluster_open+0x84>
  event->implem.saved_pending = event->implem.pending;
1c0034cc:	515c                	lw	a5,36(a0)
    cluster->state = RT_CLUSTER_MOUNT_START;
1c0034ce:	0004ae23          	sw	zero,28(s1)
    cluster->mount_event = event;
1c0034d2:	d0c8                	sw	a0,36(s1)
1c0034d4:	d95c                	sw	a5,52(a0)
  event->implem.saved_callback = (void (*)(void *))event->arg[0];
1c0034d6:	415c                	lw	a5,4(a0)
  event->implem.keep = 0;
1c0034d8:	02052423          	sw	zero,40(a0)
  event->implem.saved_callback = (void (*)(void *))event->arg[0];
1c0034dc:	d55c                	sw	a5,44(a0)
  event->implem.saved_arg = (void *)event->arg[1];
1c0034de:	451c                	lw	a5,8(a0)
  event->arg[1] = (uintptr_t)arg;
1c0034e0:	c504                	sw	s1,8(a0)
  event->implem.saved_arg = (void *)event->arg[1];
1c0034e2:	d91c                	sw	a5,48(a0)
  event->arg[0] = (uintptr_t)callback;
1c0034e4:	1c0037b7          	lui	a5,0x1c003
1c0034e8:	36278793          	addi	a5,a5,866 # 1c003362 <__rt_cluster_mount_step>
1c0034ec:	c15c                	sw	a5,4(a0)
  event->implem.pending = 1;  
1c0034ee:	4785                	li	a5,1
1c0034f0:	d15c                	sw	a5,36(a0)
    __rt_cluster_mount_step((void *)cluster);
1c0034f2:	8526                	mv	a0,s1
1c0034f4:	35bd                	jal	1c003362 <__rt_cluster_mount_step>
  __rt_wait_event(event);
1c0034f6:	8522                	mv	a0,s0
1c0034f8:	ae0ff0ef          	jal	ra,1c0027d8 <__rt_wait_event>
  __builtin_pulp_spr_write(reg, val);
1c0034fc:	30091073          	csrw	mstatus,s2
}
1c003500:	40f2                	lw	ra,28(sp)
1c003502:	4462                	lw	s0,24(sp)
1c003504:	44d2                	lw	s1,20(sp)
1c003506:	4942                	lw	s2,16(sp)
1c003508:	49b2                	lw	s3,12(sp)
1c00350a:	4501                	li	a0,0
1c00350c:	6105                	addi	sp,sp,32
1c00350e:	8082                	ret
  if (__rt_cluster_mount(&__rt_fc_cluster_data[cid], conf->id, 0, event))
1c003510:	0049a483          	lw	s1,4(s3)
    __rt_init_cluster_data(cid);
1c003514:	8526                	mv	a0,s1
1c003516:	3359                	jal	1c00329c <__rt_init_cluster_data>
1c003518:	04048513          	addi	a0,s1,64
1c00351c:	002017b7          	lui	a5,0x201
1c003520:	055a                	slli	a0,a0,0x16
1c003522:	40078793          	addi	a5,a5,1024 # 201400 <__L2+0x181400>
1c003526:	577d                	li	a4,-1
1c003528:	00e567a3          	p.sw	a4,a5(a0)
1c00352c:	002007b7          	lui	a5,0x200
      plp_ctrl_core_bootaddr_set_remote(cid, i, ((int)_start) & 0xffffff00);
1c003530:	1c000737          	lui	a4,0x1c000
1c003534:	04478793          	addi	a5,a5,68 # 200044 <__L2+0x180044>
1c003538:	08070713          	addi	a4,a4,128 # 1c000080 <_start>
1c00353c:	97aa                	add	a5,a5,a0
1c00353e:	ce073733          	p.bclr	a4,a4,7,0
1c003542:	007250fb          	lp.setupi	x1,7,1c00354a <pi_cluster_open+0xbe>
  pulp_write32(ARCHI_CLUSTER_PERIPHERALS_GLOBAL_ADDR(cid) + ARCHI_CLUSTER_CTRL_OFFSET + 0x40 + core*4, bootAddr);
1c003546:	00e7a22b          	p.sw	a4,4(a5!)
1c00354a:	0001                	nop
  pulp_write32(ARCHI_CLUSTER_PERIPHERALS_GLOBAL_ADDR(cid) + ARCHI_CLUSTER_CTRL_OFFSET + EOC_FETCH_OFFSET, mask);
1c00354c:	002007b7          	lui	a5,0x200
1c003550:	07a1                	addi	a5,a5,8
1c003552:	577d                	li	a4,-1
1c003554:	00e567a3          	p.sw	a4,a5(a0)
    rt_event_push(event);
1c003558:	8522                	mv	a0,s0
1c00355a:	9f6ff0ef          	jal	ra,1c002750 <rt_event_push>
1c00355e:	bf61                	j	1c0034f6 <pi_cluster_open+0x6a>

1c003560 <pi_cluster_close>:
  __rt_cluster_unmount(data->cid, 0, NULL);
1c003560:	451c                	lw	a5,8(a0)
{
1c003562:	1101                	addi	sp,sp,-32
1c003564:	cc22                	sw	s0,24(sp)
  __rt_cluster_unmount(data->cid, 0, NULL);
1c003566:	5380                	lw	s0,32(a5)
1c003568:	1c0067b7          	lui	a5,0x1c006
    if (rt_platform() != ARCHI_PLATFORM_FPGA)
1c00356c:	cd47a783          	lw	a5,-812(a5) # 1c005cd4 <__rt_platform>
{
1c003570:	ce06                	sw	ra,28(sp)
    if (rt_platform() != ARCHI_PLATFORM_FPGA)
1c003572:	0017a463          	p.beqimm	a5,1,1c00357a <pi_cluster_close+0x1a>
      __rt_fll_deinit(__RT_FLL_CL);
1c003576:	4505                	li	a0,1
1c003578:	3b31                	jal	1c003294 <__rt_fll_deinit>
    int pending = 0;
1c00357a:	c602                	sw	zero,12(sp)
  if (cid == 0) __rt_pmu_cluster_power_down(event, &pending);
1c00357c:	e409                	bnez	s0,1c003586 <pi_cluster_close+0x26>
1c00357e:	006c                	addi	a1,sp,12
1c003580:	4501                	li	a0,0
1c003582:	947ff0ef          	jal	ra,1c002ec8 <__rt_pmu_cluster_power_down>
}
1c003586:	40f2                	lw	ra,28(sp)
1c003588:	4462                	lw	s0,24(sp)
1c00358a:	4501                	li	a0,0
1c00358c:	6105                	addi	sp,sp,32
1c00358e:	8082                	ret

1c003590 <__rt_cluster_push_fc_event>:
  while (rt_tas_lock_32((int)&__rt_cluster_fc_task_lock) == -1)
1c003590:	100006b7          	lui	a3,0x10000
1c003594:	01c68693          	addi	a3,a3,28 # 1000001c <__rt_cluster_fc_task_lock>
  return addr | (1<<ARCHI_L1_TAS_BIT);
1c003598:	c146c5b3          	p.bset	a1,a3,0,20
  ARCHI_WRITE(ARCHI_EU_DEMUX_ADDR, EU_CORE_MASK_OR, evtMask);
1c00359c:	4709                	li	a4,2
1c00359e:	002047b7          	lui	a5,0x204
  signed int result = *(volatile signed int *)__rt_tas_addr(addr);
1c0035a2:	4190                	lw	a2,0(a1)
1c0035a4:	05f62063          	p.beqimm	a2,-1,1c0035e4 <__rt_cluster_push_fc_event+0x54>
  asm("csrr %0, 0x014" : "=r" (hart_id) : );
1c0035a8:	01402773          	csrr	a4,uhartid
  while(data->events != NULL)
1c0035ac:	1c00e7b7          	lui	a5,0x1c00e
  return (hart_id >> 5) & 0x3f;
1c0035b0:	8715                	srai	a4,a4,0x5
1c0035b2:	f2673733          	p.bclr	a4,a4,25,6
1c0035b6:	02800613          	li	a2,40
1c0035ba:	f8078793          	addi	a5,a5,-128 # 1c00df80 <__rt_fc_cluster_data>
1c0035be:	42c707b3          	p.mac	a5,a4,a2
1c0035c2:	4609                	li	a2,2
1c0035c4:	00204737          	lui	a4,0x204
1c0035c8:	43cc                	lw	a1,4(a5)
1c0035ca:	e585                	bnez	a1,1c0035f2 <__rt_cluster_push_fc_event+0x62>
  data->events = event;
1c0035cc:	c3c8                	sw	a0,4(a5)
  pulp_write32(evtAddr, coreSet);
1c0035ce:	1b2017b7          	lui	a5,0x1b201
1c0035d2:	e007a223          	sw	zero,-508(a5) # 1b200e04 <__fc_tcdm_end+0x1ffa34>
  *(volatile signed int *)addr = value;
1c0035d6:	0006a023          	sw	zero,0(a3)
1c0035da:	002047b7          	lui	a5,0x204
1c0035de:	1007a223          	sw	zero,260(a5) # 204104 <__L2+0x184104>
}
1c0035e2:	8082                	ret
  ARCHI_WRITE(ARCHI_EU_DEMUX_ADDR, EU_CORE_MASK_OR, evtMask);
1c0035e4:	00e7a423          	sw	a4,8(a5)
  value = __builtin_pulp_event_unit_read_fenced((int *)base, offset);
1c0035e8:	03c7e603          	p.elw	a2,60(a5)
  ARCHI_WRITE(ARCHI_EU_DEMUX_ADDR, EU_CORE_MASK_AND, evtMask);
1c0035ec:	00e7a223          	sw	a4,4(a5)
1c0035f0:	bf4d                	j	1c0035a2 <__rt_cluster_push_fc_event+0x12>
  ARCHI_WRITE(ARCHI_EU_DEMUX_ADDR, EU_CORE_MASK_OR, evtMask);
1c0035f2:	00c72423          	sw	a2,8(a4) # 204008 <__L2+0x184008>
  value = __builtin_pulp_event_unit_read_fenced((int *)base, offset);
1c0035f6:	03c76583          	p.elw	a1,60(a4)
  ARCHI_WRITE(ARCHI_EU_DEMUX_ADDR, EU_CORE_MASK_AND, evtMask);
1c0035fa:	00c72223          	sw	a2,4(a4)
1c0035fe:	b7e9                	j	1c0035c8 <__rt_cluster_push_fc_event+0x38>

1c003600 <__rt_cluster_new>:
  err |= __rt_cbsys_add(RT_CBSYS_START, __rt_cluster_init, NULL);
1c003600:	1c0035b7          	lui	a1,0x1c003
{
1c003604:	1141                	addi	sp,sp,-16
  err |= __rt_cbsys_add(RT_CBSYS_START, __rt_cluster_init, NULL);
1c003606:	4601                	li	a2,0
1c003608:	2fe58593          	addi	a1,a1,766 # 1c0032fe <__rt_cluster_init>
1c00360c:	4501                	li	a0,0
{
1c00360e:	c606                	sw	ra,12(sp)
  err |= __rt_cbsys_add(RT_CBSYS_START, __rt_cluster_init, NULL);
1c003610:	c77fe0ef          	jal	ra,1c002286 <__rt_cbsys_add>
  if (err) rt_fatal("Unable to initialize time driver\n");
1c003614:	c10d                	beqz	a0,1c003636 <__rt_cluster_new+0x36>
  asm("csrr %0, 0x014" : "=r" (hart_id) : );
1c003616:	01402673          	csrr	a2,uhartid
1c00361a:	1c006537          	lui	a0,0x1c006
  return (hart_id >> 5) & 0x3f;
1c00361e:	40565593          	srai	a1,a2,0x5
1c003622:	f265b5b3          	p.bclr	a1,a1,25,6
1c003626:	f4563633          	p.bclr	a2,a2,26,5
1c00362a:	a0c50513          	addi	a0,a0,-1524 # 1c005a0c <__clz_tab+0x390>
1c00362e:	6c3000ef          	jal	ra,1c0044f0 <printf>
1c003632:	62b000ef          	jal	ra,1c00445c <abort>
}
1c003636:	40b2                	lw	ra,12(sp)
1c003638:	0141                	addi	sp,sp,16
1c00363a:	8082                	ret

1c00363c <__rt_cluster_pulpos_emu_init>:
static struct pi_device *__rt_fc_cluster_device;
static struct pi_cluster_task __rt_pulpos_emu_global_cluster_task;


static void __attribute__((constructor)) __rt_cluster_pulpos_emu_init()
{
1c00363c:	1141                	addi	sp,sp,-16
  int nb_cluster = rt_nb_cluster();

  __rt_fc_cluster_device = rt_alloc(RT_ALLOC_FC_DATA, sizeof(struct pi_device)*nb_cluster);
1c00363e:	45b1                	li	a1,12
1c003640:	4505                	li	a0,1
{
1c003642:	c606                	sw	ra,12(sp)
  __rt_fc_cluster_device = rt_alloc(RT_ALLOC_FC_DATA, sizeof(struct pi_device)*nb_cluster);
1c003644:	a9cff0ef          	jal	ra,1c0028e0 <rt_alloc>
1c003648:	1c00e7b7          	lui	a5,0x1c00e
1c00364c:	f2a7ac23          	sw	a0,-200(a5) # 1c00df38 <__rt_fc_cluster_device>
  if (__rt_fc_cluster_device == NULL) {
1c003650:	e10d                	bnez	a0,1c003672 <__rt_cluster_pulpos_emu_init+0x36>
  asm("csrr %0, 0x014" : "=r" (hart_id) : );
1c003652:	01402673          	csrr	a2,uhartid
    rt_fatal("Unable to allocate cluster control structure\n");
1c003656:	1c006537          	lui	a0,0x1c006
  return (hart_id >> 5) & 0x3f;
1c00365a:	40565593          	srai	a1,a2,0x5
1c00365e:	f265b5b3          	p.bclr	a1,a1,25,6
1c003662:	f4563633          	p.bclr	a2,a2,26,5
1c003666:	a5450513          	addi	a0,a0,-1452 # 1c005a54 <__clz_tab+0x3d8>
1c00366a:	687000ef          	jal	ra,1c0044f0 <printf>
1c00366e:	5ef000ef          	jal	ra,1c00445c <abort>
    return;
  }
}
1c003672:	40b2                	lw	ra,12(sp)
1c003674:	0141                	addi	sp,sp,16
1c003676:	8082                	ret

1c003678 <rt_cluster_call>:

int rt_cluster_call(rt_cluster_call_t *_call, int cid, void (*entry)(void *arg), void *arg, void *stacks, int master_stack_size, int slave_stack_size, int nb_pe, rt_event_t *event)
{
1c003678:	7139                	addi	sp,sp,-64
1c00367a:	d84a                	sw	s2,48(sp)
1c00367c:	4906                	lw	s2,64(sp)
1c00367e:	dc22                	sw	s0,56(sp)
1c003680:	842e                	mv	s0,a1
1c003682:	de06                	sw	ra,60(sp)
1c003684:	da26                	sw	s1,52(sp)
1c003686:	d64e                	sw	s3,44(sp)
  return __builtin_pulp_read_then_spr_bit_clr(reg, val);
1c003688:	300479f3          	csrrci	s3,mstatus,8
  __asm__ __volatile__ ("" : : : "memory");
1c00368c:	84ca                	mv	s1,s2
  if (likely(event != NULL)) return event;
1c00368e:	02091163          	bnez	s2,1c0036b0 <rt_cluster_call+0x38>
  return __rt_wait_event_prepare_blocking();
1c003692:	ce32                	sw	a2,28(sp)
1c003694:	cc36                	sw	a3,24(sp)
1c003696:	ca3a                	sw	a4,20(sp)
1c003698:	c83e                	sw	a5,16(sp)
1c00369a:	c642                	sw	a6,12(sp)
1c00369c:	c446                	sw	a7,8(sp)
1c00369e:	febfe0ef          	jal	ra,1c002688 <__rt_wait_event_prepare_blocking>
1c0036a2:	48a2                	lw	a7,8(sp)
1c0036a4:	4832                	lw	a6,12(sp)
1c0036a6:	47c2                	lw	a5,16(sp)
1c0036a8:	4752                	lw	a4,20(sp)
1c0036aa:	46e2                	lw	a3,24(sp)
1c0036ac:	4672                	lw	a2,28(sp)
1c0036ae:	84aa                	mv	s1,a0
1c0036b0:	1c00e5b7          	lui	a1,0x1c00e
1c0036b4:	d5858513          	addi	a0,a1,-680 # 1c00dd58 <_bss_start>
  struct pi_cluster_task *task = &__rt_pulpos_emu_global_cluster_task;

  pi_cluster_task(task, entry, arg);

  task->stacks = stacks;
  task->stack_size = master_stack_size;
1c0036b8:	c55c                	sw	a5,12(a0)
  task->slave_stack_size = slave_stack_size;
  task->nb_cores = nb_pe;

  if (pi_cluster_send_task_to_cl_async(&__rt_fc_cluster_device[cid], task, call_event))
1c0036ba:	1c00e7b7          	lui	a5,0x1c00e
1c0036be:	c110                	sw	a2,0(a0)
    task->arg = arg;
1c0036c0:	c154                	sw	a3,4(a0)
  task->stacks = stacks;
1c0036c2:	c518                	sw	a4,8(a0)
  task->slave_stack_size = slave_stack_size;
1c0036c4:	01052823          	sw	a6,16(a0)
  task->nb_cores = nb_pe;
1c0036c8:	01152a23          	sw	a7,20(a0)
  if (pi_cluster_send_task_to_cl_async(&__rt_fc_cluster_device[cid], task, call_event))
1c0036cc:	f387a503          	lw	a0,-200(a5) # 1c00df38 <__rt_fc_cluster_device>
1c0036d0:	47b1                	li	a5,12
1c0036d2:	8626                	mv	a2,s1
1c0036d4:	42f40533          	p.mac	a0,s0,a5
1c0036d8:	d5858593          	addi	a1,a1,-680
1c0036dc:	2049                	jal	1c00375e <pi_cluster_send_task_to_cl_async>
1c0036de:	842a                	mv	s0,a0
1c0036e0:	cd01                	beqz	a0,1c0036f8 <rt_cluster_call+0x80>
  __builtin_pulp_spr_write(reg, val);
1c0036e2:	30099073          	csrw	mstatus,s3
  {
  	rt_irq_restore(irq);
  	return -1;
1c0036e6:	547d                	li	s0,-1
  __rt_wait_event_check(event, call_event);

  rt_irq_restore(irq);

  return 0;
}
1c0036e8:	8522                	mv	a0,s0
1c0036ea:	50f2                	lw	ra,60(sp)
1c0036ec:	5462                	lw	s0,56(sp)
1c0036ee:	54d2                	lw	s1,52(sp)
1c0036f0:	5942                	lw	s2,48(sp)
1c0036f2:	59b2                	lw	s3,44(sp)
1c0036f4:	6121                	addi	sp,sp,64
1c0036f6:	8082                	ret
  if (event == NULL) __rt_wait_event(call_event);
1c0036f8:	00091563          	bnez	s2,1c003702 <rt_cluster_call+0x8a>
1c0036fc:	8526                	mv	a0,s1
1c0036fe:	8daff0ef          	jal	ra,1c0027d8 <__rt_wait_event>
1c003702:	30099073          	csrw	mstatus,s3
  return 0;
1c003706:	b7cd                	j	1c0036e8 <rt_cluster_call+0x70>

1c003708 <rt_cluster_mount>:

void rt_cluster_mount(int mount, int cid, int flags, rt_event_t *event)
{
1c003708:	7139                	addi	sp,sp,-64
1c00370a:	dc22                	sw	s0,56(sp)
1c00370c:	da26                	sw	s1,52(sp)
1c00370e:	d84a                	sw	s2,48(sp)
1c003710:	4431                	li	s0,12
1c003712:	1c00e4b7          	lui	s1,0x1c00e
1c003716:	de06                	sw	ra,60(sp)
1c003718:	d64e                	sw	s3,44(sp)
1c00371a:	8936                	mv	s2,a3
1c00371c:	02858433          	mul	s0,a1,s0
1c003720:	f3848493          	addi	s1,s1,-200 # 1c00df38 <__rt_fc_cluster_device>
  if (mount)
1c003724:	c90d                	beqz	a0,1c003756 <rt_cluster_mount+0x4e>
  {
    struct pi_cluster_conf conf;
    pi_cluster_conf_init(&conf);
1c003726:	0028                	addi	a0,sp,8
1c003728:	89ae                	mv	s3,a1
1c00372a:	3bb1                	jal	1c003486 <pi_cluster_conf_init>
    pi_open_from_conf(&__rt_fc_cluster_device[cid], &conf);
1c00372c:	4088                	lw	a0,0(s1)
1c00372e:	002c                	addi	a1,sp,8
1c003730:	9522                	add	a0,a0,s0
1c003732:	9e5fe0ef          	jal	ra,1c002116 <pi_open_from_conf>
    conf.id = cid;
    pi_cluster_open(&__rt_fc_cluster_device[cid]);
1c003736:	4088                	lw	a0,0(s1)
    conf.id = cid;
1c003738:	c64e                	sw	s3,12(sp)
    pi_cluster_open(&__rt_fc_cluster_device[cid]);
1c00373a:	9522                	add	a0,a0,s0
1c00373c:	3b81                	jal	1c00348c <pi_cluster_open>
  else
  {
    pi_cluster_close(&__rt_fc_cluster_device[cid]);
  }

  if (event)
1c00373e:	00090563          	beqz	s2,1c003748 <rt_cluster_mount+0x40>
    rt_event_push(event);
1c003742:	854a                	mv	a0,s2
1c003744:	80cff0ef          	jal	ra,1c002750 <rt_event_push>
}
1c003748:	50f2                	lw	ra,60(sp)
1c00374a:	5462                	lw	s0,56(sp)
1c00374c:	54d2                	lw	s1,52(sp)
1c00374e:	5942                	lw	s2,48(sp)
1c003750:	59b2                	lw	s3,44(sp)
1c003752:	6121                	addi	sp,sp,64
1c003754:	8082                	ret
    pi_cluster_close(&__rt_fc_cluster_device[cid]);
1c003756:	4088                	lw	a0,0(s1)
1c003758:	9522                	add	a0,a0,s0
1c00375a:	3519                	jal	1c003560 <pi_cluster_close>
1c00375c:	b7cd                	j	1c00373e <rt_cluster_mount+0x36>

1c00375e <pi_cluster_send_task_to_cl_async>:
  }
}
#endif

int pi_cluster_send_task_to_cl_async(struct pi_device *device, struct pi_cluster_task *task, pi_task_t *async_task)
{
1c00375e:	1101                	addi	sp,sp,-32
1c003760:	ca26                	sw	s1,20(sp)
  rt_fc_cluster_data_t *data = (rt_fc_cluster_data_t *)device->data;
1c003762:	4504                	lw	s1,8(a0)
{
1c003764:	cc22                	sw	s0,24(sp)
1c003766:	c256                	sw	s5,4(sp)
1c003768:	842e                	mv	s0,a1
1c00376a:	8ab2                	mv	s5,a2
1c00376c:	ce06                	sw	ra,28(sp)
1c00376e:	c84a                	sw	s2,16(sp)
1c003770:	c64e                	sw	s3,12(sp)
1c003772:	c452                	sw	s4,8(sp)
  return __builtin_pulp_read_then_spr_bit_clr(reg, val);
1c003774:	30047a73          	csrrci	s4,mstatus,8

  int lock = __rt_cluster_lock(data);

  __rt_task_init(async_task);
  
  task->implem.pending = 1;
1c003778:	4785                	li	a5,1

void __rt_event_sched_init();

static inline void __rt_task_init(pi_task_t *task)
{
  task->done = 0;
1c00377a:	00060a23          	sb	zero,20(a2)
1c00377e:	d1dc                	sw	a5,36(a1)

  rt_cluster_call_pool_t *cl_data = data->pool;

  if (task->nb_cores == 0)
1c003780:	49dc                	lw	a5,20(a1)
  rt_cluster_call_pool_t *cl_data = data->pool;
1c003782:	0144a983          	lw	s3,20(s1)
  if (task->nb_cores == 0)
1c003786:	e399                	bnez	a5,1c00378c <pi_cluster_send_task_to_cl_async+0x2e>
    task->nb_cores = pi_cl_cluster_nb_cores();
1c003788:	47a1                	li	a5,8
1c00378a:	c9dc                	sw	a5,20(a1)

  if (task->stacks == NULL)
1c00378c:	441c                	lw	a5,8(s0)
1c00378e:	ef85                	bnez	a5,1c0037c6 <pi_cluster_send_task_to_cl_async+0x68>
  {
    if (task->stack_size == 0)
1c003790:	445c                	lw	a5,12(s0)
1c003792:	eb81                	bnez	a5,1c0037a2 <pi_cluster_send_task_to_cl_async+0x44>
    {
      task->stack_size = 0x800;
1c003794:	6785                	lui	a5,0x1
1c003796:	80078793          	addi	a5,a5,-2048 # 800 <__rt_stack_size>
1c00379a:	c45c                	sw	a5,12(s0)
      task->slave_stack_size = 0x400;
1c00379c:	40000793          	li	a5,1024
1c0037a0:	c81c                	sw	a5,16(s0)
    }

    if (task->slave_stack_size == 0)
1c0037a2:	481c                	lw	a5,16(s0)
1c0037a4:	00c42903          	lw	s2,12(s0)
1c0037a8:	e399                	bnez	a5,1c0037ae <pi_cluster_send_task_to_cl_async+0x50>
      task->slave_stack_size = task->stack_size;
1c0037aa:	01242823          	sw	s2,16(s0)

    int stacks_size = task->stack_size + task->slave_stack_size * (task->nb_cores - 1);
1c0037ae:	485c                	lw	a5,20(s0)
1c0037b0:	4818                	lw	a4,16(s0)

    if (data->stacks == NULL || stacks_size != data->stacks_size)
1c0037b2:	448c                	lw	a1,8(s1)
    int stacks_size = task->stack_size + task->slave_stack_size * (task->nb_cores - 1);
1c0037b4:	17fd                	addi	a5,a5,-1
1c0037b6:	42e78933          	p.mac	s2,a5,a4
    if (data->stacks == NULL || stacks_size != data->stacks_size)
1c0037ba:	c9b5                	beqz	a1,1c00382e <pi_cluster_send_task_to_cl_async+0xd0>
1c0037bc:	44d0                	lw	a2,12(s1)
1c0037be:	05261f63          	bne	a2,s2,1c00381c <pi_cluster_send_task_to_cl_async+0xbe>

      if (data->stacks == NULL)
        goto error;
    }

    task->stacks = data->stacks;
1c0037c2:	449c                	lw	a5,8(s1)
1c0037c4:	c41c                	sw	a5,8(s0)

  task->completion_callback = async_task;
#ifdef ARCHI_HAS_CC
  task->implem.core_mask = (1<<(task->nb_cores-1)) - 1;
#else
  task->implem.core_mask = (1<<task->nb_cores) - 1;
1c0037c6:	4858                	lw	a4,20(s0)
1c0037c8:	4785                	li	a5,1
  task->completion_callback = async_task;
1c0037ca:	01542c23          	sw	s5,24(s0)
  task->implem.core_mask = (1<<task->nb_cores) - 1;
1c0037ce:	00e797b3          	sll	a5,a5,a4
1c0037d2:	17fd                	addi	a5,a5,-1
1c0037d4:	d41c                	sw	a5,40(s0)
#endif

  task->next = NULL;
1c0037d6:	02042023          	sw	zero,32(s0)

  rt_compiler_barrier();

  if (cl_data->last_call_fc)
1c0037da:	0089a783          	lw	a5,8(s3)
1c0037de:	cbb5                	beqz	a5,1c003852 <pi_cluster_send_task_to_cl_async+0xf4>
  {
    cl_data->last_call_fc->next = task;
1c0037e0:	d380                	sw	s0,32(a5)
  else
  {
    cl_data->first_call_fc = task;
  }

  cl_data->last_call_fc = task;
1c0037e2:	0089a423          	sw	s0,8(s3)

  rt_compiler_barrier();
  
  if (cl_data->first_call_fc_for_cl == NULL)
1c0037e6:	0009a783          	lw	a5,0(s3)
1c0037ea:	e399                	bnez	a5,1c0037f0 <pi_cluster_send_task_to_cl_async+0x92>
    cl_data->first_call_fc_for_cl = task;
1c0037ec:	0089a023          	sw	s0,0(s3)
  return ARCHI_CLUSTER_PERIPHERALS_GLOBAL_ADDR(cluster) + ARCHI_EU_OFFSET + EU_SW_EVENTS_AREA_BASE + EU_CORE_TRIGG_SW_EVENT + (event << 2);
1c0037f0:	509c                	lw	a5,32(s1)
  pulp_write32(evtAddr, coreSet);
1c0037f2:	00201737          	lui	a4,0x201
1c0037f6:	e0470713          	addi	a4,a4,-508 # 200e04 <__L2+0x180e04>
  return ARCHI_CLUSTER_PERIPHERALS_GLOBAL_ADDR(cluster) + ARCHI_EU_OFFSET + EU_SW_EVENTS_AREA_BASE + EU_CORE_TRIGG_SW_EVENT + (event << 2);
1c0037fa:	04078793          	addi	a5,a5,64
1c0037fe:	07da                	slli	a5,a5,0x16
  pulp_write32(evtAddr, coreSet);
1c003800:	0007e723          	p.sw	zero,a4(a5)
  __builtin_pulp_spr_write(reg, val);
1c003804:	300a1073          	csrw	mstatus,s4
  rt_compiler_barrier();
  eu_evt_trig(eu_evt_trig_cluster_addr(data->cid, RT_CLUSTER_CALL_EVT), 0);

  __rt_cluster_unlock(data, lock);

  return 0;
1c003808:	4501                	li	a0,0

error:
  __rt_cluster_unlock(data, lock);
  return -1;
}
1c00380a:	40f2                	lw	ra,28(sp)
1c00380c:	4462                	lw	s0,24(sp)
1c00380e:	44d2                	lw	s1,20(sp)
1c003810:	4942                	lw	s2,16(sp)
1c003812:	49b2                	lw	s3,12(sp)
1c003814:	4a22                	lw	s4,8(sp)
1c003816:	4a92                	lw	s5,4(sp)
1c003818:	6105                	addi	sp,sp,32
1c00381a:	8082                	ret

#if defined(ARCHI_HAS_L1)

extern rt_alloc_t *__rt_alloc_l1;

static inline rt_alloc_t *rt_alloc_l1(int cid) { return &__rt_alloc_l1[cid]; }
1c00381c:	509c                	lw	a5,32(s1)
1c00381e:	1c00e737          	lui	a4,0x1c00e
1c003822:	f6072503          	lw	a0,-160(a4) # 1c00df60 <__rt_alloc_l1>
1c003826:	078a                	slli	a5,a5,0x2
        rt_user_free(rt_alloc_l1(data->cid), data->stacks, data->stacks_size);
1c003828:	953e                	add	a0,a0,a5
1c00382a:	86aff0ef          	jal	ra,1c002894 <rt_user_free>
1c00382e:	509c                	lw	a5,32(s1)
1c003830:	1c00e737          	lui	a4,0x1c00e
1c003834:	f6072503          	lw	a0,-160(a4) # 1c00df60 <__rt_alloc_l1>
1c003838:	078a                	slli	a5,a5,0x2
      data->stacks_size = stacks_size;
1c00383a:	0124a623          	sw	s2,12(s1)
      data->stacks = rt_user_alloc(rt_alloc_l1(data->cid), stacks_size);
1c00383e:	85ca                	mv	a1,s2
1c003840:	953e                	add	a0,a0,a5
1c003842:	80aff0ef          	jal	ra,1c00284c <rt_user_alloc>
1c003846:	c488                	sw	a0,8(s1)
      if (data->stacks == NULL)
1c003848:	fd2d                	bnez	a0,1c0037c2 <pi_cluster_send_task_to_cl_async+0x64>
1c00384a:	300a1073          	csrw	mstatus,s4
  return -1;
1c00384e:	557d                	li	a0,-1
1c003850:	bf6d                	j	1c00380a <pi_cluster_send_task_to_cl_async+0xac>
    cl_data->first_call_fc = task;
1c003852:	0089a223          	sw	s0,4(s3)
1c003856:	b771                	j	1c0037e2 <pi_cluster_send_task_to_cl_async+0x84>

1c003858 <pi_cluster_send_task_to_cl>:



int pi_cluster_send_task_to_cl(struct pi_device *device, struct pi_cluster_task *task)
{
1c003858:	7175                	addi	sp,sp,-144
  return 0;
}

static inline struct pi_task *pi_task_block(struct pi_task *task)
{
  task->id = PI_TASK_NONE_ID;
1c00385a:	4785                	li	a5,1
  pi_task_t fc_task;

  pi_task_block(&fc_task);

  if (pi_cluster_send_task_to_cl_async(device, task, &fc_task))
1c00385c:	860a                	mv	a2,sp
{
1c00385e:	c522                	sw	s0,136(sp)
1c003860:	c706                	sw	ra,140(sp)
1c003862:	c326                	sw	s1,132(sp)
1c003864:	c14a                	sw	s2,128(sp)
1c003866:	cc3e                	sw	a5,24(sp)
  task->arg[0] = (uint32_t)0;
1c003868:	c202                	sw	zero,4(sp)
  task->implem.keep = 1;
1c00386a:	d43e                	sw	a5,40(sp)
1c00386c:	00010a23          	sb	zero,20(sp)
  if (pi_cluster_send_task_to_cl_async(device, task, &fc_task))
1c003870:	35fd                	jal	1c00375e <pi_cluster_send_task_to_cl_async>
  {
    return -1;
1c003872:	547d                	li	s0,-1
  if (pi_cluster_send_task_to_cl_async(device, task, &fc_task))
1c003874:	e509                	bnez	a0,1c00387e <pi_cluster_send_task_to_cl+0x26>
1c003876:	842a                	mv	s0,a0

#endif

static inline void pi_task_wait_on(struct pi_task *task)
{
  while(!task->done)
1c003878:	01410783          	lb	a5,20(sp)
1c00387c:	cb81                	beqz	a5,1c00388c <pi_cluster_send_task_to_cl+0x34>
  }

  pi_task_wait_on(&fc_task);

  return 0;
}
1c00387e:	8522                	mv	a0,s0
1c003880:	40ba                	lw	ra,140(sp)
1c003882:	442a                	lw	s0,136(sp)
1c003884:	449a                	lw	s1,132(sp)
1c003886:	490a                	lw	s2,128(sp)
1c003888:	6149                	addi	sp,sp,144
1c00388a:	8082                	ret
  return __builtin_pulp_read_then_spr_bit_clr(reg, val);
1c00388c:	30047973          	csrrci	s2,mstatus,8
  __rt_event_execute(__rt_event_get_current_sched(), wait);
1c003890:	4585                	li	a1,1
1c003892:	01c00513          	li	a0,28
1c003896:	edffe0ef          	jal	ra,1c002774 <__rt_event_execute>
  __builtin_pulp_spr_write(reg, val);
1c00389a:	30091073          	csrw	mstatus,s2
1c00389e:	bfe9                	j	1c003878 <pi_cluster_send_task_to_cl+0x20>

1c0038a0 <rt_padframe_set>:
  return __builtin_pulp_read_then_spr_bit_clr(reg, val);
1c0038a0:	300476f3          	csrrci	a3,mstatus,8

void rt_padframe_set(rt_padframe_profile_t *profile)
{
  int irq = rt_irq_disable();

  unsigned int *config = profile->config;
1c0038a4:	4158                	lw	a4,4(a0)
  pulp_write32(ARCHI_APB_SOC_CTRL_ADDR + APB_SOC_PADFUN_OFFSET(id), value);
1c0038a6:	1a1047b7          	lui	a5,0x1a104
1c0038aa:	14078613          	addi	a2,a5,320 # 1a104140 <__l1_end+0xa104120>

  for (int i=0; i<ARCHI_APB_SOC_PADFUN_NB; i++)
  {
    hal_apb_soc_padfun_set(i, config[i]);
1c0038ae:	430c                	lw	a1,0(a4)
1c0038b0:	c20c                	sw	a1,0(a2)
1c0038b2:	434c                	lw	a1,4(a4)
1c0038b4:	14478613          	addi	a2,a5,324
1c0038b8:	14878793          	addi	a5,a5,328
1c0038bc:	c20c                	sw	a1,0(a2)
1c0038be:	4718                	lw	a4,8(a4)
1c0038c0:	c398                	sw	a4,0(a5)
  __builtin_pulp_spr_write(reg, val);
1c0038c2:	30069073          	csrw	mstatus,a3
  }

  rt_irq_restore(irq);
}
1c0038c6:	8082                	ret

1c0038c8 <__rt_padframe_init>:
  rt_padframe_set(&__rt_padframe_profiles[0]);
1c0038c8:	1c006537          	lui	a0,0x1c006
1c0038cc:	bf050513          	addi	a0,a0,-1040 # 1c005bf0 <__rt_padframe_profiles>
1c0038d0:	bfc1                	j	1c0038a0 <rt_padframe_set>

1c0038d2 <l2_memcpy>:
  req = __pi_hyper_cluster_reqs_first;
  if (req)
  {
    __pi_hyper_cluster_req_exec(req);
  }
}
1c0038d2:	87aa                	mv	a5,a0
1c0038d4:	962e                	add	a2,a2,a1
1c0038d6:	00c59363          	bne	a1,a2,1c0038dc <l2_memcpy+0xa>
1c0038da:	8082                	ret
1c0038dc:	0015c70b          	p.lbu	a4,1(a1!)
1c0038e0:	00e780ab          	p.sb	a4,1(a5!)
1c0038e4:	bfcd                	j	1c0038d6 <l2_memcpy+0x4>

1c0038e6 <rt_event_enqueue>:
1c0038e6:	300476f3          	csrrci	a3,mstatus,8
1c0038ea:	01c02603          	lw	a2,28(zero) # 1c <_l1_preload_size>
1c0038ee:	00052023          	sw	zero,0(a0)
1c0038f2:	01c00713          	li	a4,28
1c0038f6:	c619                	beqz	a2,1c003904 <rt_event_enqueue+0x1e>
1c0038f8:	435c                	lw	a5,4(a4)
1c0038fa:	c388                	sw	a0,0(a5)
1c0038fc:	c348                	sw	a0,4(a4)
1c0038fe:	30069073          	csrw	mstatus,a3
1c003902:	8082                	ret
1c003904:	00a02e23          	sw	a0,28(zero) # 1c <_l1_preload_size>
1c003908:	bfd5                	j	1c0038fc <rt_event_enqueue+0x16>

1c00390a <__pi_hyper_copy_aligned>:
1c00390a:	40155793          	srai	a5,a0,0x1
1c00390e:	1a102837          	lui	a6,0x1a102
1c003912:	079e                	slli	a5,a5,0x7
1c003914:	0512                	slli	a0,a0,0x4
1c003916:	97c2                	add	a5,a5,a6
1c003918:	8941                	andi	a0,a0,16
1c00391a:	953e                	add	a0,a0,a5
1c00391c:	20000813          	li	a6,512
1c003920:	30800793          	li	a5,776
1c003924:	02d87c63          	bleu	a3,a6,1c00395c <__pi_hyper_copy_aligned+0x52>
1c003928:	cbd4                	sw	a3,20(a5)
1c00392a:	1c0006b7          	lui	a3,0x1c000
1c00392e:	5c868693          	addi	a3,a3,1480 # 1c0005c8 <__rt_hyper_handle_burst>
1c003932:	c394                	sw	a3,0(a5)
1c003934:	c3c8                	sw	a0,4(a5)
1c003936:	c790                	sw	a2,8(a5)
1c003938:	c7cc                	sw	a1,12(a5)
1c00393a:	0107a823          	sw	a6,16(a5)
1c00393e:	20000693          	li	a3,512
1c003942:	cf98                	sw	a4,24(a5)
1c003944:	1a1027b7          	lui	a5,0x1a102
1c003948:	1ac7a023          	sw	a2,416(a5) # 1a1021a0 <__l1_end+0xa102180>
1c00394c:	00b52023          	sw	a1,0(a0)
1c003950:	00d52223          	sw	a3,4(a0)
1c003954:	47c1                	li	a5,16
1c003956:	00f52423          	sw	a5,8(a0)
1c00395a:	8082                	ret
1c00395c:	0007a823          	sw	zero,16(a5)
1c003960:	b7cd                	j	1c003942 <__pi_hyper_copy_aligned+0x38>

1c003962 <__pi_hyper_copy_exec>:
1c003962:	30800813          	li	a6,776
1c003966:	00e82e23          	sw	a4,28(a6) # 1a10201c <__l1_end+0xa101ffc>
1c00396a:	fa25b833          	p.bclr	a6,a1,29,2
1c00396e:	30800793          	li	a5,776
1c003972:	00081a63          	bnez	a6,1c003986 <__pi_hyper_copy_exec+0x24>
1c003976:	fc163833          	p.bclr	a6,a2,30,1
1c00397a:	00081663          	bnez	a6,1c003986 <__pi_hyper_copy_exec+0x24>
1c00397e:	fa26b833          	p.bclr	a6,a3,29,2
1c003982:	00080863          	beqz	a6,1c003992 <__pi_hyper_copy_exec+0x30>
1c003986:	fc153833          	p.bclr	a6,a0,30,1
1c00398a:	00080563          	beqz	a6,1c003994 <__pi_hyper_copy_exec+0x32>
1c00398e:	0026b363          	p.bneimm	a3,2,1c003994 <__pi_hyper_copy_exec+0x32>
1c003992:	bfa5                	j	1c00390a <__pi_hyper_copy_aligned>
1c003994:	d388                	sw	a0,32(a5)
1c003996:	853a                	mv	a0,a4
1c003998:	d3d0                	sw	a2,36(a5)
1c00399a:	d78c                	sw	a1,40(a5)
1c00399c:	d7d4                	sw	a3,44(a5)
1c00399e:	02078823          	sb	zero,48(a5)
1c0039a2:	dbd8                	sw	a4,52(a5)
1c0039a4:	a889                	j	1c0039f6 <__pi_hyper_copy_misaligned>

1c0039a6 <exec_pending_task>:
1c0039a6:	30800793          	li	a5,776
1c0039aa:	5f98                	lw	a4,56(a5)
1c0039ac:	c721                	beqz	a4,1c0039f4 <exec_pending_task+0x4e>
1c0039ae:	4f54                	lw	a3,28(a4)
1c0039b0:	03872803          	lw	a6,56(a4)
1c0039b4:	5f4c                	lw	a1,60(a4)
1c0039b6:	df94                	sw	a3,56(a5)
1c0039b8:	ee883533          	p.bclr	a0,a6,23,8
1c0039bc:	ce881833          	p.extractu	a6,a6,7,8
1c0039c0:	4330                	lw	a2,64(a4)
1c0039c2:	4374                	lw	a3,68(a4)
1c0039c4:	00081363          	bnez	a6,1c0039ca <exec_pending_task+0x24>
1c0039c8:	bf69                	j	1c003962 <__pi_hyper_copy_exec>
1c0039ca:	04c72803          	lw	a6,76(a4)
1c0039ce:	04872883          	lw	a7,72(a4)
1c0039d2:	d388                	sw	a0,32(a5)
1c0039d4:	d3d0                	sw	a2,36(a5)
1c0039d6:	853a                	mv	a0,a4
1c0039d8:	0506d633          	p.minu	a2,a3,a6
1c0039dc:	cfd8                	sw	a4,28(a5)
1c0039de:	d78c                	sw	a1,40(a5)
1c0039e0:	d7d0                	sw	a2,44(a5)
1c0039e2:	02078823          	sb	zero,48(a5)
1c0039e6:	dbd8                	sw	a4,52(a5)
1c0039e8:	c3b4                	sw	a3,64(a5)
1c0039ea:	0507a223          	sw	a6,68(a5)
1c0039ee:	0517a423          	sw	a7,72(a5)
1c0039f2:	a011                	j	1c0039f6 <__pi_hyper_copy_misaligned>
1c0039f4:	8082                	ret

1c0039f6 <__pi_hyper_copy_misaligned>:
1c0039f6:	7179                	addi	sp,sp,-48
1c0039f8:	d422                	sw	s0,40(sp)
1c0039fa:	30800793          	li	a5,776
1c0039fe:	ce4e                	sw	s3,28(sp)
1c003a00:	89aa                	mv	s3,a0
1c003a02:	5388                	lw	a0,32(a5)
1c003a04:	d606                	sw	ra,44(sp)
1c003a06:	d226                	sw	s1,36(sp)
1c003a08:	d04a                	sw	s2,32(sp)
1c003a0a:	cc52                	sw	s4,24(sp)
1c003a0c:	ca56                	sw	s5,20(sp)
1c003a0e:	c85a                	sw	s6,16(sp)
1c003a10:	c65e                	sw	s7,12(sp)
1c003a12:	c462                	sw	s8,8(sp)
1c003a14:	fc1537b3          	p.bclr	a5,a0,30,1
1c003a18:	30800413          	li	s0,776
1c003a1c:	e7a1                	bnez	a5,1c003a64 <__pi_hyper_copy_misaligned+0x6e>
1c003a1e:	1c00ec37          	lui	s8,0x1c00e
1c003a22:	d84c0913          	addi	s2,s8,-636 # 1c00dd84 <__pi_hyper_temp_buffer>
1c003a26:	4a0d                	li	s4,3
1c003a28:	07c00a93          	li	s5,124
1c003a2c:	00190b13          	addi	s6,s2,1
1c003a30:	5408                	lw	a0,40(s0)
1c003a32:	5444                	lw	s1,44(s0)
1c003a34:	5050                	lw	a2,36(s0)
1c003a36:	00350793          	addi	a5,a0,3
1c003a3a:	c207b7b3          	p.bclr	a5,a5,1,0
1c003a3e:	8f89                	sub	a5,a5,a0
1c003a40:	8bbe                	mv	s7,a5
1c003a42:	009a6363          	bltu	s4,s1,1c003a48 <__pi_hyper_copy_misaligned+0x52>
1c003a46:	8ba6                	mv	s7,s1
1c003a48:	1a0b8d63          	beqz	s7,1c003c02 <__pi_hyper_copy_misaligned+0x20c>
1c003a4c:	03044783          	lbu	a5,48(s0)
1c003a50:	16079763          	bnez	a5,1c003bbe <__pi_hyper_copy_misaligned+0x1c8>
1c003a54:	4701                	li	a4,0
1c003a56:	4691                	li	a3,4
1c003a58:	c0063633          	p.bclr	a2,a2,0,0
1c003a5c:	d84c0593          	addi	a1,s8,-636
1c003a60:	5008                	lw	a0,32(s0)
1c003a62:	a889                	j	1c003ab4 <__pi_hyper_copy_misaligned+0xbe>
1c003a64:	540c                	lw	a1,40(s0)
1c003a66:	04442883          	lw	a7,68(s0)
1c003a6a:	04842303          	lw	t1,72(s0)
1c003a6e:	00358793          	addi	a5,a1,3
1c003a72:	5050                	lw	a2,36(s0)
1c003a74:	5454                	lw	a3,44(s0)
1c003a76:	4038                	lw	a4,64(s0)
1c003a78:	c207b7b3          	p.bclr	a5,a5,1,0
1c003a7c:	8f8d                	sub	a5,a5,a1
1c003a7e:	41130333          	sub	t1,t1,a7
1c003a82:	4801                	li	a6,0
1c003a84:	4e0d                	li	t3,3
1c003a86:	84be                	mv	s1,a5
1c003a88:	00de6363          	bltu	t3,a3,1c003a8e <__pi_hyper_copy_misaligned+0x98>
1c003a8c:	84b6                	mv	s1,a3
1c003a8e:	c0bd                	beqz	s1,1c003af4 <__pi_hyper_copy_misaligned+0xfe>
1c003a90:	00080563          	beqz	a6,1c003a9a <__pi_hyper_copy_misaligned+0xa4>
1c003a94:	d050                	sw	a2,36(s0)
1c003a96:	d454                	sw	a3,44(s0)
1c003a98:	c038                	sw	a4,64(s0)
1c003a9a:	03044703          	lbu	a4,48(s0)
1c003a9e:	1c00e937          	lui	s2,0x1c00e
1c003aa2:	d8490793          	addi	a5,s2,-636 # 1c00dd84 <__pi_hyper_temp_buffer>
1c003aa6:	ef01                	bnez	a4,1c003abe <__pi_hyper_copy_misaligned+0xc8>
1c003aa8:	4691                	li	a3,4
1c003aaa:	c0063633          	p.bclr	a2,a2,0,0
1c003aae:	d8490593          	addi	a1,s2,-636
1c003ab2:	157d                	addi	a0,a0,-1
1c003ab4:	3d99                	jal	1c00390a <__pi_hyper_copy_aligned>
1c003ab6:	4785                	li	a5,1
1c003ab8:	02f40823          	sb	a5,48(s0)
1c003abc:	a23d                	j	1c003bea <__pi_hyper_copy_misaligned+0x1f4>
1c003abe:	fc163533          	p.bclr	a0,a2,30,1
1c003ac2:	953e                	add	a0,a0,a5
1c003ac4:	8626                	mv	a2,s1
1c003ac6:	02040823          	sb	zero,48(s0)
1c003aca:	3521                	jal	1c0038d2 <l2_memcpy>
1c003acc:	5050                	lw	a2,36(s0)
1c003ace:	5008                	lw	a0,32(s0)
1c003ad0:	4701                	li	a4,0
1c003ad2:	4691                	li	a3,4
1c003ad4:	c0063633          	p.bclr	a2,a2,0,0
1c003ad8:	d8490593          	addi	a1,s2,-636
1c003adc:	353d                	jal	1c00390a <__pi_hyper_copy_aligned>
1c003ade:	505c                	lw	a5,36(s0)
1c003ae0:	97a6                	add	a5,a5,s1
1c003ae2:	d05c                	sw	a5,36(s0)
1c003ae4:	541c                	lw	a5,40(s0)
1c003ae6:	97a6                	add	a5,a5,s1
1c003ae8:	d41c                	sw	a5,40(s0)
1c003aea:	545c                	lw	a5,44(s0)
1c003aec:	409784b3          	sub	s1,a5,s1
1c003af0:	d444                	sw	s1,44(s0)
1c003af2:	a8e5                	j	1c003bea <__pi_hyper_copy_misaligned+0x1f4>
1c003af4:	cebd                	beqz	a3,1c003b72 <__pi_hyper_copy_misaligned+0x17c>
1c003af6:	00080563          	beqz	a6,1c003b00 <__pi_hyper_copy_misaligned+0x10a>
1c003afa:	d050                	sw	a2,36(s0)
1c003afc:	d454                	sw	a3,44(s0)
1c003afe:	c038                	sw	a4,64(s0)
1c003b00:	97b2                	add	a5,a5,a2
1c003b02:	fc17b7b3          	p.bclr	a5,a5,30,1
1c003b06:	c206b4b3          	p.bclr	s1,a3,1,0
1c003b0a:	ef81                	bnez	a5,1c003b22 <__pi_hyper_copy_misaligned+0x12c>
1c003b0c:	4701                	li	a4,0
1c003b0e:	86a6                	mv	a3,s1
1c003b10:	3bed                	jal	1c00390a <__pi_hyper_copy_aligned>
1c003b12:	505c                	lw	a5,36(s0)
1c003b14:	5454                	lw	a3,44(s0)
1c003b16:	97a6                	add	a5,a5,s1
1c003b18:	d05c                	sw	a5,36(s0)
1c003b1a:	541c                	lw	a5,40(s0)
1c003b1c:	97a6                	add	a5,a5,s1
1c003b1e:	d41c                	sw	a5,40(s0)
1c003b20:	a0b1                	j	1c003b6c <__pi_hyper_copy_misaligned+0x176>
1c003b22:	03044703          	lbu	a4,48(s0)
1c003b26:	1c00e937          	lui	s2,0x1c00e
1c003b2a:	d8490793          	addi	a5,s2,-636 # 1c00dd84 <__pi_hyper_temp_buffer>
1c003b2e:	df2d                	beqz	a4,1c003aa8 <__pi_hyper_copy_misaligned+0xb2>
1c003b30:	07c00693          	li	a3,124
1c003b34:	04d4d4b3          	p.minu	s1,s1,a3
1c003b38:	00178513          	addi	a0,a5,1
1c003b3c:	fff48613          	addi	a2,s1,-1
1c003b40:	02040823          	sb	zero,48(s0)
1c003b44:	3379                	jal	1c0038d2 <l2_memcpy>
1c003b46:	5050                	lw	a2,36(s0)
1c003b48:	5008                	lw	a0,32(s0)
1c003b4a:	86a6                	mv	a3,s1
1c003b4c:	4701                	li	a4,0
1c003b4e:	c0063633          	p.bclr	a2,a2,0,0
1c003b52:	d8490593          	addi	a1,s2,-636
1c003b56:	3b55                	jal	1c00390a <__pi_hyper_copy_aligned>
1c003b58:	505c                	lw	a5,36(s0)
1c003b5a:	5454                	lw	a3,44(s0)
1c003b5c:	17fd                	addi	a5,a5,-1
1c003b5e:	97a6                	add	a5,a5,s1
1c003b60:	d05c                	sw	a5,36(s0)
1c003b62:	541c                	lw	a5,40(s0)
1c003b64:	0685                	addi	a3,a3,1
1c003b66:	17fd                	addi	a5,a5,-1
1c003b68:	97a6                	add	a5,a5,s1
1c003b6a:	d41c                	sw	a5,40(s0)
1c003b6c:	409684b3          	sub	s1,a3,s1
1c003b70:	b741                	j	1c003af0 <__pi_hyper_copy_misaligned+0xfa>
1c003b72:	e719                	bnez	a4,1c003b80 <__pi_hyper_copy_misaligned+0x18a>
1c003b74:	00080c63          	beqz	a6,1c003b8c <__pi_hyper_copy_misaligned+0x196>
1c003b78:	d050                	sw	a2,36(s0)
1c003b7a:	02042623          	sw	zero,44(s0)
1c003b7e:	a029                	j	1c003b88 <__pi_hyper_copy_misaligned+0x192>
1c003b80:	02e8e863          	bltu	a7,a4,1c003bb0 <__pi_hyper_copy_misaligned+0x1ba>
1c003b84:	fe081ae3          	bnez	a6,1c003b78 <__pi_hyper_copy_misaligned+0x182>
1c003b88:	04042023          	sw	zero,64(s0)
1c003b8c:	854e                	mv	a0,s3
1c003b8e:	02042a23          	sw	zero,52(s0)
1c003b92:	00042e23          	sw	zero,28(s0)
1c003b96:	3b81                	jal	1c0038e6 <rt_event_enqueue>
1c003b98:	5422                	lw	s0,40(sp)
1c003b9a:	50b2                	lw	ra,44(sp)
1c003b9c:	5492                	lw	s1,36(sp)
1c003b9e:	5902                	lw	s2,32(sp)
1c003ba0:	49f2                	lw	s3,28(sp)
1c003ba2:	4a62                	lw	s4,24(sp)
1c003ba4:	4ad2                	lw	s5,20(sp)
1c003ba6:	4b42                	lw	s6,16(sp)
1c003ba8:	4bb2                	lw	s7,12(sp)
1c003baa:	4c22                	lw	s8,8(sp)
1c003bac:	6145                	addi	sp,sp,48
1c003bae:	bbe5                	j	1c0039a6 <exec_pending_task>
1c003bb0:	41170733          	sub	a4,a4,a7
1c003bb4:	961a                	add	a2,a2,t1
1c003bb6:	4805                	li	a6,1
1c003bb8:	04e8d6b3          	p.minu	a3,a7,a4
1c003bbc:	b5e9                	j	1c003a86 <__pi_hyper_copy_misaligned+0x90>
1c003bbe:	fc1635b3          	p.bclr	a1,a2,30,1
1c003bc2:	95ca                	add	a1,a1,s2
1c003bc4:	865e                	mv	a2,s7
1c003bc6:	02040823          	sb	zero,48(s0)
1c003bca:	3321                	jal	1c0038d2 <l2_memcpy>
1c003bcc:	505c                	lw	a5,36(s0)
1c003bce:	97de                	add	a5,a5,s7
1c003bd0:	d05c                	sw	a5,36(s0)
1c003bd2:	541c                	lw	a5,40(s0)
1c003bd4:	97de                	add	a5,a5,s7
1c003bd6:	d41c                	sw	a5,40(s0)
1c003bd8:	545c                	lw	a5,44(s0)
1c003bda:	41778bb3          	sub	s7,a5,s7
1c003bde:	03742623          	sw	s7,44(s0)
1c003be2:	e40b97e3          	bnez	s7,1c003a30 <__pi_hyper_copy_misaligned+0x3a>
1c003be6:	545c                	lw	a5,44(s0)
1c003be8:	c3bd                	beqz	a5,1c003c4e <__pi_hyper_copy_misaligned+0x258>
1c003bea:	50b2                	lw	ra,44(sp)
1c003bec:	5422                	lw	s0,40(sp)
1c003bee:	5492                	lw	s1,36(sp)
1c003bf0:	5902                	lw	s2,32(sp)
1c003bf2:	49f2                	lw	s3,28(sp)
1c003bf4:	4a62                	lw	s4,24(sp)
1c003bf6:	4ad2                	lw	s5,20(sp)
1c003bf8:	4b42                	lw	s6,16(sp)
1c003bfa:	4bb2                	lw	s7,12(sp)
1c003bfc:	4c22                	lw	s8,8(sp)
1c003bfe:	6145                	addi	sp,sp,48
1c003c00:	8082                	ret
1c003c02:	d0f5                	beqz	s1,1c003be6 <__pi_hyper_copy_misaligned+0x1f0>
1c003c04:	97b2                	add	a5,a5,a2
1c003c06:	fc17b7b3          	p.bclr	a5,a5,30,1
1c003c0a:	c204b4b3          	p.bclr	s1,s1,1,0
1c003c0e:	e791                	bnez	a5,1c003c1a <__pi_hyper_copy_misaligned+0x224>
1c003c10:	85aa                	mv	a1,a0
1c003c12:	4701                	li	a4,0
1c003c14:	86a6                	mv	a3,s1
1c003c16:	5008                	lw	a0,32(s0)
1c003c18:	bde5                	j	1c003b10 <__pi_hyper_copy_misaligned+0x11a>
1c003c1a:	03044783          	lbu	a5,48(s0)
1c003c1e:	0554d4b3          	p.minu	s1,s1,s5
1c003c22:	e789                	bnez	a5,1c003c2c <__pi_hyper_copy_misaligned+0x236>
1c003c24:	4701                	li	a4,0
1c003c26:	00448693          	addi	a3,s1,4
1c003c2a:	b53d                	j	1c003a58 <__pi_hyper_copy_misaligned+0x62>
1c003c2c:	8626                	mv	a2,s1
1c003c2e:	85da                	mv	a1,s6
1c003c30:	02040823          	sb	zero,48(s0)
1c003c34:	3979                	jal	1c0038d2 <l2_memcpy>
1c003c36:	505c                	lw	a5,36(s0)
1c003c38:	5454                	lw	a3,44(s0)
1c003c3a:	97a6                	add	a5,a5,s1
1c003c3c:	d05c                	sw	a5,36(s0)
1c003c3e:	541c                	lw	a5,40(s0)
1c003c40:	97a6                	add	a5,a5,s1
1c003c42:	409684b3          	sub	s1,a3,s1
1c003c46:	d41c                	sw	a5,40(s0)
1c003c48:	d444                	sw	s1,44(s0)
1c003c4a:	dcd1                	beqz	s1,1c003be6 <__pi_hyper_copy_misaligned+0x1f0>
1c003c4c:	b3d5                	j	1c003a30 <__pi_hyper_copy_misaligned+0x3a>
1c003c4e:	4038                	lw	a4,64(s0)
1c003c50:	df15                	beqz	a4,1c003b8c <__pi_hyper_copy_misaligned+0x196>
1c003c52:	407c                	lw	a5,68(s0)
1c003c54:	00e7ff63          	bleu	a4,a5,1c003c72 <__pi_hyper_copy_misaligned+0x27c>
1c003c58:	8f1d                	sub	a4,a4,a5
1c003c5a:	c038                	sw	a4,64(s0)
1c003c5c:	4034                	lw	a3,64(s0)
1c003c5e:	d69d                	beqz	a3,1c003b8c <__pi_hyper_copy_misaligned+0x196>
1c003c60:	5058                	lw	a4,36(s0)
1c003c62:	4430                	lw	a2,72(s0)
1c003c64:	9732                	add	a4,a4,a2
1c003c66:	8f1d                	sub	a4,a4,a5
1c003c68:	04d7d7b3          	p.minu	a5,a5,a3
1c003c6c:	d058                	sw	a4,36(s0)
1c003c6e:	d45c                	sw	a5,44(s0)
1c003c70:	b3c1                	j	1c003a30 <__pi_hyper_copy_misaligned+0x3a>
1c003c72:	04042023          	sw	zero,64(s0)
1c003c76:	b7dd                	j	1c003c5c <__pi_hyper_copy_misaligned+0x266>

1c003c78 <__rt_hyper_resume_emu_task>:
  __pi_hyper_copy_misaligned(__rt_hyper_pending_emu_task);
1c003c78:	33c02503          	lw	a0,828(zero) # 33c <__rt_hyper_pending_emu_task>
1c003c7c:	bbad                	j	1c0039f6 <__pi_hyper_copy_misaligned>

1c003c7e <__rt_hyper_resume_copy>:
  exec_pending_task();
1c003c7e:	b325                	j	1c0039a6 <exec_pending_task>

1c003c80 <__rt_hyper_init>:
{
1c003c80:	1141                	addi	sp,sp,-16
  __pi_hyper_cluster_reqs_first = NULL;
1c003c82:	1c00e737          	lui	a4,0x1c00e
{
1c003c86:	c422                	sw	s0,8(sp)
1c003c88:	c606                	sw	ra,12(sp)
  __rt_hyper_end_task = NULL;
1c003c8a:	30800793          	li	a5,776
  rt_irq_set_handler(ARCHI_FC_IRQ_HYPER_RX, __rt_hyper_handler);
1c003c8e:	1c000437          	lui	s0,0x1c000
  __pi_hyper_cluster_reqs_first = NULL;
1c003c92:	f2072e23          	sw	zero,-196(a4) # 1c00df3c <__pi_hyper_cluster_reqs_first>
  __rt_hyper_pending_emu_channel = -1;
1c003c96:	577d                	li	a4,-1
  rt_irq_set_handler(ARCHI_FC_IRQ_HYPER_RX, __rt_hyper_handler);
1c003c98:	5b240593          	addi	a1,s0,1458 # 1c0005b2 <__rt_hyper_handler>
  __rt_hyper_pending_emu_channel = -1;
1c003c9c:	d398                	sw	a4,32(a5)
  rt_irq_set_handler(ARCHI_FC_IRQ_HYPER_RX, __rt_hyper_handler);
1c003c9e:	4579                	li	a0,30
  __rt_hyper_open_count = 0;
1c003ca0:	1c00e737          	lui	a4,0x1c00e
  __rt_hyper_end_task = NULL;
1c003ca4:	0007ac23          	sw	zero,24(a5)
  __rt_hyper_current_task = NULL;
1c003ca8:	0007ae23          	sw	zero,28(a5)
  __rt_hyper_pending_tasks = NULL;
1c003cac:	0207ac23          	sw	zero,56(a5)
  __rt_hyper_open_count = 0;
1c003cb0:	f4072023          	sw	zero,-192(a4) # 1c00df40 <__rt_hyper_open_count>
  __rt_hyper_pending_emu_size = 0;
1c003cb4:	0207a623          	sw	zero,44(a5)
  __rt_hyper_pending_emu_size_2d = 0;
1c003cb8:	0407a023          	sw	zero,64(a5)
  rt_irq_set_handler(ARCHI_FC_IRQ_HYPER_RX, __rt_hyper_handler);
1c003cbc:	c5efe0ef          	jal	ra,1c00211a <rt_irq_set_handler>
  rt_irq_set_handler(ARCHI_FC_IRQ_HYPER_TX, __rt_hyper_handler);
1c003cc0:	5b240593          	addi	a1,s0,1458
}
1c003cc4:	4422                	lw	s0,8(sp)
1c003cc6:	40b2                	lw	ra,12(sp)
  rt_irq_set_handler(ARCHI_FC_IRQ_HYPER_TX, __rt_hyper_handler);
1c003cc8:	4575                	li	a0,29
}
1c003cca:	0141                	addi	sp,sp,16
  rt_irq_set_handler(ARCHI_FC_IRQ_HYPER_TX, __rt_hyper_handler);
1c003ccc:	c4efe06f          	j	1c00211a <rt_irq_set_handler>

1c003cd0 <__pi_gpio_handler>:
  }
}


void __pi_gpio_handler(void *arg)
{
1c003cd0:	1141                	addi	sp,sp,-16
  return pulp_read32(ARCHI_GPIO_ADDR + ARCHI_GPIO_INTTYPE(id));
}

static inline unsigned int hal_gpio_intstatus_get()
{
  return pulp_read32(ARCHI_GPIO_ADDR + ARCHI_GPIO_INTSTATUS);
1c003cd2:	1a1017b7          	lui	a5,0x1a101
  (void) arg;

  /* Retrieve IRQ status from GPIO. Handle task if needed. */
  pi_gpio_t *gpio = &__rt_gpio[0];
  gpio->irq_status = hal_gpio_intstatus_get();
1c003cd6:	1c00e6b7          	lui	a3,0x1c00e
{
1c003cda:	c422                	sw	s0,8(sp)
1c003cdc:	4f80                	lw	s0,24(a5)
  gpio->irq_status = hal_gpio_intstatus_get();
1c003cde:	e0468793          	addi	a5,a3,-508 # 1c00de04 <__rt_gpio>
{
1c003ce2:	c226                	sw	s1,4(sp)

  if (gpio->cb != NULL)
1c003ce4:	4bc4                	lw	s1,20(a5)
{
1c003ce6:	c606                	sw	ra,12(sp)
  gpio->irq_status = hal_gpio_intstatus_get();
1c003ce8:	c780                	sw	s0,8(a5)
  if (gpio->cb != NULL)
1c003cea:	cc91                	beqz	s1,1c003d06 <__pi_gpio_handler+0x36>
    if (irq_mask & tmp_cb->pin_mask)
1c003cec:	409c                	lw	a5,0(s1)
1c003cee:	8fe1                	and	a5,a5,s0
1c003cf0:	c781                	beqz	a5,1c003cf8 <__pi_gpio_handler+0x28>
      tmp_cb->handler(tmp_cb->args);
1c003cf2:	40dc                	lw	a5,4(s1)
1c003cf4:	4488                	lw	a0,8(s1)
1c003cf6:	9782                	jalr	a5
    tmp_cb = tmp_cb->next;
1c003cf8:	44c4                	lw	s1,12(s1)
  while (tmp_cb != NULL)
1c003cfa:	f8ed                	bnez	s1,1c003cec <__pi_gpio_handler+0x1c>
      }
      irq_mask = irq_mask >> 1;
      pin++;
    }
  }
}
1c003cfc:	40b2                	lw	ra,12(sp)
1c003cfe:	4422                	lw	s0,8(sp)
1c003d00:	4492                	lw	s1,4(sp)
1c003d02:	0141                	addi	sp,sp,16
1c003d04:	8082                	ret
1c003d06:	e0468693          	addi	a3,a3,-508
    irq_mask = (gpio->irq_status & gpio->input_mask);
1c003d0a:	46dc                	lw	a5,12(a3)
    uint8_t pin = 0;
1c003d0c:	4701                	li	a4,0
    irq_mask = (gpio->irq_status & gpio->input_mask);
1c003d0e:	8fe1                	and	a5,a5,s0
1c003d10:	01c00513          	li	a0,28
    while (irq_mask)
1c003d14:	d7e5                	beqz	a5,1c003cfc <__pi_gpio_handler+0x2c>
      if (irq_mask & 0x1)
1c003d16:	fc17b633          	p.bclr	a2,a5,30,1
1c003d1a:	c615                	beqz	a2,1c003d46 <__pi_gpio_handler+0x76>
        task = gpio->event_task[pin];
1c003d1c:	00470613          	addi	a2,a4,4
1c003d20:	060a                	slli	a2,a2,0x2
1c003d22:	9636                	add	a2,a2,a3
1c003d24:	4610                	lw	a2,8(a2)
        if (task != NULL)
1c003d26:	c205                	beqz	a2,1c003d46 <__pi_gpio_handler+0x76>
  return __builtin_pulp_read_then_spr_bit_clr(reg, val);
1c003d28:	30047873          	csrrci	a6,mstatus,8
  if (sched->first) {
1c003d2c:	01c02883          	lw	a7,28(zero) # 1c <_l1_preload_size>
  event->next = NULL;
1c003d30:	00062023          	sw	zero,0(a2)
  if (sched->first) {
1c003d34:	00088e63          	beqz	a7,1c003d50 <__pi_gpio_handler+0x80>
    sched->last->next = event;
1c003d38:	00452883          	lw	a7,4(a0)
1c003d3c:	00c8a023          	sw	a2,0(a7) # 1a102000 <__l1_end+0xa101fe0>
  sched->last = event;
1c003d40:	c150                	sw	a2,4(a0)
  __builtin_pulp_spr_write(reg, val);
1c003d42:	30081073          	csrw	mstatus,a6
      pin++;
1c003d46:	0705                	addi	a4,a4,1
      irq_mask = irq_mask >> 1;
1c003d48:	8385                	srli	a5,a5,0x1
      pin++;
1c003d4a:	0ff77713          	andi	a4,a4,255
1c003d4e:	b7d9                	j	1c003d14 <__pi_gpio_handler+0x44>
    sched->first = event;
1c003d50:	00c02e23          	sw	a2,28(zero) # 1c <_l1_preload_size>
1c003d54:	b7f5                	j	1c003d40 <__pi_gpio_handler+0x70>

1c003d56 <__rt_i2s_resume>:
  conf->pdm = 1;
  conf->dual = 0;
  conf->width = 16;
  conf->id = -1;
  conf->flags = 0;
}
1c003d56:	1c00e7b7          	lui	a5,0x1c00e
1c003d5a:	4d18                	lw	a4,24(a0)
1c003d5c:	f707a783          	lw	a5,-144(a5) # 1c00df70 <__rt_freq_domains>
1c003d60:	068416b7          	lui	a3,0x6841
1c003d64:	90968693          	addi	a3,a3,-1783 # 6840909 <__L2+0x67c0909>
1c003d68:	02e7c7b3          	div	a5,a5,a4
1c003d6c:	02954703          	lbu	a4,41(a0)
1c003d70:	177d                	addi	a4,a4,-1
1c003d72:	c0874733          	p.bset	a4,a4,0,8
1c003d76:	17fd                	addi	a5,a5,-1
1c003d78:	8785                	srai	a5,a5,0x1
1c003d7a:	07c2                	slli	a5,a5,0x10
1c003d7c:	8fd9                	or	a5,a5,a4
1c003d7e:	02554703          	lbu	a4,37(a0)
1c003d82:	9736                	add	a4,a4,a3
1c003d84:	070a                	slli	a4,a4,0x2
1c003d86:	c31c                	sw	a5,0(a4)
1c003d88:	8082                	ret

1c003d8a <__rt_i2s_setfreq_after>:
1c003d8a:	1141                	addi	sp,sp,-16
1c003d8c:	1c00e7b7          	lui	a5,0x1c00e
1c003d90:	c422                	sw	s0,8(sp)
1c003d92:	f447a403          	lw	s0,-188(a5) # 1c00df44 <__rt_i2s_first>
1c003d96:	c606                	sw	ra,12(sp)
1c003d98:	e411                	bnez	s0,1c003da4 <__rt_i2s_setfreq_after+0x1a>
1c003d9a:	40b2                	lw	ra,12(sp)
1c003d9c:	4422                	lw	s0,8(sp)
1c003d9e:	4501                	li	a0,0
1c003da0:	0141                	addi	sp,sp,16
1c003da2:	8082                	ret
1c003da4:	02844783          	lbu	a5,40(s0)
1c003da8:	c399                	beqz	a5,1c003dae <__rt_i2s_setfreq_after+0x24>
1c003daa:	8522                	mv	a0,s0
1c003dac:	376d                	jal	1c003d56 <__rt_i2s_resume>
1c003dae:	4c40                	lw	s0,28(s0)
1c003db0:	b7e5                	j	1c003d98 <__rt_i2s_setfreq_after+0xe>

1c003db2 <__rt_i2s_setfreq_before>:
1c003db2:	1c00e7b7          	lui	a5,0x1c00e
1c003db6:	f447a783          	lw	a5,-188(a5) # 1c00df44 <__rt_i2s_first>
1c003dba:	068416b7          	lui	a3,0x6841
1c003dbe:	90968693          	addi	a3,a3,-1783 # 6840909 <__L2+0x67c0909>
1c003dc2:	e399                	bnez	a5,1c003dc8 <__rt_i2s_setfreq_before+0x16>
1c003dc4:	4501                	li	a0,0
1c003dc6:	8082                	ret
1c003dc8:	0287c703          	lbu	a4,40(a5)
1c003dcc:	c719                	beqz	a4,1c003dda <__rt_i2s_setfreq_before+0x28>
1c003dce:	0257c703          	lbu	a4,37(a5)
1c003dd2:	9736                	add	a4,a4,a3
1c003dd4:	070a                	slli	a4,a4,0x2
1c003dd6:	00072023          	sw	zero,0(a4)
1c003dda:	4fdc                	lw	a5,28(a5)
1c003ddc:	b7dd                	j	1c003dc2 <__rt_i2s_setfreq_before+0x10>

1c003dde <__rt_i2s_init>:
{
  // In case the peripheral clock can dynamically change, we need to be notified
  // when this happens so that the I2S channels are stopped and resumed
  int err = 0;

  err |= __rt_cbsys_add(RT_CBSYS_PERIPH_SETFREQ_BEFORE, __rt_i2s_setfreq_before, NULL);
1c003dde:	1c0045b7          	lui	a1,0x1c004
{
1c003de2:	1141                	addi	sp,sp,-16
  err |= __rt_cbsys_add(RT_CBSYS_PERIPH_SETFREQ_BEFORE, __rt_i2s_setfreq_before, NULL);
1c003de4:	4601                	li	a2,0
1c003de6:	db258593          	addi	a1,a1,-590 # 1c003db2 <__rt_i2s_setfreq_before>
1c003dea:	4511                	li	a0,4
{
1c003dec:	c606                	sw	ra,12(sp)
1c003dee:	c422                	sw	s0,8(sp)
  err |= __rt_cbsys_add(RT_CBSYS_PERIPH_SETFREQ_BEFORE, __rt_i2s_setfreq_before, NULL);
1c003df0:	c96fe0ef          	jal	ra,1c002286 <__rt_cbsys_add>

  err |= __rt_cbsys_add(RT_CBSYS_PERIPH_SETFREQ_AFTER, __rt_i2s_setfreq_after, NULL);
1c003df4:	1c0045b7          	lui	a1,0x1c004
  err |= __rt_cbsys_add(RT_CBSYS_PERIPH_SETFREQ_BEFORE, __rt_i2s_setfreq_before, NULL);
1c003df8:	842a                	mv	s0,a0
  err |= __rt_cbsys_add(RT_CBSYS_PERIPH_SETFREQ_AFTER, __rt_i2s_setfreq_after, NULL);
1c003dfa:	4601                	li	a2,0
1c003dfc:	d8a58593          	addi	a1,a1,-630 # 1c003d8a <__rt_i2s_setfreq_after>
1c003e00:	4515                	li	a0,5
1c003e02:	c84fe0ef          	jal	ra,1c002286 <__rt_cbsys_add>
1c003e06:	8d41                	or	a0,a0,s0

  if (err) rt_fatal("Unable to initialize i2s driver\n");
1c003e08:	cd19                	beqz	a0,1c003e26 <__rt_i2s_init+0x48>
  asm("csrr %0, 0x014" : "=r" (hart_id) : );
1c003e0a:	01402673          	csrr	a2,uhartid
1c003e0e:	1c006537          	lui	a0,0x1c006
  return (hart_id >> 5) & 0x3f;
1c003e12:	40565593          	srai	a1,a2,0x5
1c003e16:	f265b5b3          	p.bclr	a1,a1,25,6
1c003e1a:	f4563633          	p.bclr	a2,a2,26,5
1c003e1e:	ac450513          	addi	a0,a0,-1340 # 1c005ac4 <__clz_tab+0x448>
1c003e22:	25f9                	jal	1c0044f0 <printf>
1c003e24:	2d25                	jal	1c00445c <abort>
}
1c003e26:	40b2                	lw	ra,12(sp)
1c003e28:	4422                	lw	s0,8(sp)
1c003e2a:	0141                	addi	sp,sp,16
1c003e2c:	8082                	ret

1c003e2e <__rt_himax_init>:
    .capture   = &__rt_himax_capture
};

RT_FC_BOOT_CODE void __attribute__((constructor)) __rt_himax_init()
{
  camera_isAwaked = 0;
1c003e2e:	1b0017b7          	lui	a5,0x1b001
1c003e32:	ba078c23          	sb	zero,-1096(a5) # 1b000bb8 <camera_isAwaked>
}
1c003e36:	8082                	ret

1c003e38 <__rt_i2c_init>:

RT_FC_BOOT_CODE void __attribute__((constructor)) __rt_i2c_init()
{
  for (int i=0; i<ARCHI_UDMA_NB_I2C; i++)
  {
    __rt_i2c[i].open_count = 0;
1c003e38:	1c00e7b7          	lui	a5,0x1c00e
1c003e3c:	cb478793          	addi	a5,a5,-844 # 1c00dcb4 <__rt_i2c>
1c003e40:	00078223          	sb	zero,4(a5)
1c003e44:	00078a23          	sb	zero,20(a5)
  }
}
1c003e48:	8082                	ret

1c003e4a <__rt_rtc_init>:
}


RT_FC_BOOT_CODE void __attribute__((constructor)) __rt_rtc_init()
{
  __rtc_handler = NULL;
1c003e4a:	35800793          	li	a5,856
1c003e4e:	0207ac23          	sw	zero,56(a5)
  dev_rtc.open_count = 0;
1c003e52:	02078823          	sb	zero,48(a5)
  __rt_rtc_init_done = 0;
1c003e56:	0207aa23          	sw	zero,52(a5)
}
1c003e5a:	8082                	ret

1c003e5c <__rt_spim_init>:

RT_FC_BOOT_CODE void __attribute__((constructor)) __rt_spim_init()
{
  for (int i=0; i<ARCHI_UDMA_NB_SPIM; i++)
  {
    __rt_spim_open_count[i] = 0;
1c003e5c:	1c00e7b7          	lui	a5,0x1c00e
1c003e60:	f4878793          	addi	a5,a5,-184 # 1c00df48 <__rt_spim_open_count>
1c003e64:	0007a023          	sw	zero,0(a5)
1c003e68:	0007a223          	sw	zero,4(a5)
  }
}
1c003e6c:	8082                	ret

1c003e6e <__rt_io_end_of_flush>:
  if (rt_iodev() == RT_IODEV_UART)
  {
    __rt_io_start(NULL);
    __rt_cbsys_add(RT_CBSYS_STOP, __rt_io_stop, NULL);
    __rt_io_pending_flush = 0;
    rt_event_alloc(NULL, 1);
1c003e6e:	1c00e7b7          	lui	a5,0x1c00e
1c003e72:	f407aa23          	sw	zero,-172(a5) # 1c00df54 <__rt_io_pending_flush>
1c003e76:	00052c23          	sw	zero,24(a0)
1c003e7a:	8082                	ret

1c003e7c <__rt_io_uart_wait_req>:
1c003e7c:	1141                	addi	sp,sp,-16
1c003e7e:	c226                	sw	s1,4(sp)
1c003e80:	84aa                	mv	s1,a0
1c003e82:	c606                	sw	ra,12(sp)
1c003e84:	c422                	sw	s0,8(sp)
1c003e86:	c04a                	sw	s2,0(sp)
1c003e88:	30047973          	csrrci	s2,mstatus,8
1c003e8c:	1c00e437          	lui	s0,0x1c00e
1c003e90:	f5040413          	addi	s0,s0,-176 # 1c00df50 <__rt_io_event_current>
1c003e94:	4008                	lw	a0,0(s0)
1c003e96:	c509                	beqz	a0,1c003ea0 <__rt_io_uart_wait_req+0x24>
1c003e98:	96bfe0ef          	jal	ra,1c002802 <rt_event_wait>
1c003e9c:	00042023          	sw	zero,0(s0)
1c003ea0:	4785                	li	a5,1
1c003ea2:	08f48023          	sb	a5,128(s1)
1c003ea6:	0814c783          	lbu	a5,129(s1)
1c003eaa:	00201737          	lui	a4,0x201
1c003eae:	e0470713          	addi	a4,a4,-508 # 200e04 <__L2+0x180e04>
1c003eb2:	04078793          	addi	a5,a5,64
1c003eb6:	07da                	slli	a5,a5,0x16
1c003eb8:	0007e723          	p.sw	zero,a4(a5)
1c003ebc:	30091073          	csrw	mstatus,s2
1c003ec0:	40b2                	lw	ra,12(sp)
1c003ec2:	4422                	lw	s0,8(sp)
1c003ec4:	4492                	lw	s1,4(sp)
1c003ec6:	4902                	lw	s2,0(sp)
1c003ec8:	0141                	addi	sp,sp,16
1c003eca:	8082                	ret

1c003ecc <__rt_do_putc_host>:
1c003ecc:	1c00e737          	lui	a4,0x1c00e
1c003ed0:	f5870793          	addi	a5,a4,-168 # 1c00df58 <__rt_putc_host_buffer_index>
1c003ed4:	4390                	lw	a2,0(a5)
1c003ed6:	f5870713          	addi	a4,a4,-168
1c003eda:	00160693          	addi	a3,a2,1
1c003ede:	c394                	sw	a3,0(a5)
1c003ee0:	1c00e7b7          	lui	a5,0x1c00e
1c003ee4:	cd478593          	addi	a1,a5,-812 # 1c00dcd4 <__rt_putc_host_buffer>
1c003ee8:	00a5c623          	p.sb	a0,a2(a1)
1c003eec:	07f00593          	li	a1,127
1c003ef0:	cd478613          	addi	a2,a5,-812
1c003ef4:	00b68463          	beq	a3,a1,1c003efc <__rt_do_putc_host+0x30>
1c003ef8:	00a53963          	p.bneimm	a0,10,1c003f0a <__rt_do_putc_host+0x3e>
1c003efc:	cd478513          	addi	a0,a5,-812
1c003f00:	000646a3          	p.sb	zero,a3(a2)
1c003f04:	00072023          	sw	zero,0(a4)
1c003f08:	abf1                	j	1c0044e4 <semihost_write0>
1c003f0a:	8082                	ret

1c003f0c <__rt_io_start>:
1c003f0c:	1101                	addi	sp,sp,-32
1c003f0e:	0028                	addi	a0,sp,8
1c003f10:	ce06                	sw	ra,28(sp)
1c003f12:	cc22                	sw	s0,24(sp)
1c003f14:	324010ef          	jal	ra,1c005238 <rt_uart_conf_init>
1c003f18:	4585                	li	a1,1
1c003f1a:	4501                	li	a0,0
1c003f1c:	f84fe0ef          	jal	ra,1c0026a0 <rt_event_alloc>
1c003f20:	547d                	li	s0,-1
1c003f22:	ed0d                	bnez	a0,1c003f5c <__rt_io_start+0x50>
1c003f24:	1c0067b7          	lui	a5,0x1c006
1c003f28:	cd07a783          	lw	a5,-816(a5) # 1c005cd0 <__rt_iodev_uart_baudrate>
1c003f2c:	842a                	mv	s0,a0
1c003f2e:	1c00e537          	lui	a0,0x1c00e
1c003f32:	01c00593          	li	a1,28
1c003f36:	e9c50513          	addi	a0,a0,-356 # 1c00de9c <__rt_io_event>
1c003f3a:	c43e                	sw	a5,8(sp)
1c003f3c:	f24fe0ef          	jal	ra,1c002660 <__rt_event_init>
1c003f40:	1c00e7b7          	lui	a5,0x1c00e
1c003f44:	f307a503          	lw	a0,-208(a5) # 1c00df30 <__rt_iodev_uart_channel>
1c003f48:	4681                	li	a3,0
1c003f4a:	4601                	li	a2,0
1c003f4c:	002c                	addi	a1,sp,8
1c003f4e:	0511                	addi	a0,a0,4
1c003f50:	2f8010ef          	jal	ra,1c005248 <__rt_uart_open>
1c003f54:	1c00e7b7          	lui	a5,0x1c00e
1c003f58:	f4a7ae23          	sw	a0,-164(a5) # 1c00df5c <_rt_io_uart>
1c003f5c:	8522                	mv	a0,s0
1c003f5e:	40f2                	lw	ra,28(sp)
1c003f60:	4462                	lw	s0,24(sp)
1c003f62:	6105                	addi	sp,sp,32
1c003f64:	8082                	ret

1c003f66 <rt_event_execute.isra.4.constprop.12>:
1c003f66:	1141                	addi	sp,sp,-16
1c003f68:	c606                	sw	ra,12(sp)
1c003f6a:	c422                	sw	s0,8(sp)
1c003f6c:	30047473          	csrrci	s0,mstatus,8
1c003f70:	4585                	li	a1,1
1c003f72:	01c00513          	li	a0,28
1c003f76:	ffefe0ef          	jal	ra,1c002774 <__rt_event_execute>
1c003f7a:	30041073          	csrw	mstatus,s0
1c003f7e:	40b2                	lw	ra,12(sp)
1c003f80:	4422                	lw	s0,8(sp)
1c003f82:	0141                	addi	sp,sp,16
1c003f84:	8082                	ret

1c003f86 <__rt_io_lock>:
1c003f86:	1c0067b7          	lui	a5,0x1c006
1c003f8a:	c187a783          	lw	a5,-1000(a5) # 1c005c18 <__hal_debug_struct+0x10>
1c003f8e:	cf81                	beqz	a5,1c003fa6 <__rt_io_lock+0x20>
1c003f90:	1c00e7b7          	lui	a5,0x1c00e
1c003f94:	f5c7a783          	lw	a5,-164(a5) # 1c00df5c <_rt_io_uart>
1c003f98:	e799                	bnez	a5,1c003fa6 <__rt_io_lock+0x20>
1c003f9a:	1c00e7b7          	lui	a5,0x1c00e
1c003f9e:	f2c7a783          	lw	a5,-212(a5) # 1c00df2c <__rt_iodev>
1c003fa2:	0427b963          	p.bneimm	a5,2,1c003ff4 <__rt_io_lock+0x6e>
1c003fa6:	7135                	addi	sp,sp,-160
1c003fa8:	014027f3          	csrr	a5,uhartid
1c003fac:	cf06                	sw	ra,156(sp)
1c003fae:	ca5797b3          	p.extractu	a5,a5,5,5
1c003fb2:	02000713          	li	a4,32
1c003fb6:	1b001537          	lui	a0,0x1b001
1c003fba:	00e79963          	bne	a5,a4,1c003fcc <__rt_io_lock+0x46>
1c003fbe:	bbc50513          	addi	a0,a0,-1092 # 1b000bbc <__rt_io_fc_lock>
1c003fc2:	b54fe0ef          	jal	ra,1c002316 <__rt_fc_lock>
1c003fc6:	40fa                	lw	ra,156(sp)
1c003fc8:	610d                	addi	sp,sp,160
1c003fca:	8082                	ret
1c003fcc:	004c                	addi	a1,sp,4
1c003fce:	bbc50513          	addi	a0,a0,-1092
1c003fd2:	baafe0ef          	jal	ra,1c00237c <__rt_fc_cluster_lock>
1c003fd6:	4689                	li	a3,2
1c003fd8:	00204737          	lui	a4,0x204
1c003fdc:	08c14783          	lbu	a5,140(sp)
1c003fe0:	0ff7f793          	andi	a5,a5,255
1c003fe4:	f3ed                	bnez	a5,1c003fc6 <__rt_io_lock+0x40>
1c003fe6:	00d72423          	sw	a3,8(a4) # 204008 <__L2+0x184008>
1c003fea:	03c76783          	p.elw	a5,60(a4)
1c003fee:	00d72223          	sw	a3,4(a4)
1c003ff2:	b7ed                	j	1c003fdc <__rt_io_lock+0x56>
1c003ff4:	8082                	ret

1c003ff6 <__rt_putc_host_cluster_req>:
1c003ff6:	1141                	addi	sp,sp,-16
1c003ff8:	c422                	sw	s0,8(sp)
1c003ffa:	c606                	sw	ra,12(sp)
1c003ffc:	842a                	mv	s0,a0
1c003ffe:	08954503          	lbu	a0,137(a0)
1c004002:	35e9                	jal	1c003ecc <__rt_do_putc_host>
1c004004:	08844783          	lbu	a5,136(s0)
1c004008:	4705                	li	a4,1
1c00400a:	08e42223          	sw	a4,132(s0)
1c00400e:	00201737          	lui	a4,0x201
1c004012:	40b2                	lw	ra,12(sp)
1c004014:	4422                	lw	s0,8(sp)
1c004016:	04078793          	addi	a5,a5,64
1c00401a:	07da                	slli	a5,a5,0x16
1c00401c:	e0470713          	addi	a4,a4,-508 # 200e04 <__L2+0x180e04>
1c004020:	0007e723          	p.sw	zero,a4(a5)
1c004024:	0141                	addi	sp,sp,16
1c004026:	8082                	ret

1c004028 <__rt_io_unlock>:
1c004028:	1c0067b7          	lui	a5,0x1c006
1c00402c:	c187a783          	lw	a5,-1000(a5) # 1c005c18 <__hal_debug_struct+0x10>
1c004030:	cf81                	beqz	a5,1c004048 <__rt_io_unlock+0x20>
1c004032:	1c00e7b7          	lui	a5,0x1c00e
1c004036:	f5c7a783          	lw	a5,-164(a5) # 1c00df5c <_rt_io_uart>
1c00403a:	e799                	bnez	a5,1c004048 <__rt_io_unlock+0x20>
1c00403c:	1c00e7b7          	lui	a5,0x1c00e
1c004040:	f2c7a783          	lw	a5,-212(a5) # 1c00df2c <__rt_iodev>
1c004044:	0427b963          	p.bneimm	a5,2,1c004096 <__rt_io_unlock+0x6e>
1c004048:	7135                	addi	sp,sp,-160
1c00404a:	014027f3          	csrr	a5,uhartid
1c00404e:	cf06                	sw	ra,156(sp)
1c004050:	ca5797b3          	p.extractu	a5,a5,5,5
1c004054:	02000713          	li	a4,32
1c004058:	1b001537          	lui	a0,0x1b001
1c00405c:	00e79963          	bne	a5,a4,1c00406e <__rt_io_unlock+0x46>
1c004060:	bbc50513          	addi	a0,a0,-1092 # 1b000bbc <__rt_io_fc_lock>
1c004064:	ae4fe0ef          	jal	ra,1c002348 <__rt_fc_unlock>
1c004068:	40fa                	lw	ra,156(sp)
1c00406a:	610d                	addi	sp,sp,160
1c00406c:	8082                	ret
1c00406e:	004c                	addi	a1,sp,4
1c004070:	bbc50513          	addi	a0,a0,-1092
1c004074:	b40fe0ef          	jal	ra,1c0023b4 <__rt_fc_cluster_unlock>
1c004078:	4689                	li	a3,2
1c00407a:	00204737          	lui	a4,0x204
1c00407e:	08c14783          	lbu	a5,140(sp)
1c004082:	0ff7f793          	andi	a5,a5,255
1c004086:	f3ed                	bnez	a5,1c004068 <__rt_io_unlock+0x40>
1c004088:	00d72423          	sw	a3,8(a4) # 204008 <__L2+0x184008>
1c00408c:	03c76783          	p.elw	a5,60(a4)
1c004090:	00d72223          	sw	a3,4(a4)
1c004094:	b7ed                	j	1c00407e <__rt_io_unlock+0x56>
1c004096:	8082                	ret

1c004098 <__rt_io_uart_flush.constprop.11>:
1c004098:	7171                	addi	sp,sp,-176
1c00409a:	d522                	sw	s0,168(sp)
1c00409c:	d706                	sw	ra,172(sp)
1c00409e:	d326                	sw	s1,164(sp)
1c0040a0:	d14a                	sw	s2,160(sp)
1c0040a2:	cf4e                	sw	s3,156(sp)
1c0040a4:	cd52                	sw	s4,152(sp)
1c0040a6:	1c00e437          	lui	s0,0x1c00e
1c0040aa:	f5442783          	lw	a5,-172(s0) # 1c00df54 <__rt_io_pending_flush>
1c0040ae:	f5440993          	addi	s3,s0,-172
1c0040b2:	ebbd                	bnez	a5,1c004128 <__rt_io_uart_flush.constprop.11+0x90>
1c0040b4:	1c006637          	lui	a2,0x1c006
1c0040b8:	c0860793          	addi	a5,a2,-1016 # 1c005c08 <__hal_debug_struct>
1c0040bc:	4f80                	lw	s0,24(a5)
1c0040be:	c0860a13          	addi	s4,a2,-1016
1c0040c2:	c839                	beqz	s0,1c004118 <__rt_io_uart_flush.constprop.11+0x80>
1c0040c4:	1c00e737          	lui	a4,0x1c00e
1c0040c8:	014027f3          	csrr	a5,uhartid
1c0040cc:	f5c72483          	lw	s1,-164(a4) # 1c00df5c <_rt_io_uart>
1c0040d0:	ca5797b3          	p.extractu	a5,a5,5,5
1c0040d4:	02000713          	li	a4,32
1c0040d8:	1c006937          	lui	s2,0x1c006
1c0040dc:	04e79c63          	bne	a5,a4,1c004134 <__rt_io_uart_flush.constprop.11+0x9c>
1c0040e0:	1c0045b7          	lui	a1,0x1c004
1c0040e4:	4785                	li	a5,1
1c0040e6:	c0860613          	addi	a2,a2,-1016
1c0040ea:	e6e58593          	addi	a1,a1,-402 # 1c003e6e <__rt_io_end_of_flush>
1c0040ee:	4501                	li	a0,0
1c0040f0:	00f9a023          	sw	a5,0(s3)
1c0040f4:	e20fe0ef          	jal	ra,1c002714 <rt_event_get>
1c0040f8:	40cc                	lw	a1,4(s1)
1c0040fa:	87aa                	mv	a5,a0
1c0040fc:	4701                	li	a4,0
1c0040fe:	0586                	slli	a1,a1,0x1
1c004100:	86a2                	mv	a3,s0
1c004102:	c2490613          	addi	a2,s2,-988 # 1c005c24 <__hal_debug_struct+0x1c>
1c004106:	0585                	addi	a1,a1,1
1c004108:	4501                	li	a0,0
1c00410a:	afffe0ef          	jal	ra,1c002c08 <rt_periph_copy>
1c00410e:	3f29                	jal	1c004028 <__rt_io_unlock>
1c004110:	0009a783          	lw	a5,0(s3)
1c004114:	ef91                	bnez	a5,1c004130 <__rt_io_uart_flush.constprop.11+0x98>
1c004116:	3d85                	jal	1c003f86 <__rt_io_lock>
1c004118:	50ba                	lw	ra,172(sp)
1c00411a:	542a                	lw	s0,168(sp)
1c00411c:	549a                	lw	s1,164(sp)
1c00411e:	590a                	lw	s2,160(sp)
1c004120:	49fa                	lw	s3,156(sp)
1c004122:	4a6a                	lw	s4,152(sp)
1c004124:	614d                	addi	sp,sp,176
1c004126:	8082                	ret
1c004128:	3701                	jal	1c004028 <__rt_io_unlock>
1c00412a:	3d35                	jal	1c003f66 <rt_event_execute.isra.4.constprop.12>
1c00412c:	3da9                	jal	1c003f86 <__rt_io_lock>
1c00412e:	bfb5                	j	1c0040aa <__rt_io_uart_flush.constprop.11+0x12>
1c004130:	3d1d                	jal	1c003f66 <rt_event_execute.isra.4.constprop.12>
1c004132:	bff9                	j	1c004110 <__rt_io_uart_flush.constprop.11+0x78>
1c004134:	868a                	mv	a3,sp
1c004136:	8622                	mv	a2,s0
1c004138:	c2490593          	addi	a1,s2,-988
1c00413c:	8526                	mv	a0,s1
1c00413e:	1de010ef          	jal	ra,1c00531c <rt_uart_cluster_write>
1c004142:	4689                	li	a3,2
1c004144:	00204737          	lui	a4,0x204
1c004148:	08c14783          	lbu	a5,140(sp)
1c00414c:	0ff7f793          	andi	a5,a5,255
1c004150:	c781                	beqz	a5,1c004158 <__rt_io_uart_flush.constprop.11+0xc0>
1c004152:	000a2c23          	sw	zero,24(s4)
1c004156:	b7c9                	j	1c004118 <__rt_io_uart_flush.constprop.11+0x80>
1c004158:	00d72423          	sw	a3,8(a4) # 204008 <__L2+0x184008>
1c00415c:	03c76783          	p.elw	a5,60(a4)
1c004160:	00d72223          	sw	a3,4(a4)
1c004164:	b7d5                	j	1c004148 <__rt_io_uart_flush.constprop.11+0xb0>

1c004166 <__rt_io_uart_wait_pending>:
1c004166:	7135                	addi	sp,sp,-160
1c004168:	cd22                	sw	s0,152(sp)
1c00416a:	cf06                	sw	ra,156(sp)
1c00416c:	1c00e437          	lui	s0,0x1c00e
1c004170:	f5442783          	lw	a5,-172(s0) # 1c00df54 <__rt_io_pending_flush>
1c004174:	eb85                	bnez	a5,1c0041a4 <__rt_io_uart_wait_pending+0x3e>
1c004176:	1c00e437          	lui	s0,0x1c00e
1c00417a:	f5040413          	addi	s0,s0,-176 # 1c00df50 <__rt_io_event_current>
1c00417e:	4008                	lw	a0,0(s0)
1c004180:	cd11                	beqz	a0,1c00419c <__rt_io_uart_wait_pending+0x36>
1c004182:	014027f3          	csrr	a5,uhartid
1c004186:	8795                	srai	a5,a5,0x5
1c004188:	f267b7b3          	p.bclr	a5,a5,25,6
1c00418c:	02000713          	li	a4,32
1c004190:	00e79e63          	bne	a5,a4,1c0041ac <__rt_io_uart_wait_pending+0x46>
1c004194:	e6efe0ef          	jal	ra,1c002802 <rt_event_wait>
1c004198:	00042023          	sw	zero,0(s0)
1c00419c:	40fa                	lw	ra,156(sp)
1c00419e:	446a                	lw	s0,152(sp)
1c0041a0:	610d                	addi	sp,sp,160
1c0041a2:	8082                	ret
1c0041a4:	3551                	jal	1c004028 <__rt_io_unlock>
1c0041a6:	33c1                	jal	1c003f66 <rt_event_execute.isra.4.constprop.12>
1c0041a8:	3bf9                	jal	1c003f86 <__rt_io_lock>
1c0041aa:	b7d9                	j	1c004170 <__rt_io_uart_wait_pending+0xa>
1c0041ac:	08f106a3          	sb	a5,141(sp)
1c0041b0:	1c0047b7          	lui	a5,0x1c004
1c0041b4:	e7c78793          	addi	a5,a5,-388 # 1c003e7c <__rt_io_uart_wait_req>
1c0041b8:	4705                	li	a4,1
1c0041ba:	c83e                	sw	a5,16(sp)
1c0041bc:	0068                	addi	a0,sp,12
1c0041be:	1c00e7b7          	lui	a5,0x1c00e
1c0041c2:	ece7a023          	sw	a4,-320(a5) # 1c00dec0 <__rt_io_event+0x24>
1c0041c6:	08010623          	sb	zero,140(sp)
1c0041ca:	d802                	sw	zero,48(sp)
1c0041cc:	da02                	sw	zero,52(sp)
1c0041ce:	ca2a                	sw	a0,20(sp)
1c0041d0:	bc0ff0ef          	jal	ra,1c003590 <__rt_cluster_push_fc_event>
1c0041d4:	4689                	li	a3,2
1c0041d6:	00204737          	lui	a4,0x204
1c0041da:	08c14783          	lbu	a5,140(sp)
1c0041de:	0ff7f793          	andi	a5,a5,255
1c0041e2:	ffcd                	bnez	a5,1c00419c <__rt_io_uart_wait_pending+0x36>
1c0041e4:	00d72423          	sw	a3,8(a4) # 204008 <__L2+0x184008>
1c0041e8:	03c76783          	p.elw	a5,60(a4)
1c0041ec:	00d72223          	sw	a3,4(a4)
1c0041f0:	b7ed                	j	1c0041da <__rt_io_uart_wait_pending+0x74>

1c0041f2 <__rt_io_stop>:
1c0041f2:	1141                	addi	sp,sp,-16
1c0041f4:	c422                	sw	s0,8(sp)
1c0041f6:	1c00e437          	lui	s0,0x1c00e
1c0041fa:	c606                	sw	ra,12(sp)
1c0041fc:	f5c40413          	addi	s0,s0,-164 # 1c00df5c <_rt_io_uart>
1c004200:	379d                	jal	1c004166 <__rt_io_uart_wait_pending>
1c004202:	4008                	lw	a0,0(s0)
1c004204:	4581                	li	a1,0
1c004206:	0ca010ef          	jal	ra,1c0052d0 <rt_uart_close>
1c00420a:	40b2                	lw	ra,12(sp)
1c00420c:	00042023          	sw	zero,0(s0)
1c004210:	4422                	lw	s0,8(sp)
1c004212:	4501                	li	a0,0
1c004214:	0141                	addi	sp,sp,16
1c004216:	8082                	ret

1c004218 <memset>:
1c004218:	962a                	add	a2,a2,a0
1c00421a:	87aa                	mv	a5,a0
1c00421c:	00c79363          	bne	a5,a2,1c004222 <memset+0xa>
1c004220:	8082                	ret
1c004222:	00b780ab          	p.sb	a1,1(a5!)
1c004226:	bfdd                	j	1c00421c <memset+0x4>

1c004228 <strchr>:
1c004228:	0ff5f593          	andi	a1,a1,255
1c00422c:	00054703          	lbu	a4,0(a0)
1c004230:	87aa                	mv	a5,a0
1c004232:	0505                	addi	a0,a0,1
1c004234:	00b70563          	beq	a4,a1,1c00423e <strchr+0x16>
1c004238:	fb75                	bnez	a4,1c00422c <strchr+0x4>
1c00423a:	c191                	beqz	a1,1c00423e <strchr+0x16>
1c00423c:	4781                	li	a5,0
1c00423e:	853e                	mv	a0,a5
1c004240:	8082                	ret

1c004242 <__rt_putc_debug_bridge>:
1c004242:	1141                	addi	sp,sp,-16
1c004244:	c422                	sw	s0,8(sp)
1c004246:	1c006437          	lui	s0,0x1c006
1c00424a:	c226                	sw	s1,4(sp)
1c00424c:	c606                	sw	ra,12(sp)
1c00424e:	84aa                	mv	s1,a0
1c004250:	c0840413          	addi	s0,s0,-1016 # 1c005c08 <__hal_debug_struct>
1c004254:	485c                	lw	a5,20(s0)
1c004256:	c791                	beqz	a5,1c004262 <__rt_putc_debug_bridge+0x20>
1c004258:	06400513          	li	a0,100
1c00425c:	811fe0ef          	jal	ra,1c002a6c <rt_time_wait_us>
1c004260:	bfd5                	j	1c004254 <__rt_putc_debug_bridge+0x12>
1c004262:	4c1c                	lw	a5,24(s0)
1c004264:	00178713          	addi	a4,a5,1
1c004268:	97a2                	add	a5,a5,s0
1c00426a:	00978e23          	sb	s1,28(a5)
1c00426e:	cc18                	sw	a4,24(s0)
1c004270:	4c14                	lw	a3,24(s0)
1c004272:	08000793          	li	a5,128
1c004276:	00f68463          	beq	a3,a5,1c00427e <__rt_putc_debug_bridge+0x3c>
1c00427a:	00a4b663          	p.bneimm	s1,10,1c004286 <__rt_putc_debug_bridge+0x44>
1c00427e:	c701                	beqz	a4,1c004286 <__rt_putc_debug_bridge+0x44>
1c004280:	c858                	sw	a4,20(s0)
1c004282:	00042c23          	sw	zero,24(s0)
1c004286:	4c1c                	lw	a5,24(s0)
1c004288:	e799                	bnez	a5,1c004296 <__rt_putc_debug_bridge+0x54>
1c00428a:	4422                	lw	s0,8(sp)
1c00428c:	40b2                	lw	ra,12(sp)
1c00428e:	4492                	lw	s1,4(sp)
1c004290:	0141                	addi	sp,sp,16
1c004292:	af2fe06f          	j	1c002584 <__rt_bridge_printf_flush>
1c004296:	40b2                	lw	ra,12(sp)
1c004298:	4422                	lw	s0,8(sp)
1c00429a:	4492                	lw	s1,4(sp)
1c00429c:	0141                	addi	sp,sp,16
1c00429e:	8082                	ret

1c0042a0 <__rt_putc_uart>:
1c0042a0:	1101                	addi	sp,sp,-32
1c0042a2:	c62a                	sw	a0,12(sp)
1c0042a4:	ce06                	sw	ra,28(sp)
1c0042a6:	35c1                	jal	1c004166 <__rt_io_uart_wait_pending>
1c0042a8:	1c0067b7          	lui	a5,0x1c006
1c0042ac:	c0878793          	addi	a5,a5,-1016 # 1c005c08 <__hal_debug_struct>
1c0042b0:	4f94                	lw	a3,24(a5)
1c0042b2:	4532                	lw	a0,12(sp)
1c0042b4:	00168713          	addi	a4,a3,1
1c0042b8:	cf98                	sw	a4,24(a5)
1c0042ba:	97b6                	add	a5,a5,a3
1c0042bc:	00a78e23          	sb	a0,28(a5)
1c0042c0:	08000793          	li	a5,128
1c0042c4:	00f70463          	beq	a4,a5,1c0042cc <__rt_putc_uart+0x2c>
1c0042c8:	00a53563          	p.bneimm	a0,10,1c0042d2 <__rt_putc_uart+0x32>
1c0042cc:	40f2                	lw	ra,28(sp)
1c0042ce:	6105                	addi	sp,sp,32
1c0042d0:	b3e1                	j	1c004098 <__rt_io_uart_flush.constprop.11>
1c0042d2:	40f2                	lw	ra,28(sp)
1c0042d4:	6105                	addi	sp,sp,32
1c0042d6:	8082                	ret

1c0042d8 <tfp_putc.isra.9>:
1c0042d8:	1c00e7b7          	lui	a5,0x1c00e
1c0042dc:	f2c7a783          	lw	a5,-212(a5) # 1c00df2c <__rt_iodev>
1c0042e0:	7135                	addi	sp,sp,-160
1c0042e2:	cf06                	sw	ra,156(sp)
1c0042e4:	0427bf63          	p.bneimm	a5,2,1c004342 <tfp_putc.isra.9+0x6a>
1c0042e8:	014027f3          	csrr	a5,uhartid
1c0042ec:	8795                	srai	a5,a5,0x5
1c0042ee:	f267b7b3          	p.bclr	a5,a5,25,6
1c0042f2:	02000713          	li	a4,32
1c0042f6:	00e79763          	bne	a5,a4,1c004304 <tfp_putc.isra.9+0x2c>
1c0042fa:	bd3ff0ef          	jal	ra,1c003ecc <__rt_do_putc_host>
1c0042fe:	40fa                	lw	ra,156(sp)
1c004300:	610d                	addi	sp,sp,160
1c004302:	8082                	ret
1c004304:	08f10623          	sb	a5,140(sp)
1c004308:	1c0047b7          	lui	a5,0x1c004
1c00430c:	4705                	li	a4,1
1c00430e:	ff678793          	addi	a5,a5,-10 # 1c003ff6 <__rt_putc_host_cluster_req>
1c004312:	08a106a3          	sb	a0,141(sp)
1c004316:	0048                	addi	a0,sp,4
1c004318:	d63a                	sw	a4,44(sp)
1c00431a:	c43e                	sw	a5,8(sp)
1c00431c:	c502                	sw	zero,136(sp)
1c00431e:	ce02                	sw	zero,28(sp)
1c004320:	c62a                	sw	a0,12(sp)
1c004322:	00010c23          	sb	zero,24(sp)
1c004326:	a6aff0ef          	jal	ra,1c003590 <__rt_cluster_push_fc_event>
1c00432a:	4709                	li	a4,2
1c00432c:	002047b7          	lui	a5,0x204
1c004330:	46aa                	lw	a3,136(sp)
1c004332:	f6f1                	bnez	a3,1c0042fe <tfp_putc.isra.9+0x26>
1c004334:	00e7a423          	sw	a4,8(a5) # 204008 <__L2+0x184008>
1c004338:	03c7e683          	p.elw	a3,60(a5)
1c00433c:	00e7a223          	sw	a4,4(a5)
1c004340:	bfc5                	j	1c004330 <tfp_putc.isra.9+0x58>
1c004342:	1c00e7b7          	lui	a5,0x1c00e
1c004346:	f5c7a783          	lw	a5,-164(a5) # 1c00df5c <_rt_io_uart>
1c00434a:	c399                	beqz	a5,1c004350 <tfp_putc.isra.9+0x78>
1c00434c:	3f91                	jal	1c0042a0 <__rt_putc_uart>
1c00434e:	bf45                	j	1c0042fe <tfp_putc.isra.9+0x26>
1c004350:	1c0067b7          	lui	a5,0x1c006
1c004354:	c187a783          	lw	a5,-1000(a5) # 1c005c18 <__hal_debug_struct+0x10>
1c004358:	c395                	beqz	a5,1c00437c <tfp_putc.isra.9+0xa4>
1c00435a:	014027f3          	csrr	a5,uhartid
1c00435e:	00379713          	slli	a4,a5,0x3
1c004362:	1a1106b7          	lui	a3,0x1a110
1c004366:	ee873733          	p.bclr	a4,a4,23,8
1c00436a:	9736                	add	a4,a4,a3
1c00436c:	6689                	lui	a3,0x2
1c00436e:	078a                	slli	a5,a5,0x2
1c004370:	f8068693          	addi	a3,a3,-128 # 1f80 <__rt_stack_size+0x1780>
1c004374:	8ff5                	and	a5,a5,a3
1c004376:	00a767a3          	p.sw	a0,a5(a4)
1c00437a:	b751                	j	1c0042fe <tfp_putc.isra.9+0x26>
1c00437c:	35d9                	jal	1c004242 <__rt_putc_debug_bridge>
1c00437e:	b741                	j	1c0042fe <tfp_putc.isra.9+0x26>

1c004380 <puts>:
1c004380:	1141                	addi	sp,sp,-16
1c004382:	c422                	sw	s0,8(sp)
1c004384:	c606                	sw	ra,12(sp)
1c004386:	842a                	mv	s0,a0
1c004388:	bffff0ef          	jal	ra,1c003f86 <__rt_io_lock>
1c00438c:	0014450b          	p.lbu	a0,1(s0!)
1c004390:	c119                	beqz	a0,1c004396 <puts+0x16>
1c004392:	3799                	jal	1c0042d8 <tfp_putc.isra.9>
1c004394:	bfe5                	j	1c00438c <puts+0xc>
1c004396:	4529                	li	a0,10
1c004398:	3781                	jal	1c0042d8 <tfp_putc.isra.9>
1c00439a:	c8fff0ef          	jal	ra,1c004028 <__rt_io_unlock>
1c00439e:	40b2                	lw	ra,12(sp)
1c0043a0:	4422                	lw	s0,8(sp)
1c0043a2:	4501                	li	a0,0
1c0043a4:	0141                	addi	sp,sp,16
1c0043a6:	8082                	ret

1c0043a8 <fputc_locked>:
1c0043a8:	1141                	addi	sp,sp,-16
1c0043aa:	c422                	sw	s0,8(sp)
1c0043ac:	842a                	mv	s0,a0
1c0043ae:	0ff57513          	andi	a0,a0,255
1c0043b2:	c606                	sw	ra,12(sp)
1c0043b4:	3715                	jal	1c0042d8 <tfp_putc.isra.9>
1c0043b6:	8522                	mv	a0,s0
1c0043b8:	40b2                	lw	ra,12(sp)
1c0043ba:	4422                	lw	s0,8(sp)
1c0043bc:	0141                	addi	sp,sp,16
1c0043be:	8082                	ret

1c0043c0 <_prf_locked>:
1c0043c0:	1101                	addi	sp,sp,-32
1c0043c2:	ce06                	sw	ra,28(sp)
1c0043c4:	c02a                	sw	a0,0(sp)
1c0043c6:	c62e                	sw	a1,12(sp)
1c0043c8:	c432                	sw	a2,8(sp)
1c0043ca:	c236                	sw	a3,4(sp)
1c0043cc:	bbbff0ef          	jal	ra,1c003f86 <__rt_io_lock>
1c0043d0:	4692                	lw	a3,4(sp)
1c0043d2:	4622                	lw	a2,8(sp)
1c0043d4:	45b2                	lw	a1,12(sp)
1c0043d6:	4502                	lw	a0,0(sp)
1c0043d8:	24b5                	jal	1c004644 <_prf>
1c0043da:	c02a                	sw	a0,0(sp)
1c0043dc:	c4dff0ef          	jal	ra,1c004028 <__rt_io_unlock>
1c0043e0:	40f2                	lw	ra,28(sp)
1c0043e2:	4502                	lw	a0,0(sp)
1c0043e4:	6105                	addi	sp,sp,32
1c0043e6:	8082                	ret

1c0043e8 <exit>:
1c0043e8:	1101                	addi	sp,sp,-32
1c0043ea:	cc22                	sw	s0,24(sp)
1c0043ec:	c84a                	sw	s2,16(sp)
1c0043ee:	c62a                	sw	a0,12(sp)
1c0043f0:	ce06                	sw	ra,28(sp)
1c0043f2:	ca26                	sw	s1,20(sp)
1c0043f4:	cfbfd0ef          	jal	ra,1c0020ee <__rt_deinit>
1c0043f8:	4532                	lw	a0,12(sp)
1c0043fa:	1a104437          	lui	s0,0x1a104
1c0043fe:	0a040793          	addi	a5,s0,160 # 1a1040a0 <__l1_end+0xa104080>
1c004402:	c1f54933          	p.bset	s2,a0,0,31
1c004406:	0127a023          	sw	s2,0(a5)
1c00440a:	1c00e7b7          	lui	a5,0x1c00e
1c00440e:	f2c7a783          	lw	a5,-212(a5) # 1c00df2c <__rt_iodev>
1c004412:	0027be63          	p.bneimm	a5,2,1c00442e <exit+0x46>
1c004416:	c519                	beqz	a0,1c004424 <exit+0x3c>
1c004418:	00020537          	lui	a0,0x20
1c00441c:	02350513          	addi	a0,a0,35 # 20023 <__L1Cl+0x10023>
1c004420:	20e9                	jal	1c0044ea <semihost_exit>
1c004422:	a001                	j	1c004422 <exit+0x3a>
1c004424:	00020537          	lui	a0,0x20
1c004428:	02650513          	addi	a0,a0,38 # 20026 <__L1Cl+0x10026>
1c00442c:	bfd5                	j	1c004420 <exit+0x38>
1c00442e:	1c0064b7          	lui	s1,0x1c006
1c004432:	c0848493          	addi	s1,s1,-1016 # 1c005c08 <__hal_debug_struct>
1c004436:	94efe0ef          	jal	ra,1c002584 <__rt_bridge_printf_flush>
1c00443a:	0124a623          	sw	s2,12(s1)
1c00443e:	908fe0ef          	jal	ra,1c002546 <__rt_bridge_send_notif>
1c004442:	449c                	lw	a5,8(s1)
1c004444:	dff9                	beqz	a5,1c004422 <exit+0x3a>
1c004446:	07440413          	addi	s0,s0,116
1c00444a:	401c                	lw	a5,0(s0)
1c00444c:	83a5                	srli	a5,a5,0x9
1c00444e:	f837b7b3          	p.bclr	a5,a5,28,3
1c004452:	fe77bce3          	p.bneimm	a5,7,1c00444a <exit+0x62>
1c004456:	910fe0ef          	jal	ra,1c002566 <__rt_bridge_clear_notif>
1c00445a:	b7e1                	j	1c004422 <exit+0x3a>

1c00445c <abort>:
1c00445c:	1141                	addi	sp,sp,-16
1c00445e:	557d                	li	a0,-1
1c004460:	c606                	sw	ra,12(sp)
1c004462:	3759                	jal	1c0043e8 <exit>

1c004464 <__rt_io_init>:
#endif
}

RT_FC_BOOT_CODE void __attribute__((constructor)) __rt_io_init()
{
  __rt_putc_host_buffer_index = 0;
1c004464:	1c00e7b7          	lui	a5,0x1c00e
1c004468:	f407ac23          	sw	zero,-168(a5) # 1c00df58 <__rt_putc_host_buffer_index>
void __rt_fc_cluster_unlock(rt_fc_lock_t *lock, rt_fc_lock_req_t *req);

static inline void __rt_fc_lock_init(rt_fc_lock_t *lock)
{
#if defined(ARCHI_HAS_FC)
  lock->waiting = NULL;
1c00446c:	1b0017b7          	lui	a5,0x1b001
1c004470:	bbc78793          	addi	a5,a5,-1092 # 1b000bbc <__rt_io_fc_lock>
1c004474:	0007a223          	sw	zero,4(a5)
  lock->locked = 0;
1c004478:	0007a023          	sw	zero,0(a5)
  lock->fc_wait = NULL;
1c00447c:	0007a623          	sw	zero,12(a5)
  __rt_fc_lock_init(&__rt_io_fc_lock);

#if defined(__RT_USE_UART)
  _rt_io_uart = NULL;
1c004480:	1c00e7b7          	lui	a5,0x1c00e
1c004484:	f407ae23          	sw	zero,-164(a5) # 1c00df5c <_rt_io_uart>
  __rt_io_event_current = NULL;
1c004488:	1c00e7b7          	lui	a5,0x1c00e
1c00448c:	f407a823          	sw	zero,-176(a5) # 1c00df50 <__rt_io_event_current>
  return __rt_iodev;
1c004490:	1c00e7b7          	lui	a5,0x1c00e

  if (rt_iodev() == RT_IODEV_UART)
1c004494:	f2c7a783          	lw	a5,-212(a5) # 1c00df2c <__rt_iodev>
1c004498:	0217be63          	p.bneimm	a5,1,1c0044d4 <__rt_io_init+0x70>
  {
    __rt_cbsys_add(RT_CBSYS_START, __rt_io_start, NULL);
1c00449c:	1c0045b7          	lui	a1,0x1c004
{
1c0044a0:	1141                	addi	sp,sp,-16
    __rt_cbsys_add(RT_CBSYS_START, __rt_io_start, NULL);
1c0044a2:	4601                	li	a2,0
1c0044a4:	f0c58593          	addi	a1,a1,-244 # 1c003f0c <__rt_io_start>
1c0044a8:	4501                	li	a0,0
{
1c0044aa:	c606                	sw	ra,12(sp)
    __rt_cbsys_add(RT_CBSYS_START, __rt_io_start, NULL);
1c0044ac:	ddbfd0ef          	jal	ra,1c002286 <__rt_cbsys_add>
    __rt_cbsys_add(RT_CBSYS_STOP, __rt_io_stop, NULL);
1c0044b0:	1c0045b7          	lui	a1,0x1c004
1c0044b4:	1f258593          	addi	a1,a1,498 # 1c0041f2 <__rt_io_stop>
1c0044b8:	4601                	li	a2,0
1c0044ba:	4505                	li	a0,1
1c0044bc:	dcbfd0ef          	jal	ra,1c002286 <__rt_cbsys_add>
    __rt_io_pending_flush = 0;
    rt_event_alloc(NULL, 1);
  }
#endif

}
1c0044c0:	40b2                	lw	ra,12(sp)
    __rt_io_pending_flush = 0;
1c0044c2:	1c00e7b7          	lui	a5,0x1c00e
1c0044c6:	f407aa23          	sw	zero,-172(a5) # 1c00df54 <__rt_io_pending_flush>
    rt_event_alloc(NULL, 1);
1c0044ca:	4585                	li	a1,1
1c0044cc:	4501                	li	a0,0
}
1c0044ce:	0141                	addi	sp,sp,16
    rt_event_alloc(NULL, 1);
1c0044d0:	9d0fe06f          	j	1c0026a0 <rt_event_alloc>
1c0044d4:	8082                	ret

1c0044d6 <__internal_semihost>:
    return __internal_semihost(SEMIHOSTING_SYS_SEEK, (long) args);
}

int semihost_flen(int fd)
{
    return __internal_semihost(SEMIHOSTING_SYS_FLEN, (long) fd);
1c0044d6:	01f01013          	slli	zero,zero,0x1f
1c0044da:	00100073          	ebreak
1c0044de:	40705013          	srai	zero,zero,0x7
1c0044e2:	8082                	ret

1c0044e4 <semihost_write0>:
1c0044e4:	85aa                	mv	a1,a0
1c0044e6:	4511                	li	a0,4
1c0044e8:	b7fd                	j	1c0044d6 <__internal_semihost>

1c0044ea <semihost_exit>:
}

int semihost_exit(int code)
{
    return __internal_semihost(SEMIHOSTING_SYS_EXIT, (long) code);
1c0044ea:	85aa                	mv	a1,a0
1c0044ec:	4561                	li	a0,24
1c0044ee:	b7e5                	j	1c0044d6 <__internal_semihost>

1c0044f0 <printf>:

	return r;
}

int printf(const char *format, ...)
{
1c0044f0:	7139                	addi	sp,sp,-64
1c0044f2:	d432                	sw	a2,40(sp)
	va_list vargs;
	int     r;

	va_start(vargs, format);
	r = _prf_locked(fputc_locked, DESC(stdout), format, vargs);
1c0044f4:	862a                	mv	a2,a0
1c0044f6:	1c004537          	lui	a0,0x1c004
{
1c0044fa:	d22e                	sw	a1,36(sp)
1c0044fc:	d636                	sw	a3,44(sp)
	r = _prf_locked(fputc_locked, DESC(stdout), format, vargs);
1c0044fe:	4589                	li	a1,2
	va_start(vargs, format);
1c004500:	1054                	addi	a3,sp,36
	r = _prf_locked(fputc_locked, DESC(stdout), format, vargs);
1c004502:	3a850513          	addi	a0,a0,936 # 1c0043a8 <fputc_locked>
{
1c004506:	ce06                	sw	ra,28(sp)
1c004508:	d83a                	sw	a4,48(sp)
1c00450a:	da3e                	sw	a5,52(sp)
1c00450c:	dc42                	sw	a6,56(sp)
1c00450e:	de46                	sw	a7,60(sp)
	va_start(vargs, format);
1c004510:	c636                	sw	a3,12(sp)
	r = _prf_locked(fputc_locked, DESC(stdout), format, vargs);
1c004512:	357d                	jal	1c0043c0 <_prf_locked>
	va_end(vargs);

	return r;
}
1c004514:	40f2                	lw	ra,28(sp)
1c004516:	6121                	addi	sp,sp,64
1c004518:	8082                	ret

1c00451a <_to_x>:
 * Writes the specified number into the buffer in the given base,
 * using the digit characters 0-9a-z (i.e. base>36 will start writing
 * odd bytes).
 */
static int _to_x(char *buf, unsigned VALTYPE n, unsigned int base)
{
1c00451a:	7179                	addi	sp,sp,-48
1c00451c:	d422                	sw	s0,40(sp)
1c00451e:	d226                	sw	s1,36(sp)
1c004520:	ce4e                	sw	s3,28(sp)
1c004522:	cc52                	sw	s4,24(sp)
1c004524:	ca56                	sw	s5,20(sp)
1c004526:	c85a                	sw	s6,16(sp)
1c004528:	d606                	sw	ra,44(sp)
1c00452a:	d04a                	sw	s2,32(sp)
1c00452c:	c65e                	sw	s7,12(sp)
1c00452e:	84aa                	mv	s1,a0
1c004530:	89ae                	mv	s3,a1
1c004532:	8a32                	mv	s4,a2
1c004534:	8ab6                	mv	s5,a3
1c004536:	842a                	mv	s0,a0

	do {
		unsigned int d = n % base;

		n /= base;
		*buf++ = '0' + d + (d > 9 ? ('a' - '0' - 10) : 0);
1c004538:	4b25                	li	s6,9
		unsigned int d = n % base;
1c00453a:	8656                	mv	a2,s5
1c00453c:	4681                	li	a3,0
1c00453e:	854e                	mv	a0,s3
1c004540:	85d2                	mv	a1,s4
1c004542:	c2afc0ef          	jal	ra,1c00096c <__umoddi3>
		n /= base;
1c004546:	85d2                	mv	a1,s4
		unsigned int d = n % base;
1c004548:	892a                	mv	s2,a0
		n /= base;
1c00454a:	8656                	mv	a2,s5
1c00454c:	854e                	mv	a0,s3
1c00454e:	4681                	li	a3,0
1c004550:	8e0fc0ef          	jal	ra,1c000630 <__udivdi3>
1c004554:	89aa                	mv	s3,a0
1c004556:	8a2e                	mv	s4,a1
		*buf++ = '0' + d + (d > 9 ? ('a' - '0' - 10) : 0);
1c004558:	02700713          	li	a4,39
1c00455c:	012b6363          	bltu	s6,s2,1c004562 <_to_x+0x48>
1c004560:	4701                	li	a4,0
1c004562:	03090913          	addi	s2,s2,48
1c004566:	974a                	add	a4,a4,s2
1c004568:	00e40023          	sb	a4,0(s0)
	} while (n);
1c00456c:	8dc9                	or	a1,a1,a0
		*buf++ = '0' + d + (d > 9 ? ('a' - '0' - 10) : 0);
1c00456e:	00140793          	addi	a5,s0,1
	} while (n);
1c004572:	e195                	bnez	a1,1c004596 <_to_x+0x7c>

	*buf = 0;
1c004574:	00078023          	sb	zero,0(a5)
	len = buf - start;
1c004578:	40978533          	sub	a0,a5,s1

	for (buf--; buf > start; buf--, start++) {
1c00457c:	0084ef63          	bltu	s1,s0,1c00459a <_to_x+0x80>
		*buf = *start;
		*start = tmp;
	}

	return len;
}
1c004580:	50b2                	lw	ra,44(sp)
1c004582:	5422                	lw	s0,40(sp)
1c004584:	5492                	lw	s1,36(sp)
1c004586:	5902                	lw	s2,32(sp)
1c004588:	49f2                	lw	s3,28(sp)
1c00458a:	4a62                	lw	s4,24(sp)
1c00458c:	4ad2                	lw	s5,20(sp)
1c00458e:	4b42                	lw	s6,16(sp)
1c004590:	4bb2                	lw	s7,12(sp)
1c004592:	6145                	addi	sp,sp,48
1c004594:	8082                	ret
1c004596:	843e                	mv	s0,a5
1c004598:	b74d                	j	1c00453a <_to_x+0x20>
		*buf = *start;
1c00459a:	0004c703          	lbu	a4,0(s1)
		char tmp = *buf;
1c00459e:	00044783          	lbu	a5,0(s0)
		*buf = *start;
1c0045a2:	fee40fab          	p.sb	a4,-1(s0!)
		*start = tmp;
1c0045a6:	00f480ab          	p.sb	a5,1(s1!)
1c0045aa:	bfc9                	j	1c00457c <_to_x+0x62>

1c0045ac <_rlrshift>:
	return (buf + _to_udec(buf, value)) - start;
}

static	void _rlrshift(uint64_t *v)
{
	*v = (*v & 1) + (*v >> 1);
1c0045ac:	411c                	lw	a5,0(a0)
1c0045ae:	4154                	lw	a3,4(a0)
1c0045b0:	fc17b733          	p.bclr	a4,a5,30,1
1c0045b4:	01f69613          	slli	a2,a3,0x1f
1c0045b8:	8385                	srli	a5,a5,0x1
1c0045ba:	8fd1                	or	a5,a5,a2
1c0045bc:	97ba                	add	a5,a5,a4
1c0045be:	8285                	srli	a3,a3,0x1
1c0045c0:	00e7b733          	sltu	a4,a5,a4
1c0045c4:	9736                	add	a4,a4,a3
1c0045c6:	c11c                	sw	a5,0(a0)
1c0045c8:	c158                	sw	a4,4(a0)
}
1c0045ca:	8082                	ret

1c0045cc <_ldiv5>:
 * taken from the full 64 bit space.
 */
static void _ldiv5(uint64_t *v)
{
	uint32_t hi;
	uint64_t rem = *v, quot = 0U, q;
1c0045cc:	4118                	lw	a4,0(a0)
1c0045ce:	4154                	lw	a3,4(a0)
	 */
	rem += 2U;

	for (i = 0; i < 3; i++) {
		hi = rem >> shifts[i];
		q = (uint64_t)(hi / 5U) << shifts[i];
1c0045d0:	4615                	li	a2,5
	rem += 2U;
1c0045d2:	00270793          	addi	a5,a4,2
1c0045d6:	00e7b733          	sltu	a4,a5,a4
1c0045da:	9736                	add	a4,a4,a3
		q = (uint64_t)(hi / 5U) << shifts[i];
1c0045dc:	02c755b3          	divu	a1,a4,a2
		rem -= q * 5U;
1c0045e0:	42b61733          	p.msu	a4,a2,a1
		hi = rem >> shifts[i];
1c0045e4:	01d71693          	slli	a3,a4,0x1d
1c0045e8:	0037d713          	srli	a4,a5,0x3
1c0045ec:	8f55                	or	a4,a4,a3
		q = (uint64_t)(hi / 5U) << shifts[i];
1c0045ee:	02c75733          	divu	a4,a4,a2
1c0045f2:	01d75693          	srli	a3,a4,0x1d
1c0045f6:	070e                	slli	a4,a4,0x3
		rem -= q * 5U;
1c0045f8:	42e617b3          	p.msu	a5,a2,a4
		quot += q;
1c0045fc:	95b6                	add	a1,a1,a3
		q = (uint64_t)(hi / 5U) << shifts[i];
1c0045fe:	02c7d7b3          	divu	a5,a5,a2
		quot += q;
1c004602:	973e                	add	a4,a4,a5
1c004604:	00f737b3          	sltu	a5,a4,a5
1c004608:	97ae                	add	a5,a5,a1
	}

	*v = quot;
1c00460a:	c118                	sw	a4,0(a0)
1c00460c:	c15c                	sw	a5,4(a0)
}
1c00460e:	8082                	ret

1c004610 <_get_digit>:

static	char _get_digit(uint64_t *fr, int *digit_count)
{
	char rval;

	if (*digit_count > 0) {
1c004610:	419c                	lw	a5,0(a1)
		*digit_count -= 1;
		*fr = *fr * 10U;
		rval = ((*fr >> 60) & 0xF) + '0';
		*fr &= 0x0FFFFFFFFFFFFFFFull;
	} else {
		rval = '0';
1c004612:	03000713          	li	a4,48
	if (*digit_count > 0) {
1c004616:	02f05563          	blez	a5,1c004640 <_get_digit+0x30>
		*digit_count -= 1;
1c00461a:	17fd                	addi	a5,a5,-1
1c00461c:	c19c                	sw	a5,0(a1)
		*fr = *fr * 10U;
1c00461e:	411c                	lw	a5,0(a0)
1c004620:	4729                	li	a4,10
1c004622:	4150                	lw	a2,4(a0)
1c004624:	02f706b3          	mul	a3,a4,a5
1c004628:	02f737b3          	mulhu	a5,a4,a5
		*fr &= 0x0FFFFFFFFFFFFFFFull;
1c00462c:	c114                	sw	a3,0(a0)
		*fr = *fr * 10U;
1c00462e:	42c707b3          	p.mac	a5,a4,a2
		rval = ((*fr >> 60) & 0xF) + '0';
1c004632:	01c7d713          	srli	a4,a5,0x1c
		*fr &= 0x0FFFFFFFFFFFFFFFull;
1c004636:	c7c7b7b3          	p.bclr	a5,a5,3,28
		rval = ((*fr >> 60) & 0xF) + '0';
1c00463a:	03070713          	addi	a4,a4,48
		*fr &= 0x0FFFFFFFFFFFFFFFull;
1c00463e:	c15c                	sw	a5,4(a0)
	}

	return rval;
}
1c004640:	853a                	mv	a0,a4
1c004642:	8082                	ret

1c004644 <_prf>:
	*sptr = p;
	return i;
}

int _prf(int (*func)(), void *dest, const char *format, va_list vargs)
{
1c004644:	7135                	addi	sp,sp,-160
1c004646:	c94a                	sw	s2,144(sp)
1c004648:	c74e                	sw	s3,140(sp)
1c00464a:	c15a                	sw	s6,128(sp)
1c00464c:	dede                	sw	s7,124(sp)
1c00464e:	cf06                	sw	ra,156(sp)
1c004650:	cd22                	sw	s0,152(sp)
1c004652:	cb26                	sw	s1,148(sp)
1c004654:	c552                	sw	s4,136(sp)
1c004656:	c356                	sw	s5,132(sp)
1c004658:	dce2                	sw	s8,120(sp)
1c00465a:	dae6                	sw	s9,116(sp)
1c00465c:	d8ea                	sw	s10,112(sp)
1c00465e:	d6ee                	sw	s11,108(sp)
1c004660:	8b2a                	mv	s6,a0
1c004662:	8bae                	mv	s7,a1
1c004664:	8936                	mv	s2,a3
	struct zero_padding zero;
	VALTYPE val;

#define PUTC(c)	do { if ((*func)(c, dest) == EOF) return EOF; } while (false)

	count = 0;
1c004666:	4981                	li	s3,0

	while ((c = *format++)) {
1c004668:	00064503          	lbu	a0,0(a2)
1c00466c:	00160c13          	addi	s8,a2,1
1c004670:	c911                	beqz	a0,1c004684 <_prf+0x40>
		if (c != '%') {
1c004672:	02500793          	li	a5,37
1c004676:	14f50563          	beq	a0,a5,1c0047c0 <_prf+0x17c>
			PUTC(c);
1c00467a:	85de                	mv	a1,s7
1c00467c:	9b02                	jalr	s6
1c00467e:	13f53fe3          	p.bneimm	a0,-1,1c004fbc <_prf+0x978>
1c004682:	59fd                	li	s3,-1
		}
	}
	return count;

#undef PUTC
}
1c004684:	40fa                	lw	ra,156(sp)
1c004686:	446a                	lw	s0,152(sp)
1c004688:	854e                	mv	a0,s3
1c00468a:	44da                	lw	s1,148(sp)
1c00468c:	494a                	lw	s2,144(sp)
1c00468e:	49ba                	lw	s3,140(sp)
1c004690:	4a2a                	lw	s4,136(sp)
1c004692:	4a9a                	lw	s5,132(sp)
1c004694:	4b0a                	lw	s6,128(sp)
1c004696:	5bf6                	lw	s7,124(sp)
1c004698:	5c66                	lw	s8,120(sp)
1c00469a:	5cd6                	lw	s9,116(sp)
1c00469c:	5d46                	lw	s10,112(sp)
1c00469e:	5db6                	lw	s11,108(sp)
1c0046a0:	610d                	addi	sp,sp,160
1c0046a2:	8082                	ret
				switch (c) {
1c0046a4:	108d8663          	beq	s11,s0,1c0047b0 <_prf+0x16c>
1c0046a8:	0fb46863          	bltu	s0,s11,1c004798 <_prf+0x154>
1c0046ac:	fc0d8ce3          	beqz	s11,1c004684 <_prf+0x40>
1c0046b0:	0ecd8d63          	beq	s11,a2,1c0047aa <_prf+0x166>
					fplus = true;
1c0046b4:	8c52                	mv	s8,s4
			while (strchr("-+ #0", (c = *format++)) != NULL) {
1c0046b6:	000c4d83          	lbu	s11,0(s8)
1c0046ba:	1c006737          	lui	a4,0x1c006
1c0046be:	b0c70513          	addi	a0,a4,-1268 # 1c005b0c <__clz_tab+0x490>
1c0046c2:	85ee                	mv	a1,s11
1c0046c4:	c232                	sw	a2,4(sp)
1c0046c6:	b63ff0ef          	jal	ra,1c004228 <strchr>
1c0046ca:	001c0a13          	addi	s4,s8,1
1c0046ce:	4612                	lw	a2,4(sp)
1c0046d0:	f971                	bnez	a0,1c0046a4 <_prf+0x60>
			if (c == '*') {
1c0046d2:	02a00713          	li	a4,42
1c0046d6:	10ed9563          	bne	s11,a4,1c0047e0 <_prf+0x19c>
				width = va_arg(vargs, int);
1c0046da:	00092c83          	lw	s9,0(s2)
1c0046de:	00490713          	addi	a4,s2,4
				if (width < 0) {
1c0046e2:	000cd663          	bgez	s9,1c0046ee <_prf+0xaa>
					fminus = true;
1c0046e6:	4785                	li	a5,1
					width = -width;
1c0046e8:	41900cb3          	neg	s9,s9
					fminus = true;
1c0046ec:	cc3e                	sw	a5,24(sp)
				c = *format++;
1c0046ee:	000a4d83          	lbu	s11,0(s4)
				width = va_arg(vargs, int);
1c0046f2:	893a                	mv	s2,a4
				c = *format++;
1c0046f4:	002c0a13          	addi	s4,s8,2
			if (c == '.') {
1c0046f8:	02e00713          	li	a4,46
			precision = -1;
1c0046fc:	547d                	li	s0,-1
			if (c == '.') {
1c0046fe:	00ed9f63          	bne	s11,a4,1c00471c <_prf+0xd8>
				if (c == '*') {
1c004702:	000a4703          	lbu	a4,0(s4)
1c004706:	02a00793          	li	a5,42
1c00470a:	10f71e63          	bne	a4,a5,1c004826 <_prf+0x1e2>
					precision = va_arg(vargs, int);
1c00470e:	00092403          	lw	s0,0(s2)
				c = *format++;
1c004712:	0a05                	addi	s4,s4,1
					precision = va_arg(vargs, int);
1c004714:	0911                	addi	s2,s2,4
				c = *format++;
1c004716:	000a4d83          	lbu	s11,0(s4)
1c00471a:	0a05                	addi	s4,s4,1
			if (strchr("hlz", c) != NULL) {
1c00471c:	1c006737          	lui	a4,0x1c006
1c004720:	85ee                	mv	a1,s11
1c004722:	b1470513          	addi	a0,a4,-1260 # 1c005b14 <__clz_tab+0x498>
1c004726:	84ee                	mv	s1,s11
1c004728:	b01ff0ef          	jal	ra,1c004228 <strchr>
1c00472c:	10050e63          	beqz	a0,1c004848 <_prf+0x204>
				if (i == 'l' && c == 'l') {
1c004730:	06c00693          	li	a3,108
				c = *format++;
1c004734:	001a0c13          	addi	s8,s4,1
1c004738:	000a4d83          	lbu	s11,0(s4)
				if (i == 'l' && c == 'l') {
1c00473c:	0ed49963          	bne	s1,a3,1c00482e <_prf+0x1ea>
1c004740:	009d9863          	bne	s11,s1,1c004750 <_prf+0x10c>
					c = *format++;
1c004744:	001a4d83          	lbu	s11,1(s4)
1c004748:	002a0c13          	addi	s8,s4,2
					i = 'L';
1c00474c:	04c00493          	li	s1,76
			switch (c) {
1c004750:	06700693          	li	a3,103
1c004754:	17b6e263          	bltu	a3,s11,1c0048b8 <_prf+0x274>
1c004758:	06500693          	li	a3,101
1c00475c:	32ddfc63          	bleu	a3,s11,1c004a94 <_prf+0x450>
1c004760:	04700693          	li	a3,71
1c004764:	0fb6e563          	bltu	a3,s11,1c00484e <_prf+0x20a>
1c004768:	04500713          	li	a4,69
1c00476c:	32edf463          	bleu	a4,s11,1c004a94 <_prf+0x450>
1c004770:	f00d8ae3          	beqz	s11,1c004684 <_prf+0x40>
1c004774:	02500713          	li	a4,37
1c004778:	02ed8de3          	beq	s11,a4,1c004fb2 <_prf+0x96e>
				PUTC('%');
1c00477c:	85de                	mv	a1,s7
1c00477e:	02500513          	li	a0,37
1c004782:	9b02                	jalr	s6
1c004784:	eff52fe3          	p.beqimm	a0,-1,1c004682 <_prf+0x3e>
				PUTC(c);
1c004788:	85de                	mv	a1,s7
1c00478a:	856e                	mv	a0,s11
1c00478c:	9b02                	jalr	s6
1c00478e:	eff52ae3          	p.beqimm	a0,-1,1c004682 <_prf+0x3e>
				count += 2;
1c004792:	0989                	addi	s3,s3,2
1c004794:	02b0006f          	j	1c004fbe <_prf+0x97a>
				switch (c) {
1c004798:	039d8163          	beq	s11,s9,1c0047ba <_prf+0x176>
1c00479c:	009d8c63          	beq	s11,s1,1c0047b4 <_prf+0x170>
1c0047a0:	f1ad9ae3          	bne	s11,s10,1c0046b4 <_prf+0x70>
					fplus = true;
1c0047a4:	4705                	li	a4,1
1c0047a6:	c63a                	sw	a4,12(sp)
					break;
1c0047a8:	b731                	j	1c0046b4 <_prf+0x70>
					fspace = true;
1c0047aa:	4785                	li	a5,1
1c0047ac:	c83e                	sw	a5,16(sp)
					break;
1c0047ae:	b719                	j	1c0046b4 <_prf+0x70>
					falt = true;
1c0047b0:	4a85                	li	s5,1
					break;
1c0047b2:	b709                	j	1c0046b4 <_prf+0x70>
					fzero = true;
1c0047b4:	4705                	li	a4,1
1c0047b6:	ce3a                	sw	a4,28(sp)
					break;
1c0047b8:	bdf5                	j	1c0046b4 <_prf+0x70>
					fminus = true;
1c0047ba:	4785                	li	a5,1
1c0047bc:	cc3e                	sw	a5,24(sp)
1c0047be:	bddd                	j	1c0046b4 <_prf+0x70>
			fminus = fplus = fspace = falt = fzero = false;
1c0047c0:	ce02                	sw	zero,28(sp)
1c0047c2:	c802                	sw	zero,16(sp)
1c0047c4:	c602                	sw	zero,12(sp)
1c0047c6:	cc02                	sw	zero,24(sp)
1c0047c8:	4a81                	li	s5,0
				switch (c) {
1c0047ca:	02300413          	li	s0,35
1c0047ce:	02d00c93          	li	s9,45
1c0047d2:	03000493          	li	s1,48
1c0047d6:	02b00d13          	li	s10,43
1c0047da:	02000613          	li	a2,32
1c0047de:	bde1                	j	1c0046b6 <_prf+0x72>
	return ((((unsigned)c) >= ' ') && (((unsigned)c) <= '~'));
}

static inline int isdigit(int a)
{
	return (((unsigned)(a)-'0') < 10);
1c0047e0:	fd0d8713          	addi	a4,s11,-48
			} else if (!isdigit(c)) {
1c0047e4:	46a5                	li	a3,9
				width = 0;
1c0047e6:	4c81                	li	s9,0
			} else if (!isdigit(c)) {
1c0047e8:	f0e6e8e3          	bltu	a3,a4,1c0046f8 <_prf+0xb4>
	while (isdigit(*p)) {
1c0047ec:	4725                	li	a4,9
		i = 10 * i + *p++ - '0';
1c0047ee:	4629                	li	a2,10
	while (isdigit(*p)) {
1c0047f0:	8a62                	mv	s4,s8
1c0047f2:	001a4d8b          	p.lbu	s11,1(s4!)
1c0047f6:	fd0d8693          	addi	a3,s11,-48
1c0047fa:	eed76fe3          	bltu	a4,a3,1c0046f8 <_prf+0xb4>
		i = 10 * i + *p++ - '0';
1c0047fe:	87ee                	mv	a5,s11
1c004800:	42cc87b3          	p.mac	a5,s9,a2
1c004804:	8c52                	mv	s8,s4
1c004806:	fd078c93          	addi	s9,a5,-48
1c00480a:	b7dd                	j	1c0047f0 <_prf+0x1ac>
1c00480c:	42b407b3          	p.mac	a5,s0,a1
1c004810:	8a3a                	mv	s4,a4
1c004812:	fd078413          	addi	s0,a5,-48
	while (isdigit(*p)) {
1c004816:	8752                	mv	a4,s4
1c004818:	0017478b          	p.lbu	a5,1(a4!)
1c00481c:	fd078613          	addi	a2,a5,-48
1c004820:	fec6f6e3          	bleu	a2,a3,1c00480c <_prf+0x1c8>
1c004824:	bdcd                	j	1c004716 <_prf+0xd2>
	int i = 0;
1c004826:	4401                	li	s0,0
	while (isdigit(*p)) {
1c004828:	46a5                	li	a3,9
		i = 10 * i + *p++ - '0';
1c00482a:	45a9                	li	a1,10
1c00482c:	b7ed                	j	1c004816 <_prf+0x1d2>
				} else if (i == 'h' && c == 'h') {
1c00482e:	06800693          	li	a3,104
1c004832:	f0d49fe3          	bne	s1,a3,1c004750 <_prf+0x10c>
1c004836:	f09d9de3          	bne	s11,s1,1c004750 <_prf+0x10c>
					c = *format++;
1c00483a:	002a0c13          	addi	s8,s4,2
1c00483e:	001a4d83          	lbu	s11,1(s4)
					i = 'H';
1c004842:	04800493          	li	s1,72
1c004846:	b729                	j	1c004750 <_prf+0x10c>
1c004848:	8c52                	mv	s8,s4
			i = 0;
1c00484a:	4481                	li	s1,0
1c00484c:	b711                	j	1c004750 <_prf+0x10c>
			switch (c) {
1c00484e:	06300693          	li	a3,99
1c004852:	12dd8a63          	beq	s11,a3,1c004986 <_prf+0x342>
1c004856:	09b6e163          	bltu	a3,s11,1c0048d8 <_prf+0x294>
1c00485a:	05800693          	li	a3,88
1c00485e:	f0dd9fe3          	bne	s11,a3,1c00477c <_prf+0x138>
				switch (i) {
1c004862:	06c00693          	li	a3,108
1c004866:	6cd48363          	beq	s1,a3,1c004f2c <_prf+0x8e8>
1c00486a:	07a00693          	li	a3,122
1c00486e:	6ad48f63          	beq	s1,a3,1c004f2c <_prf+0x8e8>
1c004872:	04c00693          	li	a3,76
1c004876:	6ad49b63          	bne	s1,a3,1c004f2c <_prf+0x8e8>
					val = va_arg(vargs, unsigned long long);
1c00487a:	091d                	addi	s2,s2,7
1c00487c:	c4093933          	p.bclr	s2,s2,2,0
1c004880:	00092583          	lw	a1,0(s2)
1c004884:	00492603          	lw	a2,4(s2)
1c004888:	00890a13          	addi	s4,s2,8
				if (c == 'o') {
1c00488c:	06f00713          	li	a4,111
1c004890:	00c4                	addi	s1,sp,68
1c004892:	6aed9d63          	bne	s11,a4,1c004f4c <_prf+0x908>
	if (alt_form) {
1c004896:	6a0a8163          	beqz	s5,1c004f38 <_prf+0x8f4>
		*buf++ = '0';
1c00489a:	03000793          	li	a5,48
1c00489e:	04f10223          	sb	a5,68(sp)
		if (!value) {
1c0048a2:	00c5e7b3          	or	a5,a1,a2
		*buf++ = '0';
1c0048a6:	04510513          	addi	a0,sp,69
		if (!value) {
1c0048aa:	68079863          	bnez	a5,1c004f3a <_prf+0x8f6>
			*buf++ = 0;
1c0048ae:	040102a3          	sb	zero,69(sp)
			prefix = 0;
1c0048b2:	4901                	li	s2,0
			return 1;
1c0048b4:	4d85                	li	s11,1
1c0048b6:	a069                	j	1c004940 <_prf+0x2fc>
			switch (c) {
1c0048b8:	07000693          	li	a3,112
1c0048bc:	62dd8f63          	beq	s11,a3,1c004efa <_prf+0x8b6>
1c0048c0:	09b6e663          	bltu	a3,s11,1c00494c <_prf+0x308>
1c0048c4:	06e00693          	li	a3,110
1c0048c8:	5edd8463          	beq	s11,a3,1c004eb0 <_prf+0x86c>
1c0048cc:	f9b6ebe3          	bltu	a3,s11,1c004862 <_prf+0x21e>
1c0048d0:	06900693          	li	a3,105
1c0048d4:	eadd94e3          	bne	s11,a3,1c00477c <_prf+0x138>
				switch (i) {
1c0048d8:	06c00793          	li	a5,108
1c0048dc:	18f48563          	beq	s1,a5,1c004a66 <_prf+0x422>
1c0048e0:	07a00793          	li	a5,122
1c0048e4:	18f48163          	beq	s1,a5,1c004a66 <_prf+0x422>
1c0048e8:	04c00793          	li	a5,76
1c0048ec:	16f49d63          	bne	s1,a5,1c004a66 <_prf+0x422>
					val = va_arg(vargs, long long);
1c0048f0:	091d                	addi	s2,s2,7
1c0048f2:	c4093933          	p.bclr	s2,s2,2,0
1c0048f6:	00092583          	lw	a1,0(s2)
1c0048fa:	00492a83          	lw	s5,4(s2)
1c0048fe:	00890a13          	addi	s4,s2,8
1c004902:	04410d93          	addi	s11,sp,68
	if (value < 0) {
1c004906:	160ad763          	bgez	s5,1c004a74 <_prf+0x430>
		*buf++ = '-';
1c00490a:	02d00793          	li	a5,45
		value = -value;
1c00490e:	40b005b3          	neg	a1,a1
		*buf++ = '-';
1c004912:	04f10223          	sb	a5,68(sp)
		value = -value;
1c004916:	41500633          	neg	a2,s5
1c00491a:	00b037b3          	snez	a5,a1
1c00491e:	8e1d                	sub	a2,a2,a5
		*buf++ = ' ';
1c004920:	04510913          	addi	s2,sp,69
	return _to_x(buf, value, 10);
1c004924:	854a                	mv	a0,s2
1c004926:	46a9                	li	a3,10
1c004928:	bf3ff0ef          	jal	ra,1c00451a <_to_x>
				if (fplus || fspace || val < 0) {
1c00492c:	47b2                	lw	a5,12(sp)
	return (buf + _to_udec(buf, value)) - start;
1c00492e:	954a                	add	a0,a0,s2
1c004930:	41b50db3          	sub	s11,a0,s11
					prefix = 1;
1c004934:	4905                	li	s2,1
				if (fplus || fspace || val < 0) {
1c004936:	e789                	bnez	a5,1c004940 <_prf+0x2fc>
1c004938:	4742                	lw	a4,16(sp)
1c00493a:	e319                	bnez	a4,1c004940 <_prf+0x2fc>
1c00493c:	01fad913          	srli	s2,s5,0x1f
			if (precision >= 0) {
1c004940:	04045c63          	bgez	s0,1c004998 <_prf+0x354>
			zero.predot = zero.postdot = zero.trail = 0;
1c004944:	4401                	li	s0,0
1c004946:	4a81                	li	s5,0
1c004948:	4681                	li	a3,0
1c00494a:	a401                	j	1c004b4a <_prf+0x506>
			switch (c) {
1c00494c:	07500693          	li	a3,117
1c004950:	f0dd89e3          	beq	s11,a3,1c004862 <_prf+0x21e>
1c004954:	07800693          	li	a3,120
1c004958:	f0dd85e3          	beq	s11,a3,1c004862 <_prf+0x21e>
1c00495c:	07300713          	li	a4,115
1c004960:	e0ed9ee3          	bne	s11,a4,1c00477c <_prf+0x138>
				cptr = va_arg(vargs, char *);
1c004964:	00490a13          	addi	s4,s2,4
1c004968:	00092783          	lw	a5,0(s2)
				if (precision < 0) {
1c00496c:	00045663          	bgez	s0,1c004978 <_prf+0x334>
					precision = INT_MAX;
1c004970:	80000737          	lui	a4,0x80000
1c004974:	fff74413          	not	s0,a4
1c004978:	86be                	mv	a3,a5
				for (clen = 0; clen < precision; clen++) {
1c00497a:	4d81                	li	s11,0
1c00497c:	5bb41263          	bne	s0,s11,1c004f20 <_prf+0x8dc>
1c004980:	4901                	li	s2,0
1c004982:	4401                	li	s0,0
1c004984:	a819                	j	1c00499a <_prf+0x356>
				buf[0] = va_arg(vargs, int);
1c004986:	00092783          	lw	a5,0(s2)
1c00498a:	00490a13          	addi	s4,s2,4
				clen = 1;
1c00498e:	4d85                	li	s11,1
				buf[0] = va_arg(vargs, int);
1c004990:	04f10223          	sb	a5,68(sp)
				break;
1c004994:	4901                	li	s2,0
1c004996:	4401                	li	s0,0
1c004998:	00dc                	addi	a5,sp,68
				zero_head = precision - clen + prefix;
1c00499a:	41b40d33          	sub	s10,s0,s11
1c00499e:	9d4a                	add	s10,s10,s2
			zero.predot = zero.postdot = zero.trail = 0;
1c0049a0:	4401                	li	s0,0
1c0049a2:	4a81                	li	s5,0
1c0049a4:	4681                	li	a3,0
1c0049a6:	040d6d33          	p.max	s10,s10,zero
			if (!fminus && width > 0) {
1c0049aa:	4762                	lw	a4,24(sp)
			width -= clen + zero_head;
1c0049ac:	01bd0633          	add	a2,s10,s11
1c0049b0:	40cc8cb3          	sub	s9,s9,a2
			if (!fminus && width > 0) {
1c0049b4:	e701                	bnez	a4,1c0049bc <_prf+0x378>
1c0049b6:	84e6                	mv	s1,s9
1c0049b8:	63904263          	bgtz	s9,1c004fdc <_prf+0x998>
1c0049bc:	012784b3          	add	s1,a5,s2
			while (prefix-- > 0) {
1c0049c0:	62979463          	bne	a5,s1,1c004fe8 <_prf+0x9a4>
1c0049c4:	84ea                	mv	s1,s10
			while (zero_head-- > 0) {
1c0049c6:	14fd                	addi	s1,s1,-1
1c0049c8:	63f4bc63          	p.bneimm	s1,-1,1c005000 <_prf+0x9bc>
			clen -= prefix;
1c0049cc:	412d84b3          	sub	s1,s11,s2
1c0049d0:	8726                	mv	a4,s1
			if (zero.predot) {
1c0049d2:	c295                	beqz	a3,1c0049f6 <_prf+0x3b2>
				c = *cptr;
1c0049d4:	0007c503          	lbu	a0,0(a5)
				while (isdigit(c)) {
1c0049d8:	8dbe                	mv	s11,a5
1c0049da:	00978833          	add	a6,a5,s1
1c0049de:	4625                	li	a2,9
1c0049e0:	fd050593          	addi	a1,a0,-48
1c0049e4:	41b80733          	sub	a4,a6,s11
1c0049e8:	62b67863          	bleu	a1,a2,1c005018 <_prf+0x9d4>
1c0049ec:	8636                	mv	a2,a3
				while (zero.predot-- > 0) {
1c0049ee:	64061363          	bnez	a2,1c005034 <_prf+0x9f0>
				clen -= zero.predot;
1c0049f2:	8f15                	sub	a4,a4,a3
1c0049f4:	87ee                	mv	a5,s11
			if (zero.postdot) {
1c0049f6:	020a8e63          	beqz	s5,1c004a32 <_prf+0x3ee>
1c0049fa:	8dbe                	mv	s11,a5
1c0049fc:	00e78833          	add	a6,a5,a4
				} while (c != '.');
1c004a00:	02e00613          	li	a2,46
					c = *cptr++;
1c004a04:	001dc68b          	p.lbu	a3,1(s11!)
					PUTC(c);
1c004a08:	85de                	mv	a1,s7
1c004a0a:	c232                	sw	a2,4(sp)
1c004a0c:	8536                	mv	a0,a3
1c004a0e:	c036                	sw	a3,0(sp)
1c004a10:	c442                	sw	a6,8(sp)
1c004a12:	9b02                	jalr	s6
1c004a14:	4612                	lw	a2,4(sp)
1c004a16:	4682                	lw	a3,0(sp)
1c004a18:	4822                	lw	a6,8(sp)
1c004a1a:	c7f524e3          	p.beqimm	a0,-1,1c004682 <_prf+0x3e>
1c004a1e:	41b80733          	sub	a4,a6,s11
				} while (c != '.');
1c004a22:	fec691e3          	bne	a3,a2,1c004a04 <_prf+0x3c0>
1c004a26:	86d6                	mv	a3,s5
				while (zero.postdot-- > 0) {
1c004a28:	62d04563          	bgtz	a3,1c005052 <_prf+0xa0e>
				clen -= zero.postdot;
1c004a2c:	41570733          	sub	a4,a4,s5
					c = *cptr++;
1c004a30:	87ee                	mv	a5,s11
			if (zero.trail) {
1c004a32:	c415                	beqz	s0,1c004a5e <_prf+0x41a>
				c = *cptr;
1c004a34:	0007c503          	lbu	a0,0(a5)
				while (isdigit(c) || c == '.') {
1c004a38:	8dbe                	mv	s11,a5
1c004a3a:	973e                	add	a4,a4,a5
1c004a3c:	4625                	li	a2,9
1c004a3e:	02e00693          	li	a3,46
1c004a42:	fd050593          	addi	a1,a0,-48
1c004a46:	41b70ab3          	sub	s5,a4,s11
1c004a4a:	62b67163          	bleu	a1,a2,1c00506c <_prf+0xa28>
1c004a4e:	60d50f63          	beq	a0,a3,1c00506c <_prf+0xa28>
1c004a52:	8722                	mv	a4,s0
				while (zero.trail-- > 0) {
1c004a54:	62e04a63          	bgtz	a4,1c005088 <_prf+0xa44>
				clen -= zero.trail;
1c004a58:	408a8733          	sub	a4,s5,s0
1c004a5c:	87ee                	mv	a5,s11
1c004a5e:	843e                	mv	s0,a5
1c004a60:	00e78ab3          	add	s5,a5,a4
1c004a64:	a599                	j	1c0050aa <_prf+0xa66>
					val = va_arg(vargs, int);
1c004a66:	00092583          	lw	a1,0(s2)
1c004a6a:	00490a13          	addi	s4,s2,4
1c004a6e:	41f5da93          	srai	s5,a1,0x1f
					break;
1c004a72:	bd41                	j	1c004902 <_prf+0x2be>
	} else if (fplus) {
1c004a74:	47b2                	lw	a5,12(sp)
1c004a76:	c799                	beqz	a5,1c004a84 <_prf+0x440>
		*buf++ = '+';
1c004a78:	02b00793          	li	a5,43
		*buf++ = ' ';
1c004a7c:	04f10223          	sb	a5,68(sp)
1c004a80:	8656                	mv	a2,s5
1c004a82:	bd79                	j	1c004920 <_prf+0x2dc>
	} else if (fspace) {
1c004a84:	4742                	lw	a4,16(sp)
1c004a86:	c701                	beqz	a4,1c004a8e <_prf+0x44a>
		*buf++ = ' ';
1c004a88:	02000793          	li	a5,32
1c004a8c:	bfc5                	j	1c004a7c <_prf+0x438>
	} else if (fspace) {
1c004a8e:	8656                	mv	a2,s5
1c004a90:	896e                	mv	s2,s11
1c004a92:	bd49                	j	1c004924 <_prf+0x2e0>
				u.d = va_arg(vargs, double);
1c004a94:	091d                	addi	s2,s2,7
1c004a96:	c4093933          	p.bclr	s2,s2,2,0
				double_val = u.i;
1c004a9a:	00092583          	lw	a1,0(s2)
1c004a9e:	00492683          	lw	a3,4(s2)
	fract = (double_temp << 11) & ~HIGHBIT64;
1c004aa2:	800007b7          	lui	a5,0x80000
1c004aa6:	0155d613          	srli	a2,a1,0x15
1c004aaa:	00b69713          	slli	a4,a3,0xb
1c004aae:	8f51                	or	a4,a4,a2
1c004ab0:	fff7c793          	not	a5,a5
1c004ab4:	05ae                	slli	a1,a1,0xb
1c004ab6:	8f7d                	and	a4,a4,a5
				u.d = va_arg(vargs, double);
1c004ab8:	00890a13          	addi	s4,s2,8
	fract = (double_temp << 11) & ~HIGHBIT64;
1c004abc:	d82e                	sw	a1,48(sp)
	exp = double_temp >> 52 & 0x7ff;
1c004abe:	0146d913          	srli	s2,a3,0x14
	fract = (double_temp << 11) & ~HIGHBIT64;
1c004ac2:	da3a                	sw	a4,52(sp)
	exp = double_temp >> 52 & 0x7ff;
1c004ac4:	e8b93933          	p.bclr	s2,s2,20,11
	if (sign) {
1c004ac8:	0806d863          	bgez	a3,1c004b58 <_prf+0x514>
		*buf++ = '-';
1c004acc:	02d00693          	li	a3,45
		*buf++ = ' ';
1c004ad0:	04d10223          	sb	a3,68(sp)
1c004ad4:	04510493          	addi	s1,sp,69
	if (exp == 0x7ff) {
1c004ad8:	7ff00693          	li	a3,2047
1c004adc:	0cd91363          	bne	s2,a3,1c004ba2 <_prf+0x55e>
		if (!fract) {
1c004ae0:	8f4d                	or	a4,a4,a1
1c004ae2:	fbfd8793          	addi	a5,s11,-65
1c004ae6:	00348513          	addi	a0,s1,3
1c004aea:	eb49                	bnez	a4,1c004b7c <_prf+0x538>
			if (isupper(c)) {
1c004aec:	4765                	li	a4,25
1c004aee:	06f76f63          	bltu	a4,a5,1c004b6c <_prf+0x528>
				*buf++ = 'I';
1c004af2:	6795                	lui	a5,0x5
1c004af4:	e4978793          	addi	a5,a5,-439 # 4e49 <__rt_stack_size+0x4649>
1c004af8:	00f49023          	sh	a5,0(s1)
				*buf++ = 'N';
1c004afc:	04600793          	li	a5,70
		return buf - start;
1c004b00:	04410913          	addi	s2,sp,68
				*buf++ = 'a';
1c004b04:	00f48123          	sb	a5,2(s1)
		*buf = 0;
1c004b08:	000481a3          	sb	zero,3(s1)
		return buf - start;
1c004b0c:	41250533          	sub	a0,a0,s2
			zero.predot = zero.postdot = zero.trail = 0;
1c004b10:	4401                	li	s0,0
1c004b12:	4a81                	li	s5,0
1c004b14:	4681                	li	a3,0
				if (fplus || fspace || (buf[0] == '-')) {
1c004b16:	4732                	lw	a4,12(sp)
					prefix = 1;
1c004b18:	4905                	li	s2,1
				if (fplus || fspace || (buf[0] == '-')) {
1c004b1a:	eb09                	bnez	a4,1c004b2c <_prf+0x4e8>
1c004b1c:	47c2                	lw	a5,16(sp)
1c004b1e:	e799                	bnez	a5,1c004b2c <_prf+0x4e8>
1c004b20:	04414903          	lbu	s2,68(sp)
1c004b24:	fd390913          	addi	s2,s2,-45
1c004b28:	00193913          	seqz	s2,s2
				if (!isdigit(buf[prefix])) {
1c004b2c:	1098                	addi	a4,sp,96
1c004b2e:	012707b3          	add	a5,a4,s2
1c004b32:	fe47c783          	lbu	a5,-28(a5)
				clen += zero.predot + zero.postdot + zero.trail;
1c004b36:	015684b3          	add	s1,a3,s5
1c004b3a:	94a2                	add	s1,s1,s0
1c004b3c:	fd078793          	addi	a5,a5,-48
				if (!isdigit(buf[prefix])) {
1c004b40:	4625                	li	a2,9
				clen += zero.predot + zero.postdot + zero.trail;
1c004b42:	00a48db3          	add	s11,s1,a0
				if (!isdigit(buf[prefix])) {
1c004b46:	46f66e63          	bltu	a2,a5,1c004fc2 <_prf+0x97e>
			} else if (fzero) {
1c004b4a:	47f2                	lw	a5,28(sp)
1c004b4c:	46078b63          	beqz	a5,1c004fc2 <_prf+0x97e>
				zero_head = width - clen;
1c004b50:	41bc8d33          	sub	s10,s9,s11
1c004b54:	00dc                	addi	a5,sp,68
1c004b56:	bd81                	j	1c0049a6 <_prf+0x362>
	} else if (fplus) {
1c004b58:	47b2                	lw	a5,12(sp)
		*buf++ = '+';
1c004b5a:	02b00693          	li	a3,43
	} else if (fplus) {
1c004b5e:	fbad                	bnez	a5,1c004ad0 <_prf+0x48c>
	} else if (fspace) {
1c004b60:	47c2                	lw	a5,16(sp)
1c004b62:	00c4                	addi	s1,sp,68
1c004b64:	dbb5                	beqz	a5,1c004ad8 <_prf+0x494>
		*buf++ = ' ';
1c004b66:	02000693          	li	a3,32
1c004b6a:	b79d                	j	1c004ad0 <_prf+0x48c>
				*buf++ = 'i';
1c004b6c:	679d                	lui	a5,0x7
1c004b6e:	e6978793          	addi	a5,a5,-407 # 6e69 <__rt_stack_size+0x6669>
1c004b72:	00f49023          	sh	a5,0(s1)
				*buf++ = 'n';
1c004b76:	06600793          	li	a5,102
1c004b7a:	b759                	j	1c004b00 <_prf+0x4bc>
			if (isupper(c)) {
1c004b7c:	4765                	li	a4,25
1c004b7e:	00f76a63          	bltu	a4,a5,1c004b92 <_prf+0x54e>
				*buf++ = 'N';
1c004b82:	6791                	lui	a5,0x4
1c004b84:	14e78793          	addi	a5,a5,334 # 414e <__rt_stack_size+0x394e>
1c004b88:	00f49023          	sh	a5,0(s1)
				*buf++ = 'A';
1c004b8c:	04e00793          	li	a5,78
1c004b90:	bf85                	j	1c004b00 <_prf+0x4bc>
				*buf++ = 'n';
1c004b92:	6799                	lui	a5,0x6
1c004b94:	16e78793          	addi	a5,a5,366 # 616e <__rt_stack_size+0x596e>
1c004b98:	00f49023          	sh	a5,0(s1)
				*buf++ = 'a';
1c004b9c:	06e00793          	li	a5,110
1c004ba0:	b785                	j	1c004b00 <_prf+0x4bc>
	if (c == 'F') {
1c004ba2:	04600693          	li	a3,70
1c004ba6:	00dd9463          	bne	s11,a3,1c004bae <_prf+0x56a>
		c = 'f';
1c004baa:	06600d93          	li	s11,102
	if ((exp | fract) != 0) {
1c004bae:	41f95613          	srai	a2,s2,0x1f
1c004bb2:	00b966b3          	or	a3,s2,a1
1c004bb6:	8e59                	or	a2,a2,a4
1c004bb8:	8ed1                	or	a3,a3,a2
1c004bba:	1c068263          	beqz	a3,1c004d7e <_prf+0x73a>
		if (exp == 0) {
1c004bbe:	10090d63          	beqz	s2,1c004cd8 <_prf+0x694>
		fract |= HIGHBIT64;
1c004bc2:	5752                	lw	a4,52(sp)
1c004bc4:	800007b7          	lui	a5,0x80000
		exp -= (1023 - 1);	/* +1 since .1 vs 1. */
1c004bc8:	c0290913          	addi	s2,s2,-1022
		fract |= HIGHBIT64;
1c004bcc:	8f5d                	or	a4,a4,a5
1c004bce:	da3a                	sw	a4,52(sp)
1c004bd0:	4d01                	li	s10,0
	while (exp <= -3) {
1c004bd2:	5779                	li	a4,-2
1c004bd4:	10e94f63          	blt	s2,a4,1c004cf2 <_prf+0x6ae>
	while (exp > 0) {
1c004bd8:	17204663          	bgtz	s2,1c004d44 <_prf+0x700>
		_rlrshift(&fract);
1c004bdc:	1808                	addi	a0,sp,48
		exp++;
1c004bde:	0905                	addi	s2,s2,1
		_rlrshift(&fract);
1c004be0:	9cdff0ef          	jal	ra,1c0045ac <_rlrshift>
	while (exp < (0 + 4)) {
1c004be4:	fe493ce3          	p.bneimm	s2,4,1c004bdc <_prf+0x598>
	if (precision < 0) {
1c004be8:	00045363          	bgez	s0,1c004bee <_prf+0x5aa>
		precision = 6;		/* Default precision if none given */
1c004bec:	4419                	li	s0,6
	if ((c == 'g') || (c == 'G')) {
1c004bee:	0dfdf713          	andi	a4,s11,223
1c004bf2:	04700693          	li	a3,71
	prune_zero = false;		/* Assume trailing 0's allowed     */
1c004bf6:	ca02                	sw	zero,20(sp)
	if ((c == 'g') || (c == 'G')) {
1c004bf8:	02d71563          	bne	a4,a3,1c004c22 <_prf+0x5de>
		if (decexp < (-4 + 1) || decexp > precision) {
1c004bfc:	5775                	li	a4,-3
1c004bfe:	00ed4463          	blt	s10,a4,1c004c06 <_prf+0x5c2>
1c004c02:	19a45163          	ble	s10,s0,1c004d84 <_prf+0x740>
			c += 'e' - 'g';
1c004c06:	ffed8793          	addi	a5,s11,-2
1c004c0a:	0ff7fd93          	andi	s11,a5,255
			if (precision > 0) {
1c004c0e:	4c040e63          	beqz	s0,1c0050ea <_prf+0xaa6>
				precision--;
1c004c12:	147d                	addi	s0,s0,-1
		if (!falt && (precision > 0)) {
1c004c14:	4c0a9b63          	bnez	s5,1c0050ea <_prf+0xaa6>
1c004c18:	00802933          	sgtz	s2,s0
1c004c1c:	0ff97913          	andi	s2,s2,255
1c004c20:	ca4a                	sw	s2,20(sp)
	if (c == 'f') {
1c004c22:	06600713          	li	a4,102
1c004c26:	4ced9363          	bne	s11,a4,1c0050ec <_prf+0xaa8>
		exp = precision + decexp;
1c004c2a:	008d0733          	add	a4,s10,s0
		if (exp < 0) {
1c004c2e:	06600d93          	li	s11,102
1c004c32:	4a075f63          	bgez	a4,1c0050f0 <_prf+0xaac>
	digit_count = 16;
1c004c36:	4741                	li	a4,16
1c004c38:	d63a                	sw	a4,44(sp)
			exp = 0;
1c004c3a:	4901                	li	s2,0
	ltemp = 0x0800000000000000;
1c004c3c:	4601                	li	a2,0
1c004c3e:	080006b7          	lui	a3,0x8000
1c004c42:	dc32                	sw	a2,56(sp)
1c004c44:	de36                	sw	a3,60(sp)
	while (exp--) {
1c004c46:	197d                	addi	s2,s2,-1
1c004c48:	15f93563          	p.bneimm	s2,-1,1c004d92 <_prf+0x74e>
	fract += ltemp;
1c004c4c:	5742                	lw	a4,48(sp)
1c004c4e:	56e2                	lw	a3,56(sp)
1c004c50:	5652                	lw	a2,52(sp)
1c004c52:	55f2                	lw	a1,60(sp)
1c004c54:	96ba                	add	a3,a3,a4
1c004c56:	00e6b733          	sltu	a4,a3,a4
1c004c5a:	962e                	add	a2,a2,a1
1c004c5c:	9732                	add	a4,a4,a2
1c004c5e:	da3a                	sw	a4,52(sp)
1c004c60:	d836                	sw	a3,48(sp)
	if ((fract >> 32) & 0xF0000000) {
1c004c62:	f6073733          	p.bclr	a4,a4,27,0
1c004c66:	cb01                	beqz	a4,1c004c76 <_prf+0x632>
		_ldiv5(&fract);
1c004c68:	1808                	addi	a0,sp,48
1c004c6a:	963ff0ef          	jal	ra,1c0045cc <_ldiv5>
		_rlrshift(&fract);
1c004c6e:	1808                	addi	a0,sp,48
1c004c70:	93dff0ef          	jal	ra,1c0045ac <_rlrshift>
		decexp++;
1c004c74:	0d05                	addi	s10,s10,1
	if (c == 'f') {
1c004c76:	06600713          	li	a4,102
1c004c7a:	16ed9163          	bne	s11,a4,1c004ddc <_prf+0x798>
		if (decexp > 0) {
1c004c7e:	8926                	mv	s2,s1
1c004c80:	13a04963          	bgtz	s10,1c004db2 <_prf+0x76e>
			*buf++ = '0';
1c004c84:	03000713          	li	a4,48
1c004c88:	00e48023          	sb	a4,0(s1)
1c004c8c:	00148913          	addi	s2,s1,1
			zero.predot = zero.postdot = zero.trail = 0;
1c004c90:	4681                	li	a3,0
		if (falt || (precision > 0)) {
1c004c92:	120a8763          	beqz	s5,1c004dc0 <_prf+0x77c>
			*buf++ = '.';
1c004c96:	02e00593          	li	a1,46
1c004c9a:	00b90023          	sb	a1,0(s2)
1c004c9e:	00190713          	addi	a4,s2,1
		if (decexp < 0 && precision > 0) {
1c004ca2:	440d0263          	beqz	s10,1c0050e6 <_prf+0xaa2>
1c004ca6:	12805863          	blez	s0,1c004dd6 <_prf+0x792>
			zp->postdot = -decexp;
1c004caa:	41a00ab3          	neg	s5,s10
1c004cae:	048acab3          	p.min	s5,s5,s0
			precision -= zp->postdot;
1c004cb2:	41540433          	sub	s0,s0,s5
			zero.predot = zero.postdot = zero.trail = 0;
1c004cb6:	893a                	mv	s2,a4
		while (precision > 0 && digit_count > 0) {
1c004cb8:	10805763          	blez	s0,1c004dc6 <_prf+0x782>
1c004cbc:	5732                	lw	a4,44(sp)
1c004cbe:	10e05463          	blez	a4,1c004dc6 <_prf+0x782>
			*buf++ = _get_digit(&fract, &digit_count);
1c004cc2:	106c                	addi	a1,sp,44
1c004cc4:	1808                	addi	a0,sp,48
1c004cc6:	c036                	sw	a3,0(sp)
1c004cc8:	949ff0ef          	jal	ra,1c004610 <_get_digit>
1c004ccc:	00a900ab          	p.sb	a0,1(s2!)
			precision--;
1c004cd0:	147d                	addi	s0,s0,-1
1c004cd2:	4682                	lw	a3,0(sp)
1c004cd4:	b7d5                	j	1c004cb8 <_prf+0x674>
				exp--;
1c004cd6:	197d                	addi	s2,s2,-1
			while (((fract <<= 1) & HIGHBIT64) == 0) {
1c004cd8:	01f5d693          	srli	a3,a1,0x1f
1c004cdc:	0706                	slli	a4,a4,0x1
1c004cde:	8f55                	or	a4,a4,a3
1c004ce0:	0586                	slli	a1,a1,0x1
1c004ce2:	fe075ae3          	bgez	a4,1c004cd6 <_prf+0x692>
1c004ce6:	d82e                	sw	a1,48(sp)
1c004ce8:	da3a                	sw	a4,52(sp)
1c004cea:	bde1                	j	1c004bc2 <_prf+0x57e>
			_rlrshift(&fract);
1c004cec:	1808                	addi	a0,sp,48
1c004cee:	8bfff0ef          	jal	ra,1c0045ac <_rlrshift>
		while ((fract >> 32) >= (MAXFP1 / 5)) {
1c004cf2:	55d2                	lw	a1,52(sp)
1c004cf4:	33333737          	lui	a4,0x33333
1c004cf8:	33270713          	addi	a4,a4,818 # 33333332 <__l2_end+0x1732536e>
1c004cfc:	5642                	lw	a2,48(sp)
1c004cfe:	0905                	addi	s2,s2,1
1c004d00:	feb766e3          	bltu	a4,a1,1c004cec <_prf+0x6a8>
		fract *= 5U;
1c004d04:	4695                	li	a3,5
1c004d06:	02c6b733          	mulhu	a4,a3,a2
		decexp--;
1c004d0a:	1d7d                	addi	s10,s10,-1
		fract *= 5U;
1c004d0c:	02c68633          	mul	a2,a3,a2
1c004d10:	42b68733          	p.mac	a4,a3,a1
1c004d14:	d832                	sw	a2,48(sp)
		decexp--;
1c004d16:	4681                	li	a3,0
		fract *= 5U;
1c004d18:	da3a                	sw	a4,52(sp)
		while ((fract >> 32) <= (MAXFP1 / 2)) {
1c004d1a:	800007b7          	lui	a5,0x80000
1c004d1e:	fff7c793          	not	a5,a5
1c004d22:	00e7f763          	bleu	a4,a5,1c004d30 <_prf+0x6ec>
1c004d26:	ea0686e3          	beqz	a3,1c004bd2 <_prf+0x58e>
1c004d2a:	d832                	sw	a2,48(sp)
1c004d2c:	da3a                	sw	a4,52(sp)
1c004d2e:	b555                	j	1c004bd2 <_prf+0x58e>
			fract <<= 1;
1c004d30:	01f65593          	srli	a1,a2,0x1f
1c004d34:	00171693          	slli	a3,a4,0x1
1c004d38:	00d5e733          	or	a4,a1,a3
1c004d3c:	0606                	slli	a2,a2,0x1
			exp--;
1c004d3e:	197d                	addi	s2,s2,-1
1c004d40:	4685                	li	a3,1
1c004d42:	bfe1                	j	1c004d1a <_prf+0x6d6>
		_ldiv5(&fract);
1c004d44:	1808                	addi	a0,sp,48
1c004d46:	887ff0ef          	jal	ra,1c0045cc <_ldiv5>
1c004d4a:	5642                	lw	a2,48(sp)
1c004d4c:	5752                	lw	a4,52(sp)
		exp--;
1c004d4e:	197d                	addi	s2,s2,-1
		decexp++;
1c004d50:	0d05                	addi	s10,s10,1
1c004d52:	4681                	li	a3,0
		while ((fract >> 32) <= (MAXFP1 / 2)) {
1c004d54:	800007b7          	lui	a5,0x80000
1c004d58:	fff7c793          	not	a5,a5
1c004d5c:	00e7f763          	bleu	a4,a5,1c004d6a <_prf+0x726>
1c004d60:	e6068ce3          	beqz	a3,1c004bd8 <_prf+0x594>
1c004d64:	d832                	sw	a2,48(sp)
1c004d66:	da3a                	sw	a4,52(sp)
1c004d68:	bd85                	j	1c004bd8 <_prf+0x594>
			fract <<= 1;
1c004d6a:	01f65593          	srli	a1,a2,0x1f
1c004d6e:	00171693          	slli	a3,a4,0x1
1c004d72:	00d5e733          	or	a4,a1,a3
1c004d76:	0606                	slli	a2,a2,0x1
			exp--;
1c004d78:	197d                	addi	s2,s2,-1
1c004d7a:	4685                	li	a3,1
1c004d7c:	bfe1                	j	1c004d54 <_prf+0x710>
	if ((exp | fract) != 0) {
1c004d7e:	4d01                	li	s10,0
1c004d80:	4901                	li	s2,0
1c004d82:	bda9                	j	1c004bdc <_prf+0x598>
			precision -= decexp;
1c004d84:	41a40433          	sub	s0,s0,s10
		if (!falt && (precision > 0)) {
1c004d88:	ea0a91e3          	bnez	s5,1c004c2a <_prf+0x5e6>
			c = 'f';
1c004d8c:	06600d93          	li	s11,102
1c004d90:	b561                	j	1c004c18 <_prf+0x5d4>
		_ldiv5(&ltemp);
1c004d92:	1828                	addi	a0,sp,56
1c004d94:	839ff0ef          	jal	ra,1c0045cc <_ldiv5>
		_rlrshift(&ltemp);
1c004d98:	1828                	addi	a0,sp,56
1c004d9a:	813ff0ef          	jal	ra,1c0045ac <_rlrshift>
1c004d9e:	b565                	j	1c004c46 <_prf+0x602>
				*buf++ = _get_digit(&fract, &digit_count);
1c004da0:	106c                	addi	a1,sp,44
1c004da2:	1808                	addi	a0,sp,48
1c004da4:	86dff0ef          	jal	ra,1c004610 <_get_digit>
1c004da8:	00a900ab          	p.sb	a0,1(s2!)
				decexp--;
1c004dac:	1d7d                	addi	s10,s10,-1
			while (decexp > 0 && digit_count > 0) {
1c004dae:	000d0563          	beqz	s10,1c004db8 <_prf+0x774>
1c004db2:	5732                	lw	a4,44(sp)
1c004db4:	fee046e3          	bgtz	a4,1c004da0 <_prf+0x75c>
		if (falt || (precision > 0)) {
1c004db8:	300a9f63          	bnez	s5,1c0050d6 <_prf+0xa92>
			zp->predot = decexp;
1c004dbc:	86ea                	mv	a3,s10
			decexp = 0;
1c004dbe:	4d01                	li	s10,0
			zero.predot = zero.postdot = zero.trail = 0;
1c004dc0:	4a81                	li	s5,0
		if (falt || (precision > 0)) {
1c004dc2:	ec804ae3          	bgtz	s0,1c004c96 <_prf+0x652>
	if (prune_zero) {
1c004dc6:	4752                	lw	a4,20(sp)
1c004dc8:	eb31                	bnez	a4,1c004e1c <_prf+0x7d8>
	return buf - start;
1c004dca:	00c8                	addi	a0,sp,68
	*buf = 0;
1c004dcc:	00090023          	sb	zero,0(s2)
	return buf - start;
1c004dd0:	40a90533          	sub	a0,s2,a0
1c004dd4:	b389                	j	1c004b16 <_prf+0x4d2>
			*buf++ = '.';
1c004dd6:	893a                	mv	s2,a4
			zero.predot = zero.postdot = zero.trail = 0;
1c004dd8:	4a81                	li	s5,0
1c004dda:	b7f5                	j	1c004dc6 <_prf+0x782>
		*buf = _get_digit(&fract, &digit_count);
1c004ddc:	106c                	addi	a1,sp,44
1c004dde:	1808                	addi	a0,sp,48
1c004de0:	831ff0ef          	jal	ra,1c004610 <_get_digit>
1c004de4:	00a48023          	sb	a0,0(s1)
		if (*buf++ != '0') {
1c004de8:	03000713          	li	a4,48
1c004dec:	00e50363          	beq	a0,a4,1c004df2 <_prf+0x7ae>
			decexp--;
1c004df0:	1d7d                	addi	s10,s10,-1
		if (falt || (precision > 0)) {
1c004df2:	000a9663          	bnez	s5,1c004dfe <_prf+0x7ba>
		if (*buf++ != '0') {
1c004df6:	00148913          	addi	s2,s1,1
		if (falt || (precision > 0)) {
1c004dfa:	00805d63          	blez	s0,1c004e14 <_prf+0x7d0>
			*buf++ = '.';
1c004dfe:	02e00713          	li	a4,46
1c004e02:	00248913          	addi	s2,s1,2
1c004e06:	00e480a3          	sb	a4,1(s1)
		while (precision > 0 && digit_count > 0) {
1c004e0a:	00805563          	blez	s0,1c004e14 <_prf+0x7d0>
1c004e0e:	5732                	lw	a4,44(sp)
1c004e10:	08e04663          	bgtz	a4,1c004e9c <_prf+0x858>
	if (prune_zero) {
1c004e14:	47d2                	lw	a5,20(sp)
			zero.predot = zero.postdot = zero.trail = 0;
1c004e16:	4a81                	li	s5,0
1c004e18:	4681                	li	a3,0
	if (prune_zero) {
1c004e1a:	cf99                	beqz	a5,1c004e38 <_prf+0x7f4>
		while (*--buf == '0')
1c004e1c:	03000513          	li	a0,48
1c004e20:	fff90713          	addi	a4,s2,-1
1c004e24:	00074583          	lbu	a1,0(a4)
1c004e28:	08a58263          	beq	a1,a0,1c004eac <_prf+0x868>
		if (*buf != '.') {
1c004e2c:	02e00513          	li	a0,46
		zp->trail = 0;
1c004e30:	4401                	li	s0,0
		if (*buf != '.') {
1c004e32:	00a59363          	bne	a1,a0,1c004e38 <_prf+0x7f4>
		while (*--buf == '0')
1c004e36:	893a                	mv	s2,a4
	if ((c == 'e') || (c == 'E')) {
1c004e38:	0dfdf713          	andi	a4,s11,223
1c004e3c:	04500593          	li	a1,69
1c004e40:	f8b715e3          	bne	a4,a1,1c004dca <_prf+0x786>
		*buf++ = c;
1c004e44:	85ca                	mv	a1,s2
1c004e46:	01b5812b          	p.sb	s11,2(a1!)
			*buf++ = '+';
1c004e4a:	02b00793          	li	a5,43
		if (decexp < 0) {
1c004e4e:	000d5663          	bgez	s10,1c004e5a <_prf+0x816>
			decexp = -decexp;
1c004e52:	41a00d33          	neg	s10,s10
			*buf++ = '-';
1c004e56:	02d00793          	li	a5,45
			*buf++ = '+';
1c004e5a:	00f900a3          	sb	a5,1(s2)
		if (decexp >= 100) {
1c004e5e:	06300793          	li	a5,99
1c004e62:	01a7de63          	ble	s10,a5,1c004e7e <_prf+0x83a>
			*buf++ = (decexp / 100) + '0';
1c004e66:	06400713          	li	a4,100
1c004e6a:	02ed47b3          	div	a5,s10,a4
1c004e6e:	00390593          	addi	a1,s2,3
			decexp %= 100;
1c004e72:	02ed6d33          	rem	s10,s10,a4
			*buf++ = (decexp / 100) + '0';
1c004e76:	03078793          	addi	a5,a5,48 # 80000030 <pulp__FC+0x80000031>
1c004e7a:	00f90123          	sb	a5,2(s2)
		*buf++ = (decexp / 10) + '0';
1c004e7e:	47a9                	li	a5,10
1c004e80:	892e                	mv	s2,a1
1c004e82:	02fd4733          	div	a4,s10,a5
		decexp %= 10;
1c004e86:	02fd68b3          	rem	a7,s10,a5
		*buf++ = (decexp / 10) + '0';
1c004e8a:	03070713          	addi	a4,a4,48
1c004e8e:	00e9012b          	p.sb	a4,2(s2!)
		*buf++ = decexp + '0';
1c004e92:	03088893          	addi	a7,a7,48
1c004e96:	011580a3          	sb	a7,1(a1)
1c004e9a:	bf05                	j	1c004dca <_prf+0x786>
			*buf++ = _get_digit(&fract, &digit_count);
1c004e9c:	106c                	addi	a1,sp,44
1c004e9e:	1808                	addi	a0,sp,48
1c004ea0:	f70ff0ef          	jal	ra,1c004610 <_get_digit>
1c004ea4:	00a900ab          	p.sb	a0,1(s2!)
			precision--;
1c004ea8:	147d                	addi	s0,s0,-1
1c004eaa:	b785                	j	1c004e0a <_prf+0x7c6>
		while (*--buf == '0')
1c004eac:	893a                	mv	s2,a4
1c004eae:	bf8d                	j	1c004e20 <_prf+0x7dc>
1c004eb0:	8a4a                	mv	s4,s2
				switch (i) {
1c004eb2:	04c00693          	li	a3,76
1c004eb6:	004a278b          	p.lw	a5,4(s4!)
1c004eba:	02d48a63          	beq	s1,a3,1c004eee <_prf+0x8aa>
1c004ebe:	0096c963          	blt	a3,s1,1c004ed0 <_prf+0x88c>
1c004ec2:	04800693          	li	a3,72
1c004ec6:	02d48063          	beq	s1,a3,1c004ee6 <_prf+0x8a2>
					*va_arg(vargs, int *) = count;
1c004eca:	0137a023          	sw	s3,0(a5)
					break;
1c004ece:	a801                	j	1c004ede <_prf+0x89a>
				switch (i) {
1c004ed0:	06800693          	li	a3,104
1c004ed4:	fed49be3          	bne	s1,a3,1c004eca <_prf+0x886>
					*va_arg(vargs, short *) = count;
1c004ed8:	874e                	mv	a4,s3
1c004eda:	00e79023          	sh	a4,0(a5)
				continue;
1c004ede:	8952                	mv	s2,s4
1c004ee0:	8662                	mv	a2,s8
1c004ee2:	f86ff06f          	j	1c004668 <_prf+0x24>
					*va_arg(vargs, char *) = count;
1c004ee6:	874e                	mv	a4,s3
1c004ee8:	00e78023          	sb	a4,0(a5)
					break;
1c004eec:	bfcd                	j	1c004ede <_prf+0x89a>
					*va_arg(vargs, long long *) = count;
1c004eee:	41f9d713          	srai	a4,s3,0x1f
1c004ef2:	0137a023          	sw	s3,0(a5)
1c004ef6:	c3d8                	sw	a4,4(a5)
					break;
1c004ef8:	b7dd                	j	1c004ede <_prf+0x89a>
				clen = _to_hex(buf, val, true, 'x');
1c004efa:	00092583          	lw	a1,0(s2)
		*buf++ = '0';
1c004efe:	77e1                	lui	a5,0xffff8
1c004f00:	8307c793          	xori	a5,a5,-2000
	len = _to_x(buf, value, 16);
1c004f04:	46c1                	li	a3,16
1c004f06:	4601                	li	a2,0
1c004f08:	04610513          	addi	a0,sp,70
		*buf++ = '0';
1c004f0c:	04f11223          	sh	a5,68(sp)
	len = _to_x(buf, value, 16);
1c004f10:	e0aff0ef          	jal	ra,1c00451a <_to_x>
				val = (uintptr_t) va_arg(vargs, void *);
1c004f14:	00490a13          	addi	s4,s2,4
	return len + (buf - buf0);
1c004f18:	00250d93          	addi	s11,a0,2
				prefix = 2;
1c004f1c:	4909                	li	s2,2
				break;
1c004f1e:	b40d                	j	1c004940 <_prf+0x2fc>
					if (cptr[clen] == '\0') {
1c004f20:	0016c60b          	p.lbu	a2,1(a3!) # 8000001 <__L2+0x7f80001>
1c004f24:	a4060ee3          	beqz	a2,1c004980 <_prf+0x33c>
				for (clen = 0; clen < precision; clen++) {
1c004f28:	0d85                	addi	s11,s11,1
1c004f2a:	bc89                	j	1c00497c <_prf+0x338>
					val = va_arg(vargs, unsigned int);
1c004f2c:	00490a13          	addi	s4,s2,4
1c004f30:	00092583          	lw	a1,0(s2)
1c004f34:	4601                	li	a2,0
					break;
1c004f36:	ba99                	j	1c00488c <_prf+0x248>
	if (alt_form) {
1c004f38:	8526                	mv	a0,s1
	return (buf - buf0) + _to_x(buf, value, 8);
1c004f3a:	46a1                	li	a3,8
1c004f3c:	409504b3          	sub	s1,a0,s1
1c004f40:	ddaff0ef          	jal	ra,1c00451a <_to_x>
1c004f44:	00a48db3          	add	s11,s1,a0
			prefix = 0;
1c004f48:	4901                	li	s2,0
1c004f4a:	badd                	j	1c004940 <_prf+0x2fc>
				} else if (c == 'u') {
1c004f4c:	07500713          	li	a4,117
1c004f50:	00ed9863          	bne	s11,a4,1c004f60 <_prf+0x91c>
	return _to_x(buf, value, 10);
1c004f54:	46a9                	li	a3,10
1c004f56:	8526                	mv	a0,s1
1c004f58:	dc2ff0ef          	jal	ra,1c00451a <_to_x>
1c004f5c:	8daa                	mv	s11,a0
1c004f5e:	b7ed                	j	1c004f48 <_prf+0x904>
	if (alt_form) {
1c004f60:	8d26                	mv	s10,s1
1c004f62:	000a8963          	beqz	s5,1c004f74 <_prf+0x930>
		*buf++ = '0';
1c004f66:	7761                	lui	a4,0xffff8
1c004f68:	83074713          	xori	a4,a4,-2000
1c004f6c:	04e11223          	sh	a4,68(sp)
		*buf++ = 'x';
1c004f70:	04610d13          	addi	s10,sp,70
	len = _to_x(buf, value, 16);
1c004f74:	46c1                	li	a3,16
1c004f76:	856a                	mv	a0,s10
1c004f78:	da2ff0ef          	jal	ra,1c00451a <_to_x>
	if (prefix == 'X') {
1c004f7c:	05800713          	li	a4,88
1c004f80:	02ed9263          	bne	s11,a4,1c004fa4 <_prf+0x960>
1c004f84:	87a6                	mv	a5,s1
		if (*buf >= 'a' && *buf <= 'z') {
1c004f86:	45e5                	li	a1,25
1c004f88:	0017c68b          	p.lbu	a3,1(a5!) # ffff8001 <pulp__FC+0xffff8002>
1c004f8c:	f9f68613          	addi	a2,a3,-97
1c004f90:	0ff67613          	andi	a2,a2,255
1c004f94:	00c5e563          	bltu	a1,a2,1c004f9e <_prf+0x95a>
			*buf += 'A' - 'a';
1c004f98:	1681                	addi	a3,a3,-32
1c004f9a:	fed78fa3          	sb	a3,-1(a5)
	} while (*buf++);
1c004f9e:	fff7c703          	lbu	a4,-1(a5)
1c004fa2:	f37d                	bnez	a4,1c004f88 <_prf+0x944>
	return len + (buf - buf0);
1c004fa4:	409d0733          	sub	a4,s10,s1
1c004fa8:	00a70db3          	add	s11,a4,a0
			prefix = 0;
1c004fac:	001a9913          	slli	s2,s5,0x1
1c004fb0:	ba41                	j	1c004940 <_prf+0x2fc>
				PUTC('%');
1c004fb2:	85de                	mv	a1,s7
1c004fb4:	02500513          	li	a0,37
1c004fb8:	ec4ff06f          	j	1c00467c <_prf+0x38>
				count++;
1c004fbc:	0985                	addi	s3,s3,1
				continue;
1c004fbe:	8a4a                	mv	s4,s2
1c004fc0:	bf39                	j	1c004ede <_prf+0x89a>
1c004fc2:	00dc                	addi	a5,sp,68
				zero_head = 0;
1c004fc4:	4d01                	li	s10,0
1c004fc6:	b2d5                	j	1c0049aa <_prf+0x366>
					PUTC(' ');
1c004fc8:	85de                	mv	a1,s7
1c004fca:	02000513          	li	a0,32
1c004fce:	c036                	sw	a3,0(sp)
1c004fd0:	c43e                	sw	a5,8(sp)
1c004fd2:	9b02                	jalr	s6
1c004fd4:	4682                	lw	a3,0(sp)
1c004fd6:	47a2                	lw	a5,8(sp)
1c004fd8:	ebf52563          	p.beqimm	a0,-1,1c004682 <_prf+0x3e>
				while (width-- > 0) {
1c004fdc:	14fd                	addi	s1,s1,-1
1c004fde:	fff4b5e3          	p.bneimm	s1,-1,1c004fc8 <_prf+0x984>
				count += width;
1c004fe2:	99e6                	add	s3,s3,s9
				while (width-- > 0) {
1c004fe4:	5cfd                	li	s9,-1
1c004fe6:	bad9                	j	1c0049bc <_prf+0x378>
				PUTC(*cptr++);
1c004fe8:	0017c50b          	p.lbu	a0,1(a5!)
1c004fec:	85de                	mv	a1,s7
1c004fee:	c036                	sw	a3,0(sp)
1c004ff0:	c43e                	sw	a5,8(sp)
1c004ff2:	9b02                	jalr	s6
1c004ff4:	4682                	lw	a3,0(sp)
1c004ff6:	47a2                	lw	a5,8(sp)
1c004ff8:	9df534e3          	p.bneimm	a0,-1,1c0049c0 <_prf+0x37c>
1c004ffc:	e86ff06f          	j	1c004682 <_prf+0x3e>
				PUTC('0');
1c005000:	85de                	mv	a1,s7
1c005002:	03000513          	li	a0,48
1c005006:	c036                	sw	a3,0(sp)
1c005008:	c43e                	sw	a5,8(sp)
1c00500a:	9b02                	jalr	s6
1c00500c:	4682                	lw	a3,0(sp)
1c00500e:	47a2                	lw	a5,8(sp)
1c005010:	9bf53be3          	p.bneimm	a0,-1,1c0049c6 <_prf+0x382>
1c005014:	e6eff06f          	j	1c004682 <_prf+0x3e>
					PUTC(c);
1c005018:	85de                	mv	a1,s7
1c00501a:	c232                	sw	a2,4(sp)
1c00501c:	c036                	sw	a3,0(sp)
1c00501e:	c442                	sw	a6,8(sp)
1c005020:	9b02                	jalr	s6
1c005022:	4612                	lw	a2,4(sp)
1c005024:	4682                	lw	a3,0(sp)
1c005026:	4822                	lw	a6,8(sp)
1c005028:	e5f52d63          	p.beqimm	a0,-1,1c004682 <_prf+0x3e>
					c = *++cptr;
1c00502c:	0d85                	addi	s11,s11,1
1c00502e:	000dc503          	lbu	a0,0(s11)
1c005032:	b27d                	j	1c0049e0 <_prf+0x39c>
					PUTC('0');
1c005034:	85de                	mv	a1,s7
1c005036:	03000513          	li	a0,48
1c00503a:	c232                	sw	a2,4(sp)
1c00503c:	c036                	sw	a3,0(sp)
1c00503e:	c43a                	sw	a4,8(sp)
1c005040:	9b02                	jalr	s6
1c005042:	4612                	lw	a2,4(sp)
1c005044:	4682                	lw	a3,0(sp)
1c005046:	4722                	lw	a4,8(sp)
1c005048:	167d                	addi	a2,a2,-1
1c00504a:	9bf532e3          	p.bneimm	a0,-1,1c0049ee <_prf+0x3aa>
1c00504e:	e34ff06f          	j	1c004682 <_prf+0x3e>
					PUTC('0');
1c005052:	85de                	mv	a1,s7
1c005054:	03000513          	li	a0,48
1c005058:	c036                	sw	a3,0(sp)
1c00505a:	c43a                	sw	a4,8(sp)
1c00505c:	9b02                	jalr	s6
1c00505e:	4682                	lw	a3,0(sp)
1c005060:	4722                	lw	a4,8(sp)
1c005062:	16fd                	addi	a3,a3,-1
1c005064:	9df532e3          	p.bneimm	a0,-1,1c004a28 <_prf+0x3e4>
1c005068:	e1aff06f          	j	1c004682 <_prf+0x3e>
					PUTC(c);
1c00506c:	85de                	mv	a1,s7
1c00506e:	c232                	sw	a2,4(sp)
1c005070:	c036                	sw	a3,0(sp)
1c005072:	c43a                	sw	a4,8(sp)
1c005074:	9b02                	jalr	s6
1c005076:	4612                	lw	a2,4(sp)
1c005078:	4682                	lw	a3,0(sp)
1c00507a:	4722                	lw	a4,8(sp)
1c00507c:	e1f52363          	p.beqimm	a0,-1,1c004682 <_prf+0x3e>
					c = *++cptr;
1c005080:	0d85                	addi	s11,s11,1
1c005082:	000dc503          	lbu	a0,0(s11)
1c005086:	ba75                	j	1c004a42 <_prf+0x3fe>
					PUTC('0');
1c005088:	85de                	mv	a1,s7
1c00508a:	03000513          	li	a0,48
1c00508e:	c43a                	sw	a4,8(sp)
1c005090:	9b02                	jalr	s6
1c005092:	4722                	lw	a4,8(sp)
1c005094:	177d                	addi	a4,a4,-1
1c005096:	9bf53fe3          	p.bneimm	a0,-1,1c004a54 <_prf+0x410>
1c00509a:	de8ff06f          	j	1c004682 <_prf+0x3e>
				PUTC(*cptr++);
1c00509e:	0014450b          	p.lbu	a0,1(s0!)
1c0050a2:	85de                	mv	a1,s7
1c0050a4:	9b02                	jalr	s6
1c0050a6:	ddf52e63          	p.beqimm	a0,-1,1c004682 <_prf+0x3e>
1c0050aa:	408a87b3          	sub	a5,s5,s0
			while (clen-- > 0) {
1c0050ae:	fef048e3          	bgtz	a5,1c00509e <_prf+0xa5a>
			count += prefix;
1c0050b2:	994e                	add	s2,s2,s3
			count += zero_head;
1c0050b4:	012d09b3          	add	s3,s10,s2
			count += clen;
1c0050b8:	99a6                	add	s3,s3,s1
			if (width > 0) {
1c0050ba:	e39052e3          	blez	s9,1c004ede <_prf+0x89a>
				count += width;
1c0050be:	99e6                	add	s3,s3,s9
				while (width-- > 0) {
1c0050c0:	1cfd                	addi	s9,s9,-1
1c0050c2:	e1fcaee3          	p.beqimm	s9,-1,1c004ede <_prf+0x89a>
					PUTC(' ');
1c0050c6:	85de                	mv	a1,s7
1c0050c8:	02000513          	li	a0,32
1c0050cc:	9b02                	jalr	s6
1c0050ce:	fff539e3          	p.bneimm	a0,-1,1c0050c0 <_prf+0xa7c>
1c0050d2:	db0ff06f          	j	1c004682 <_prf+0x3e>
			*buf++ = '.';
1c0050d6:	02e00693          	li	a3,46
1c0050da:	00d90023          	sb	a3,0(s2)
1c0050de:	00190713          	addi	a4,s2,1
			zp->predot = decexp;
1c0050e2:	86ea                	mv	a3,s10
			decexp = 0;
1c0050e4:	4d01                	li	s10,0
			zero.predot = zero.postdot = zero.trail = 0;
1c0050e6:	4a81                	li	s5,0
1c0050e8:	b6f9                	j	1c004cb6 <_prf+0x672>
	prune_zero = false;		/* Assume trailing 0's allowed     */
1c0050ea:	ca02                	sw	zero,20(sp)
		exp = precision + 1;
1c0050ec:	00140713          	addi	a4,s0,1
	digit_count = 16;
1c0050f0:	46c1                	li	a3,16
1c0050f2:	d636                	sw	a3,44(sp)
1c0050f4:	04d74933          	p.min	s2,a4,a3
1c0050f8:	b691                	j	1c004c3c <_prf+0x5f8>

1c0050fa <__rt_uart_cluster_req_done>:
  }

  return __rt_uart_open(channel, conf, event, dev_name);
  
error:
  rt_warning("[UART] Failed to open uart device\n");
1c0050fa:	300476f3          	csrrci	a3,mstatus,8
1c0050fe:	4785                	li	a5,1
1c005100:	08f50623          	sb	a5,140(a0)
1c005104:	08d54783          	lbu	a5,141(a0)
1c005108:	00201737          	lui	a4,0x201
1c00510c:	e0470713          	addi	a4,a4,-508 # 200e04 <__L2+0x180e04>
1c005110:	04078793          	addi	a5,a5,64
1c005114:	07da                	slli	a5,a5,0x16
1c005116:	0007e723          	p.sw	zero,a4(a5)
1c00511a:	30069073          	csrw	mstatus,a3
1c00511e:	8082                	ret

1c005120 <__rt_uart_setup.isra.5>:
1c005120:	1c00e737          	lui	a4,0x1c00e
1c005124:	f7072703          	lw	a4,-144(a4) # 1c00df70 <__rt_freq_domains>
1c005128:	00155793          	srli	a5,a0,0x1
1c00512c:	97ba                	add	a5,a5,a4
1c00512e:	02a7d7b3          	divu	a5,a5,a0
1c005132:	1a102737          	lui	a4,0x1a102
1c005136:	17fd                	addi	a5,a5,-1
1c005138:	07c2                	slli	a5,a5,0x10
1c00513a:	3067e793          	ori	a5,a5,774
1c00513e:	22f72223          	sw	a5,548(a4) # 1a102224 <__l1_end+0xa102204>
1c005142:	8082                	ret

1c005144 <__rt_uart_setfreq_after>:
1c005144:	1c00e7b7          	lui	a5,0x1c00e
1c005148:	f1c78793          	addi	a5,a5,-228 # 1c00df1c <__rt_uart>
1c00514c:	4398                	lw	a4,0(a5)
1c00514e:	cb09                	beqz	a4,1c005160 <__rt_uart_setfreq_after+0x1c>
1c005150:	4788                	lw	a0,8(a5)
1c005152:	1141                	addi	sp,sp,-16
1c005154:	c606                	sw	ra,12(sp)
1c005156:	37e9                	jal	1c005120 <__rt_uart_setup.isra.5>
1c005158:	40b2                	lw	ra,12(sp)
1c00515a:	4501                	li	a0,0
1c00515c:	0141                	addi	sp,sp,16
1c00515e:	8082                	ret
1c005160:	4501                	li	a0,0
1c005162:	8082                	ret

1c005164 <__rt_uart_wait_tx_done.isra.6>:
1c005164:	1a102737          	lui	a4,0x1a102
1c005168:	1141                	addi	sp,sp,-16
1c00516a:	21870713          	addi	a4,a4,536 # 1a102218 <__l1_end+0xa1021f8>
1c00516e:	002046b7          	lui	a3,0x204
1c005172:	431c                	lw	a5,0(a4)
1c005174:	8bc1                	andi	a5,a5,16
1c005176:	e38d                	bnez	a5,1c005198 <__rt_uart_wait_tx_done.isra.6+0x34>
1c005178:	1a102737          	lui	a4,0x1a102
1c00517c:	22070713          	addi	a4,a4,544 # 1a102220 <__l1_end+0xa102200>
1c005180:	431c                	lw	a5,0(a4)
1c005182:	fc17b7b3          	p.bclr	a5,a5,30,1
1c005186:	ffed                	bnez	a5,1c005180 <__rt_uart_wait_tx_done.isra.6+0x1c>
1c005188:	c602                	sw	zero,12(sp)
1c00518a:	7cf00713          	li	a4,1999
1c00518e:	47b2                	lw	a5,12(sp)
1c005190:	00f75763          	ble	a5,a4,1c00519e <__rt_uart_wait_tx_done.isra.6+0x3a>
1c005194:	0141                	addi	sp,sp,16
1c005196:	8082                	ret
1c005198:	0386e783          	p.elw	a5,56(a3) # 204038 <__L2+0x184038>
1c00519c:	bfd9                	j	1c005172 <__rt_uart_wait_tx_done.isra.6+0xe>
1c00519e:	47b2                	lw	a5,12(sp)
1c0051a0:	0785                	addi	a5,a5,1
1c0051a2:	c63e                	sw	a5,12(sp)
1c0051a4:	b7ed                	j	1c00518e <__rt_uart_wait_tx_done.isra.6+0x2a>

1c0051a6 <__rt_uart_setfreq_before>:
1c0051a6:	1c00e7b7          	lui	a5,0x1c00e
1c0051aa:	f1c7a783          	lw	a5,-228(a5) # 1c00df1c <__rt_uart>
1c0051ae:	cf99                	beqz	a5,1c0051cc <__rt_uart_setfreq_before+0x26>
1c0051b0:	1141                	addi	sp,sp,-16
1c0051b2:	c606                	sw	ra,12(sp)
1c0051b4:	3f45                	jal	1c005164 <__rt_uart_wait_tx_done.isra.6>
1c0051b6:	40b2                	lw	ra,12(sp)
1c0051b8:	005007b7          	lui	a5,0x500
1c0051bc:	1a102737          	lui	a4,0x1a102
1c0051c0:	0799                	addi	a5,a5,6
1c0051c2:	22f72223          	sw	a5,548(a4) # 1a102224 <__l1_end+0xa102204>
1c0051c6:	4501                	li	a0,0
1c0051c8:	0141                	addi	sp,sp,16
1c0051ca:	8082                	ret
1c0051cc:	4501                	li	a0,0
1c0051ce:	8082                	ret

1c0051d0 <__rt_uart_cluster_req>:
1c0051d0:	1141                	addi	sp,sp,-16
1c0051d2:	c606                	sw	ra,12(sp)
1c0051d4:	c422                	sw	s0,8(sp)
1c0051d6:	30047473          	csrrci	s0,mstatus,8
1c0051da:	1c0057b7          	lui	a5,0x1c005
1c0051de:	0fa78793          	addi	a5,a5,250 # 1c0050fa <__rt_uart_cluster_req_done>
1c0051e2:	c91c                	sw	a5,16(a0)
1c0051e4:	4785                	li	a5,1
1c0051e6:	d91c                	sw	a5,48(a0)
1c0051e8:	411c                	lw	a5,0(a0)
1c0051ea:	02052a23          	sw	zero,52(a0)
1c0051ee:	c948                	sw	a0,20(a0)
1c0051f0:	43cc                	lw	a1,4(a5)
1c0051f2:	4514                	lw	a3,8(a0)
1c0051f4:	4150                	lw	a2,4(a0)
1c0051f6:	0586                	slli	a1,a1,0x1
1c0051f8:	00c50793          	addi	a5,a0,12
1c0051fc:	4701                	li	a4,0
1c0051fe:	0585                	addi	a1,a1,1
1c005200:	4501                	li	a0,0
1c005202:	a07fd0ef          	jal	ra,1c002c08 <rt_periph_copy>
1c005206:	30041073          	csrw	mstatus,s0
1c00520a:	40b2                	lw	ra,12(sp)
1c00520c:	4422                	lw	s0,8(sp)
1c00520e:	0141                	addi	sp,sp,16
1c005210:	8082                	ret

1c005212 <soc_eu_fcEventMask_setEvent>:
1c005212:	47fd                	li	a5,31
1c005214:	4721                	li	a4,8
1c005216:	00a7d463          	ble	a0,a5,1c00521e <soc_eu_fcEventMask_setEvent+0xc>
1c00521a:	1501                	addi	a0,a0,-32
1c00521c:	4711                	li	a4,4
1c00521e:	1a1066b7          	lui	a3,0x1a106
1c005222:	20e6f603          	p.lw	a2,a4(a3)
1c005226:	4785                	li	a5,1
1c005228:	00a79533          	sll	a0,a5,a0
1c00522c:	fff54513          	not	a0,a0
1c005230:	8d71                	and	a0,a0,a2
1c005232:	00a6e723          	p.sw	a0,a4(a3)
1c005236:	8082                	ret

1c005238 <rt_uart_conf_init>:
1c005238:	000997b7          	lui	a5,0x99
1c00523c:	96878793          	addi	a5,a5,-1688 # 98968 <__L2+0x18968>
1c005240:	c11c                	sw	a5,0(a0)
1c005242:	57fd                	li	a5,-1
1c005244:	c15c                	sw	a5,4(a0)
1c005246:	8082                	ret

1c005248 <__rt_uart_open>:
1c005248:	1141                	addi	sp,sp,-16
1c00524a:	c606                	sw	ra,12(sp)
1c00524c:	c422                	sw	s0,8(sp)
1c00524e:	c226                	sw	s1,4(sp)
1c005250:	c04a                	sw	s2,0(sp)
1c005252:	30047973          	csrrci	s2,mstatus,8
1c005256:	cd8d                	beqz	a1,1c005290 <__rt_uart_open+0x48>
1c005258:	4198                	lw	a4,0(a1)
1c00525a:	1c00e6b7          	lui	a3,0x1c00e
1c00525e:	ffc50793          	addi	a5,a0,-4
1c005262:	f1c68413          	addi	s0,a3,-228 # 1c00df1c <__rt_uart>
1c005266:	0792                	slli	a5,a5,0x4
1c005268:	943e                	add	s0,s0,a5
1c00526a:	4010                	lw	a2,0(s0)
1c00526c:	f1c68693          	addi	a3,a3,-228
1c005270:	c60d                	beqz	a2,1c00529a <__rt_uart_open+0x52>
1c005272:	c589                	beqz	a1,1c00527c <__rt_uart_open+0x34>
1c005274:	418c                	lw	a1,0(a1)
1c005276:	4418                	lw	a4,8(s0)
1c005278:	04e59a63          	bne	a1,a4,1c0052cc <__rt_uart_open+0x84>
1c00527c:	0605                	addi	a2,a2,1
1c00527e:	00c6e7a3          	p.sw	a2,a5(a3)
1c005282:	8522                	mv	a0,s0
1c005284:	40b2                	lw	ra,12(sp)
1c005286:	4422                	lw	s0,8(sp)
1c005288:	4492                	lw	s1,4(sp)
1c00528a:	4902                	lw	s2,0(sp)
1c00528c:	0141                	addi	sp,sp,16
1c00528e:	8082                	ret
1c005290:	00099737          	lui	a4,0x99
1c005294:	96870713          	addi	a4,a4,-1688 # 98968 <__L2+0x18968>
1c005298:	b7c9                	j	1c00525a <__rt_uart_open+0x12>
1c00529a:	c418                	sw	a4,8(s0)
1c00529c:	4785                	li	a5,1
1c00529e:	1a102737          	lui	a4,0x1a102
1c0052a2:	78070713          	addi	a4,a4,1920 # 1a102780 <__l1_end+0xa102760>
1c0052a6:	c01c                	sw	a5,0(s0)
1c0052a8:	c048                	sw	a0,4(s0)
1c0052aa:	4314                	lw	a3,0(a4)
1c0052ac:	00a797b3          	sll	a5,a5,a0
1c0052b0:	00151493          	slli	s1,a0,0x1
1c0052b4:	8fd5                	or	a5,a5,a3
1c0052b6:	c31c                	sw	a5,0(a4)
1c0052b8:	8526                	mv	a0,s1
1c0052ba:	3fa1                	jal	1c005212 <soc_eu_fcEventMask_setEvent>
1c0052bc:	00148513          	addi	a0,s1,1
1c0052c0:	3f89                	jal	1c005212 <soc_eu_fcEventMask_setEvent>
1c0052c2:	4408                	lw	a0,8(s0)
1c0052c4:	3db1                	jal	1c005120 <__rt_uart_setup.isra.5>
1c0052c6:	30091073          	csrw	mstatus,s2
1c0052ca:	bf65                	j	1c005282 <__rt_uart_open+0x3a>
1c0052cc:	4401                	li	s0,0
1c0052ce:	bf55                	j	1c005282 <__rt_uart_open+0x3a>

1c0052d0 <rt_uart_close>:
}



void rt_uart_close(rt_uart_t *uart, rt_event_t *event)
{
1c0052d0:	1141                	addi	sp,sp,-16
1c0052d2:	c606                	sw	ra,12(sp)
1c0052d4:	c422                	sw	s0,8(sp)
1c0052d6:	c226                	sw	s1,4(sp)
  return __builtin_pulp_read_then_spr_bit_clr(reg, val);
1c0052d8:	300474f3          	csrrci	s1,mstatus,8
  int irq = rt_irq_disable();

  rt_trace(RT_TRACE_DEV_CTRL, "[UART] Closing uart device (handle: %p)\n", uart);

  uart->open_count--;
1c0052dc:	411c                	lw	a5,0(a0)
1c0052de:	17fd                	addi	a5,a5,-1
1c0052e0:	c11c                	sw	a5,0(a0)

  if (uart->open_count == 0)
1c0052e2:	e795                	bnez	a5,1c00530e <rt_uart_close+0x3e>
1c0052e4:	842a                	mv	s0,a0
  {
      // First wait for pending transfers to finish before stoppping uart in case
      // some printf are still pending
      __rt_uart_wait_tx_done(uart);
1c0052e6:	3dbd                	jal	1c005164 <__rt_uart_wait_tx_done.isra.6>

  pulp_write32(ARCHI_UDMA_ADDR + UDMA_UART_OFFSET(channel) + UDMA_CHANNEL_CUSTOM_OFFSET + UART_SETUP_OFFSET, val);
}

static inline void plp_uart_disable(int channel) {
  pulp_write32(ARCHI_UDMA_ADDR + UDMA_UART_OFFSET(channel) + UDMA_CHANNEL_CUSTOM_OFFSET + UART_SETUP_OFFSET, 0x00500006);
1c0052e8:	1a102737          	lui	a4,0x1a102
1c0052ec:	005007b7          	lui	a5,0x500
1c0052f0:	22470693          	addi	a3,a4,548 # 1a102224 <__l1_end+0xa102204>
1c0052f4:	0799                	addi	a5,a5,6
1c0052f6:	c29c                	sw	a5,0(a3)
      // Set enable bits for uart channel back to 0 
      // This is needed to be able to propagate new configs when re-opening
      plp_uart_disable(uart->channel - ARCHI_UDMA_UART_ID(0));      

      // Then stop the uart
      plp_udma_cg_set(plp_udma_cg_get() & ~(1<<uart->channel));
1c0052f8:	4050                	lw	a2,4(s0)
  return pulp_read32(ARCHI_SOC_PERIPHERALS_ADDR + ARCHI_UDMA_OFFSET + UDMA_CONF_OFFSET + UDMA_CONF_CG_OFFSET);
1c0052fa:	78070713          	addi	a4,a4,1920
1c0052fe:	4314                	lw	a3,0(a4)
1c005300:	4785                	li	a5,1
1c005302:	00c797b3          	sll	a5,a5,a2
1c005306:	fff7c793          	not	a5,a5
1c00530a:	8ff5                	and	a5,a5,a3
  pulp_write32(ARCHI_SOC_PERIPHERALS_ADDR + ARCHI_UDMA_OFFSET + UDMA_CONF_OFFSET + UDMA_CONF_CG_OFFSET, value);
1c00530c:	c31c                	sw	a5,0(a4)
  __builtin_pulp_spr_write(reg, val);
1c00530e:	30049073          	csrw	mstatus,s1
  }

  rt_irq_restore(irq);
}
1c005312:	40b2                	lw	ra,12(sp)
1c005314:	4422                	lw	s0,8(sp)
1c005316:	4492                	lw	s1,4(sp)
1c005318:	0141                	addi	sp,sp,16
1c00531a:	8082                	ret

1c00531c <rt_uart_cluster_write>:
  asm("csrr %0, 0x014" : "=r" (hart_id) : );
1c00531c:	014027f3          	csrr	a5,uhartid
  return (hart_id >> 5) & 0x3f;
1c005320:	8795                	srai	a5,a5,0x5
1c005322:	f267b7b3          	p.bclr	a5,a5,25,6
void rt_uart_cluster_write(rt_uart_t *handle, void *buffer, size_t size, rt_uart_req_t *req)
{
  req->uart = handle;
  req->buffer = buffer;
  req->size = size;
  req->cid = rt_cluster_id();
1c005326:	08f686a3          	sb	a5,141(a3)
  event->arg[0] = (uintptr_t)callback;
1c00532a:	1c0057b7          	lui	a5,0x1c005
1c00532e:	1d078793          	addi	a5,a5,464 # 1c0051d0 <__rt_uart_cluster_req>
1c005332:	ca9c                	sw	a5,16(a3)
  event->implem.pending = 1;  
1c005334:	4785                	li	a5,1
  req->uart = handle;
1c005336:	c288                	sw	a0,0(a3)
  req->buffer = buffer;
1c005338:	c2cc                	sw	a1,4(a3)
  req->size = size;
1c00533a:	c690                	sw	a2,8(a3)
  req->done = 0;
1c00533c:	08068623          	sb	zero,140(a3)
  event->implem.keep = 0;
1c005340:	0206aa23          	sw	zero,52(a3)
  event->arg[1] = (uintptr_t)arg;
1c005344:	cad4                	sw	a3,20(a3)
  event->implem.pending = 1;  
1c005346:	da9c                	sw	a5,48(a3)
  __rt_init_event(&req->event, __rt_cluster_sched_get(), __rt_uart_cluster_req, (void *)req);
  __rt_event_set_pending(&req->event);
  __rt_cluster_push_fc_event(&req->event);
1c005348:	00c68513          	addi	a0,a3,12
1c00534c:	a44fe06f          	j	1c003590 <__rt_cluster_push_fc_event>

1c005350 <__rt_uart_init>:
{
  // In case the peripheral clock can dynamically change, we need to be notified
  // when this happens so that we flush pending transfers before updating the frequency
  int err = 0;

  err |= __rt_cbsys_add(RT_CBSYS_PERIPH_SETFREQ_BEFORE, __rt_uart_setfreq_before, NULL);
1c005350:	1c0055b7          	lui	a1,0x1c005
{
1c005354:	1141                	addi	sp,sp,-16
  err |= __rt_cbsys_add(RT_CBSYS_PERIPH_SETFREQ_BEFORE, __rt_uart_setfreq_before, NULL);
1c005356:	4601                	li	a2,0
1c005358:	1a658593          	addi	a1,a1,422 # 1c0051a6 <__rt_uart_setfreq_before>
1c00535c:	4511                	li	a0,4
{
1c00535e:	c606                	sw	ra,12(sp)
1c005360:	c422                	sw	s0,8(sp)
  err |= __rt_cbsys_add(RT_CBSYS_PERIPH_SETFREQ_BEFORE, __rt_uart_setfreq_before, NULL);
1c005362:	f25fc0ef          	jal	ra,1c002286 <__rt_cbsys_add>

  err |= __rt_cbsys_add(RT_CBSYS_PERIPH_SETFREQ_AFTER, __rt_uart_setfreq_after, NULL);
1c005366:	1c0055b7          	lui	a1,0x1c005
  err |= __rt_cbsys_add(RT_CBSYS_PERIPH_SETFREQ_BEFORE, __rt_uart_setfreq_before, NULL);
1c00536a:	842a                	mv	s0,a0
  err |= __rt_cbsys_add(RT_CBSYS_PERIPH_SETFREQ_AFTER, __rt_uart_setfreq_after, NULL);
1c00536c:	4601                	li	a2,0
1c00536e:	14458593          	addi	a1,a1,324 # 1c005144 <__rt_uart_setfreq_after>
1c005372:	4515                	li	a0,5
1c005374:	f13fc0ef          	jal	ra,1c002286 <__rt_cbsys_add>


  for (int i=0; i<ARCHI_UDMA_NB_UART; i++)
  {
    __rt_uart[i].open_count = 0;
1c005378:	1c00e7b7          	lui	a5,0x1c00e
1c00537c:	f007ae23          	sw	zero,-228(a5) # 1c00df1c <__rt_uart>
  err |= __rt_cbsys_add(RT_CBSYS_PERIPH_SETFREQ_AFTER, __rt_uart_setfreq_after, NULL);
1c005380:	8d41                	or	a0,a0,s0
  }

  if (err) rt_fatal("Unable to initialize uart driver\n");
1c005382:	c10d                	beqz	a0,1c0053a4 <__rt_uart_init+0x54>
  asm("csrr %0, 0x014" : "=r" (hart_id) : );
1c005384:	01402673          	csrr	a2,uhartid
1c005388:	1c006537          	lui	a0,0x1c006
  return (hart_id >> 5) & 0x3f;
1c00538c:	40565593          	srai	a1,a2,0x5
1c005390:	f265b5b3          	p.bclr	a1,a1,25,6
1c005394:	f4563633          	p.bclr	a2,a2,26,5
1c005398:	b1850513          	addi	a0,a0,-1256 # 1c005b18 <__clz_tab+0x49c>
1c00539c:	954ff0ef          	jal	ra,1c0044f0 <printf>
1c0053a0:	8bcff0ef          	jal	ra,1c00445c <abort>
}
1c0053a4:	40b2                	lw	ra,12(sp)
1c0053a6:	4422                	lw	s0,8(sp)
1c0053a8:	0141                	addi	sp,sp,16
1c0053aa:	8082                	ret

1c0053ac <__cluster_text_start>:
  .global __rt_pe_start
__rt_pe_start:

#endif

    csrr    a0, 0xF14
1c0053ac:	f1402573          	csrr	a0,mhartid
    andi    a1, a0, 0x1f
1c0053b0:	01f57593          	andi	a1,a0,31
    srli    a0, a0, 5
1c0053b4:	8115                	srli	a0,a0,0x5
    
    // Activate a few events
    li      t0, (1<<PULP_DISPATCH_EVENT) | (1<<PULP_HW_BAR_EVENT) | (1<<PULP_MUTEX_EVENT)
1c0053b6:	000702b7          	lui	t0,0x70
    li      t1, ARCHI_EU_DEMUX_ADDR
1c0053ba:	00204337          	lui	t1,0x204
    sw      t0, EU_CORE_MASK(t1)
1c0053be:	00532023          	sw	t0,0(t1) # 204000 <__L2+0x184000>

#ifndef ARCHI_NO_L1_TINY
    sw      x0, %tiny(__rt_dma_first_pending)(x0)
1c0053c2:	00002a23          	sw	zero,20(zero) # 14 <__rt_bridge_eeprom_handle>

#ifdef ARCHI_HAS_CC
    li      t2, ARCHI_CC_CORE_ID
    bne     a1, t2, __rt_slave_start
#else
    bne     a1, x0, __rt_slave_start
1c0053c6:	10059063          	bnez	a1,1c0054c6 <__rt_slave_start>
#endif

    li      t0, (1<<ARCHI_CL_EVT_DMA1)
1c0053ca:	20000293          	li	t0,512
    li      t1, ARCHI_EU_DEMUX_ADDR
1c0053ce:	00204337          	lui	t1,0x204
    sw      t0, EU_CORE_MASK_IRQ_OR(t1)
1c0053d2:	00532a23          	sw	t0,20(t1) # 204014 <__L2+0x184014>



    // Prepare few values that will be kept in saved registers to optimize the loop
    la      s0, __rt_cluster_pool
1c0053d6:	e3ffb417          	auipc	s0,0xe3ffb
1c0053da:	c2e40413          	addi	s0,s0,-978 # 4 <__rt_bridge_flash_handle>
    li      s3, ARCHI_EU_DEMUX_ADDR
1c0053de:	002049b7          	lui	s3,0x204
    li      s4, 1<<RT_CLUSTER_CALL_EVT
1c0053e2:	4a09                	li	s4,2
    la      s5, __rt_master_event
1c0053e4:	00000a97          	auipc	s5,0x0
1c0053e8:	038a8a93          	addi	s5,s5,56 # 1c00541c <__rt_master_event>
    la      s7, __rt_fc_cluster_data
1c0053ec:	00009b97          	auipc	s7,0x9
1c0053f0:	b94b8b93          	addi	s7,s7,-1132 # 1c00df80 <__rt_fc_cluster_data>
    li      t2, RT_FC_CLUSTER_DATA_T_SIZEOF
1c0053f4:	02800393          	li	t2,40
    mul     t2, t2, a0
1c0053f8:	02a383b3          	mul	t2,t2,a0
    add     s7, s7, t2
1c0053fc:	9b9e                	add	s7,s7,t2
    addi    s7, s7, RT_FC_CLUSTER_DATA_T_EVENTS
1c0053fe:	0b91                	addi	s7,s7,4
#if defined(ARCHI_HAS_FC)
#if defined(ITC_VERSION)
    li      s9, ARCHI_FC_ITC_ADDR + ITC_STATUS_SET_OFFSET
    li      s8, 1<<RT_FC_ENQUEUE_EVENT
#else
    li      s9, ARCHI_FC_GLOBAL_ADDR + ARCHI_FC_PERIPHERALS_OFFSET + ARCHI_FC_EU_OFFSET + EU_SW_EVENTS_AREA_BASE + EU_CORE_TRIGG_SW_EVENT + (RT_FC_ENQUEUE_EVENT << 2)
1c005400:	1b201cb7          	lui	s9,0x1b201
1c005404:	e04c8c93          	addi	s9,s9,-508 # 1b200e04 <__fc_tcdm_end+0x1ffa34>
    li      s8, 1
1c005408:	4c05                	li	s8,1
    // In case there is no FC, the event must be sent to cluster 0 event unit
    li      s9, ARCHI_CLUSTER_PERIPHERALS_GLOBAL_ADDR(0) + ARCHI_EU_OFFSET + EU_SW_EVENTS_AREA_BASE + EU_CORE_TRIGG_SW_EVENT + (RT_FC_ENQUEUE_EVENT << 2)
    li      s8, 1    
#endif
#ifndef ARCHI_HAS_NO_DISPATCH
    la      s10, __rt_set_slave_stack
1c00540a:	00000d17          	auipc	s10,0x0
1c00540e:	0fad0d13          	addi	s10,s10,250 # 1c005504 <__rt_set_slave_stack>
    ori     s10, s10, 1
1c005412:	001d6d13          	ori	s10,s10,1
#endif

    csrwi   0x300, 0x8
1c005416:	30045073          	csrwi	mstatus,8

    j       __rt_master_loop
1c00541a:	a819                	j	1c005430 <__rt_master_loop>

1c00541c <__rt_master_event>:



__rt_master_event:
    beq     s6, x0, __rt_master_loop
1c00541c:	000b0a63          	beqz	s6,1c005430 <__rt_master_loop>

1c005420 <__rt_push_event_to_fc_retry>:

__rt_push_event_to_fc_retry:
    // Now we have to push the termination event to FC side
    // First wait until the slot for posting events is free
    lw      t0, 0(s7)
1c005420:	000ba283          	lw	t0,0(s7)
    bne     t0, x0, __rt_push_event_to_fc_wait
1c005424:	08029a63          	bnez	t0,1c0054b8 <__rt_push_event_to_fc_wait>

    // Push it
    sw      s6, 0(s7)
1c005428:	016ba023          	sw	s6,0(s7)

    // And notify the FC side with a HW event in case it is sleeping
    sw      s8, 0(s9)
1c00542c:	018ca023          	sw	s8,0(s9)

1c005430 <__rt_master_loop>:


__rt_master_loop:
    // Check if a task is ready in the pool
    lw      t3, 0(s0)
1c005430:	00042e03          	lw	t3,0(s0)
    // Check if a call is ready, e.g. if nb_pe is not zero
    // otherwise go to sleep
    beq     t3, x0, __rt_master_sleep
1c005434:	060e0b63          	beqz	t3,1c0054aa <__rt_master_sleep>

1c005438 <__rt_master_loop_update_next>:

__rt_master_loop_update_next:
    lw      t4, RT_CLUSTER_TASK_NEXT(t3)
1c005438:	020e2e83          	lw	t4,32(t3)
    sw      x0, RT_CLUSTER_TASK_PENDING(t3)
1c00543c:	020e2223          	sw	zero,36(t3)
    sw      t4, 0(s0)
1c005440:	01d42023          	sw	t4,0(s0)

    // Check again next pointer in case it was updated by the FC.
    // If so, do it it again as this will ensure that either we see the new
    // value or the FC sees our write
    lw      t5, RT_CLUSTER_TASK_NEXT(t3)
1c005444:	020e2f03          	lw	t5,32(t3)
    bne     t4, t5, __rt_master_loop_update_next
1c005448:	ffee98e3          	bne	t4,t5,1c005438 <__rt_master_loop_update_next>
    li      a4, 0
    ebreak
#endif

#ifdef __RT_USE_ASSERT
    csrwi   0x7D0, 0
1c00544c:	7d005073          	csrwi	0x7d0,0
#endif

    // Reads entry point information
    lw      a0, RT_CLUSTER_TASK_ARG(t3)
1c005450:	004e2503          	lw	a0,4(t3)
    lw      t0, RT_CLUSTER_TASK_ENTRY(t3)
1c005454:	000e2283          	lw	t0,0(t3)
    lw      sp, RT_CLUSTER_TASK_STACKS(t3)
1c005458:	008e2103          	lw	sp,8(t3)
    lw      t1, RT_CLUSTER_TASK_STACK_SIZE(t3)
1c00545c:	00ce2303          	lw	t1,12(t3)
    lw      t2, RT_CLUSTER_TASK_SLAVE_STACK_SIZE(t3)
1c005460:	010e2383          	lw	t2,16(t3)
    lw      t5, RT_CLUSTER_TASK_CORE_MASK(t3)
1c005464:	028e2f03          	lw	t5,40(t3)
    lw      s6, RT_CLUSTER_TASK_COMPLETION_CALLBACK(t3)
1c005468:	018e2b03          	lw	s6,24(t3)
    lw      t6, RT_CLUSTER_TASK_NB_CORES(t3)
1c00546c:	014e2f83          	lw	t6,20(t3)
    mv      ra, s5
1c005470:	80d6                	mv	ra,s5

    add     sp, sp, t1
1c005472:	911a                	add	sp,sp,t1

#ifdef ARCHI_NO_L1_TINY
    la      t4, __rt_cluster_nb_active_pe
    sw      t6, 0(t4)
#else
    sw      t6, %tiny(__rt_cluster_nb_active_pe)(x0)
1c005474:	01f02c23          	sw	t6,24(zero) # 18 <__rt_first_free>
#endif

#ifdef __RT_USE_ASSERT
    // Update stack checking information
    beqz    t1, __rt_no_stack_check
1c005478:	00030a63          	beqz	t1,1c00548c <__rt_no_stack_check>
    sub     t4, sp, t1
1c00547c:	40610eb3          	sub	t4,sp,t1
    csrw    0x7D1, t4
1c005480:	7d1e9073          	csrw	0x7d1,t4
    csrw    0x7D2, sp
1c005484:	7d211073          	csrw	0x7d2,sp
    csrwi   0x7D0, 1
1c005488:	7d00d073          	csrwi	0x7d0,1

1c00548c <__rt_no_stack_check>:
#endif

__rt_no_stack_check:
    // Whatever the number of cores, we need to setup the barrier as the master code is compiled to use it
    sw      t5, EU_DISPATCH_DEMUX_OFFSET + EU_DISPATCH_TEAM_CONFIG(s3)
1c00548c:	09e9a223          	sw	t5,132(s3) # 204084 <__L2+0x184084>
#ifdef ARCHI_HAS_CC
    // When we have a cluster controller, don't configure the slave barrier
    // if we don't have have any slave
    beqz    t5, __rt_master_no_slave_barrier
#endif
    sw      t5, EU_BARRIER_DEMUX_OFFSET + EU_HW_BARR_TRIGGER_MASK(s3)
1c005490:	21e9a023          	sw	t5,512(s3)
    sw      t5, EU_BARRIER_DEMUX_OFFSET + EU_HW_BARR_TARGET_MASK(s3)
1c005494:	21e9a623          	sw	t5,524(s3)

1c005498 <__rt_master_no_slave_barrier>:
    sw      t6, EU_BARRIER_DEMUX_OFFSET + EU_HW_BARR_TARGET_MASK + EU_BARRIER_SIZE(s3)
#endif

    // Set stack on slaves
    // For that we push first the function for setting stack, then the stack size and the base
    p.beqimm t5, 0, __rt_master_loop_no_slave
1c005498:	000f2863          	p.beqimm	t5,0,1c0054a8 <__rt_master_loop_no_slave>
    sw      s10, EU_DISPATCH_DEMUX_OFFSET + EU_DISPATCH_FIFO_ACCESS(s3)
1c00549c:	09a9a023          	sw	s10,128(s3)
    sw      t2, EU_DISPATCH_DEMUX_OFFSET + EU_DISPATCH_FIFO_ACCESS(s3)
1c0054a0:	0879a023          	sw	t2,128(s3)
    sw      sp, EU_DISPATCH_DEMUX_OFFSET + EU_DISPATCH_FIFO_ACCESS(s3)
1c0054a4:	0829a023          	sw	sp,128(s3)

1c0054a8 <__rt_master_loop_no_slave>:

__rt_master_loop_no_slave:

    // Call the entry point, this will directly come back to the master loop
    jr      t0
1c0054a8:	8282                	jr	t0

1c0054aa <__rt_master_sleep>:
    lw      a1, %tiny(__rt_pe_trace)(x0)
    li      a2, 1
    ebreak
#endif

    sw      s4, EU_CORE_MASK_OR(s3)
1c0054aa:	0149a423          	sw	s4,8(s3)
    p.elw   x0, EU_CORE_EVENT_WAIT_CLEAR(s3)
1c0054ae:	03c9e003          	p.elw	zero,60(s3)
    sw      s4, EU_CORE_MASK_AND(s3)
1c0054b2:	0149a223          	sw	s4,4(s3)
    j       __rt_master_loop
1c0054b6:	bfad                	j	1c005430 <__rt_master_loop>

1c0054b8 <__rt_push_event_to_fc_wait>:




__rt_push_event_to_fc_wait:
    sw      s4, EU_CORE_MASK_OR(s3)
1c0054b8:	0149a423          	sw	s4,8(s3)
    p.elw   x0, EU_CORE_EVENT_WAIT_CLEAR(s3)
1c0054bc:	03c9e003          	p.elw	zero,60(s3)
    sw      s4, EU_CORE_MASK_AND(s3)
1c0054c0:	0149a223          	sw	s4,4(s3)
    j       __rt_push_event_to_fc_retry
1c0054c4:	bfb1                	j	1c005420 <__rt_push_event_to_fc_retry>

1c0054c6 <__rt_slave_start>:
__rt_slave_start:


#ifndef ARCHI_HAS_NO_DISPATCH

    li      s2, ARCHI_EU_DEMUX_ADDR
1c0054c6:	00204937          	lui	s2,0x204
    csrr    s3, 0xF14
1c0054ca:	f14029f3          	csrr	s3,mhartid
    and     s3, s3, 0x1f
1c0054ce:	01f9f993          	andi	s3,s3,31
    la      s4, __rt_fork_return
1c0054d2:	00000a17          	auipc	s4,0x0
1c0054d6:	012a0a13          	addi	s4,s4,18 # 1c0054e4 <__rt_fork_return>
    la      s5, __rt_wait_for_dispatch
1c0054da:	00000a97          	auipc	s5,0x0
1c0054de:	00ea8a93          	addi	s5,s5,14 # 1c0054e8 <__rt_wait_for_dispatch>
    j       __rt_wait_for_dispatch
1c0054e2:	a019                	j	1c0054e8 <__rt_wait_for_dispatch>

1c0054e4 <__rt_fork_return>:
    // When the cluster has a controller barrier 0 is used for normal team barrier
    // and barrier 1 is used for end of offload
    p.elw   t0, EU_BARRIER_DEMUX_OFFSET + EU_HW_BARR_TRIGGER_WAIT_CLEAR + EU_BARRIER_SIZE(s2)
#else
#ifndef ARCHI_HAS_NO_BARRIER
    p.elw   t0, EU_BARRIER_DEMUX_OFFSET + EU_HW_BARR_TRIGGER_WAIT_CLEAR(s2)
1c0054e4:	21c96283          	p.elw	t0,540(s2) # 20421c <__L2+0x18421c>

1c0054e8 <__rt_wait_for_dispatch>:
    li      a2, 1
    ebreak
#endif

    // Wait for PC + arg information from dispatcher
    p.elw   t0, EU_DISPATCH_DEMUX_OFFSET + EU_DISPATCH_FIFO_ACCESS(s2)
1c0054e8:	08096283          	p.elw	t0,128(s2)
    p.elw   a0, EU_DISPATCH_DEMUX_OFFSET + EU_DISPATCH_FIFO_ACCESS(s2)
1c0054ec:	08096503          	p.elw	a0,128(s2)
    ebreak
    mv      a0, t1
#endif

    // Check if this is an entry with a barrier at the end (fork entry)
    andi    t1, t0, 1
1c0054f0:	0012f313          	andi	t1,t0,1
    bne     t1, zero, __rt_other_entry
1c0054f4:	00031563          	bnez	t1,1c0054fe <__rt_other_entry>

1c0054f8 <__rt_fork_entry>:

__rt_fork_entry:

    // Jump to the handler and prepare r9 to jump back just before the main loop
    add     ra, s4, x0
1c0054f8:	000a00b3          	add	ra,s4,zero
    jr      t0
1c0054fc:	8282                	jr	t0

1c0054fe <__rt_other_entry>:

__rt_other_entry:

  // Jump to the handler and prepare r9 to jump back directly to the main loop
    add     ra, s5, x0
1c0054fe:	000a80b3          	add	ra,s5,zero
    jr      t0
1c005502:	8282                	jr	t0

1c005504 <__rt_set_slave_stack>:

  .global __rt_set_slave_stack
__rt_set_slave_stack:

#ifdef __RT_USE_ASSERT
    csrwi   0x7D0, 0
1c005504:	7d005073          	csrwi	0x7d0,0
#endif

    // Multiply the stack size by the core ID and add the stack base to get our stack
    p.elw   t0, EU_DISPATCH_DEMUX_OFFSET + EU_DISPATCH_FIFO_ACCESS(s2)
1c005508:	08096283          	p.elw	t0,128(s2)
    // If the cluster has a cluster controller, the first slave has core ID 0
    // and thus we need to take the next stack
    addi     t5, s3, 1
    p.mul   t4, t5, a0
#else
    p.mul   t4, s3, a0
1c00550c:	02a98eb3          	mul	t4,s3,a0
#endif
    add     sp, t4, t0
1c005510:	005e8133          	add	sp,t4,t0

#ifdef __RT_USE_ASSERT
    beqz    a0, __rt_no_stack_check_end
1c005514:	c909                	beqz	a0,1c005526 <__rt_no_stack_check_end>
    sub     t4, sp, a0
1c005516:	40a10eb3          	sub	t4,sp,a0
    csrw    0x7D1, t4
1c00551a:	7d1e9073          	csrw	0x7d1,t4
    csrw    0x7D2, sp
1c00551e:	7d211073          	csrw	0x7d2,sp
    csrwi   0x7D0, 1
1c005522:	7d00d073          	csrwi	0x7d0,1

1c005526 <__rt_no_stack_check_end>:
#endif
__rt_no_stack_check_end:
    ret
1c005526:	8082                	ret

1c005528 <__rt_dma_2d>:
#if defined(ARCHI_HAS_CLUSTER)
#ifndef ARCHI_NO_L1_TINY
    .global __rt_dma_2d
__rt_dma_2d:

    sw  x8, -4(sp)
1c005528:	fe812e23          	sw	s0,-4(sp)
    sw  x9, -8(sp)
1c00552c:	fe912c23          	sw	s1,-8(sp)
    sw  a0, -12(sp)
1c005530:	fea12a23          	sw	a0,-12(sp)
    sw  a1, -16(sp)
1c005534:	feb12823          	sw	a1,-16(sp)
    sw  a2, -20(sp)
1c005538:	fec12623          	sw	a2,-20(sp)

    li  a2, ARCHI_MCHAN_DEMUX_ADDR
1c00553c:	00204637          	lui	a2,0x204
1c005540:	40060613          	addi	a2,a2,1024 # 204400 <__L2+0x184400>

    lw  x8, %tiny(__rt_dma_first_pending)(x0)
1c005544:	01402403          	lw	s0,20(zero) # 14 <__rt_bridge_eeprom_handle>

    lw  a1, CL_DMA_CMD_T_ID(x8)
1c005548:	400c                	lw	a1,0(s0)
    lw  a0, CL_DMA_CMD_T_SIZE(x8)
1c00554a:	4408                	lw	a0,8(s0)
    p.bsetr a1, x0, a1
1c00554c:	80b045b3          	p.bsetr	a1,zero,a1
    sw  a1, MCHAN_STATUS_OFFSET(a2)
1c005550:	c24c                	sw	a1,4(a2)
    lw  a1, CL_DMA_CMD_T_LENGTH(x8)
1c005552:	480c                	lw	a1,16(s0)

    beqz a0, __rt_dma_2d_done
1c005554:	c131                	beqz	a0,1c005598 <__rt_dma_2d_done>

1c005556 <__rt_dma_2d_redo>:

__rt_dma_2d_redo:
    lw  x9, CL_DMA_CMD_T_CMD(x8)
1c005556:	4044                	lw	s1,4(s0)
    
    bgt a0, a1, __rt_dma_2d_not_last
1c005558:	00a5c363          	blt	a1,a0,1c00555e <__rt_dma_2d_not_last>
    mv  a1, a0
1c00555c:	85aa                	mv	a1,a0

1c00555e <__rt_dma_2d_not_last>:

__rt_dma_2d_not_last:
    lw  a0, MCHAN_CMD_OFFSET(a2)
1c00555e:	4208                	lw	a0,0(a2)
    sw  a0, CL_DMA_CMD_T_ID(x8)
1c005560:	c008                	sw	a0,0(s0)

    lw  a0, CL_DMA_CMD_T_SIZE(x8)
1c005562:	4408                	lw	a0,8(s0)

    p.inserti x9, a1, MCHAN_CMD_CMD_LEN_WIDTH-1, MCHAN_CMD_CMD_LEN_BIT
1c005564:	de05a4b3          	p.insert	s1,a1,15,0

    sw  x9, MCHAN_CMD_OFFSET(a2)   // cmd
1c005568:	c204                	sw	s1,0(a2)

    sub a0, a0, a1
1c00556a:	8d0d                	sub	a0,a0,a1
    sw  a0, CL_DMA_CMD_T_SIZE(x8)
1c00556c:	c408                	sw	a0,8(s0)

    lw  a0, CL_DMA_CMD_T_LOC_ADDR(x8)
1c00556e:	4848                	lw	a0,20(s0)

    sw  a0, MCHAN_CMD_OFFSET(a2)   // local address
1c005570:	c208                	sw	a0,0(a2)
    add a0, a0, a1
1c005572:	952e                	add	a0,a0,a1
    sw  a0, CL_DMA_CMD_T_LOC_ADDR(x8)
1c005574:	c848                	sw	a0,20(s0)


    lw  a0, CL_DMA_CMD_T_EXT_ADDR(x8)
1c005576:	4c08                	lw	a0,24(s0)
    lw  a1, CL_DMA_CMD_T_STRIDE(x8)
1c005578:	444c                	lw	a1,12(s0)

    sw  a0, MCHAN_CMD_OFFSET(a2)   // external address
1c00557a:	c208                	sw	a0,0(a2)
    add a0, a0, a1
1c00557c:	952e                	add	a0,a0,a1
    sw  a0, CL_DMA_CMD_T_EXT_ADDR(x8)
1c00557e:	cc08                	sw	a0,24(s0)

1c005580 <__rt_dma_2d_exit>:

__rt_dma_2d_exit:
    lw  x8, -4(sp)
1c005580:	ffc12403          	lw	s0,-4(sp)
    lw  x9, -8(sp)
1c005584:	ff812483          	lw	s1,-8(sp)
    lw  a0, -12(sp)
1c005588:	ff412503          	lw	a0,-12(sp)
    lw  a1, -16(sp)
1c00558c:	ff012583          	lw	a1,-16(sp)
    lw  a2, -20(sp)
1c005590:	fec12603          	lw	a2,-20(sp)

    mret
1c005594:	30200073          	mret

1c005598 <__rt_dma_2d_done>:

__rt_dma_2d_done:
    sw  x0, CL_DMA_CMD_T_EXT_ADDR(x8)
1c005598:	00042c23          	sw	zero,24(s0)

    lw  x9, CL_DMA_CMD_T_NEXT(x8)
1c00559c:	4c44                	lw	s1,28(s0)
    sw  x9, %tiny(__rt_dma_first_pending)(x0)
1c00559e:	00902a23          	sw	s1,20(zero) # 14 <__rt_bridge_eeprom_handle>

    li  x8, ARCHI_EU_DEMUX_ADDR + EU_SW_EVENTS_DEMUX_OFFSET + (RT_DMA_EVENT<<2)
1c0055a2:	00204437          	lui	s0,0x204
1c0055a6:	11440413          	addi	s0,s0,276 # 204114 <__L2+0x184114>
    sw  x0, EU_CORE_TRIGG_SW_EVENT(x8)
1c0055aa:	00042023          	sw	zero,0(s0)

    beqz x9, __rt_dma_2d_exit
1c0055ae:	d8e9                	beqz	s1,1c005580 <__rt_dma_2d_exit>

    mv  x8, x9
1c0055b0:	8426                	mv	s0,s1

    lw  a0, CL_DMA_CMD_T_SIZE(x8)
1c0055b2:	4408                	lw	a0,8(s0)
    lw  a1, CL_DMA_CMD_T_LENGTH(x8)
1c0055b4:	480c                	lw	a1,16(s0)

    j   __rt_dma_2d_redo
1c0055b6:	b745                	j	1c005556 <__rt_dma_2d_redo>
